
/Users/spoiler/Documents/GitHub/CAT-ectf-2024/component/build/max78000.elf:     file format elf32-littlearm


Disassembly of section .text:

1000e000 <__isr_vector>:
1000e000:	20020000 	.word	0x20020000
1000e004:	1000e969 	.word	0x1000e969
1000e008:	1000e79d 	.word	0x1000e79d
1000e00c:	1000e9a7 	.word	0x1000e9a7
1000e010:	1000e9a9 	.word	0x1000e9a9
1000e014:	1000e9ab 	.word	0x1000e9ab
1000e018:	1000e9ad 	.word	0x1000e9ad
	...
1000e02c:	1000e9af 	.word	0x1000e9af
1000e030:	1000e9b1 	.word	0x1000e9b1
1000e034:	00000000 	.word	0x00000000
1000e038:	1000e9b3 	.word	0x1000e9b3
1000e03c:	1000e9b5 	.word	0x1000e9b5
1000e040:	1000e9b9 	.word	0x1000e9b9
1000e044:	1000e9bb 	.word	0x1000e9bb
1000e048:	1000e9bd 	.word	0x1000e9bd
1000e04c:	1000e9bf 	.word	0x1000e9bf
1000e050:	1000e9c1 	.word	0x1000e9c1
1000e054:	1000e9c3 	.word	0x1000e9c3
1000e058:	1000e9c5 	.word	0x1000e9c5
1000e05c:	1000e9c7 	.word	0x1000e9c7
1000e060:	1000e9c9 	.word	0x1000e9c9
1000e064:	1000e9cb 	.word	0x1000e9cb
1000e068:	1000e9cd 	.word	0x1000e9cd
1000e06c:	1000e9cf 	.word	0x1000e9cf
1000e070:	1000e9d1 	.word	0x1000e9d1
1000e074:	1000e9d3 	.word	0x1000e9d3
1000e078:	1000e9d5 	.word	0x1000e9d5
1000e07c:	1000e9d7 	.word	0x1000e9d7
1000e080:	1000e9d9 	.word	0x1000e9d9
1000e084:	1000e9db 	.word	0x1000e9db
1000e088:	1000e9dd 	.word	0x1000e9dd
1000e08c:	1000e9df 	.word	0x1000e9df
1000e090:	1000e9e1 	.word	0x1000e9e1
1000e094:	1000e9e3 	.word	0x1000e9e3
1000e098:	1000e9e5 	.word	0x1000e9e5
1000e09c:	1000e9e7 	.word	0x1000e9e7
1000e0a0:	1000e721 	.word	0x1000e721
1000e0a4:	1000e729 	.word	0x1000e729
1000e0a8:	1000e9ed 	.word	0x1000e9ed
1000e0ac:	1000e9ef 	.word	0x1000e9ef
1000e0b0:	1000e9f1 	.word	0x1000e9f1
1000e0b4:	1000e9f3 	.word	0x1000e9f3
1000e0b8:	1000e9f5 	.word	0x1000e9f5
1000e0bc:	1000e9f7 	.word	0x1000e9f7
1000e0c0:	1000e9f9 	.word	0x1000e9f9
1000e0c4:	1000e9fb 	.word	0x1000e9fb
1000e0c8:	1000e9fd 	.word	0x1000e9fd
1000e0cc:	1000e9ff 	.word	0x1000e9ff
1000e0d0:	1000ea01 	.word	0x1000ea01
1000e0d4:	1000ea03 	.word	0x1000ea03
1000e0d8:	1000ea05 	.word	0x1000ea05
1000e0dc:	1000ea07 	.word	0x1000ea07
1000e0e0:	1000ea09 	.word	0x1000ea09
1000e0e4:	1000ea0b 	.word	0x1000ea0b
1000e0e8:	1000ea0d 	.word	0x1000ea0d
1000e0ec:	1000ea0f 	.word	0x1000ea0f
1000e0f0:	1000ea11 	.word	0x1000ea11
1000e0f4:	1000ea13 	.word	0x1000ea13
1000e0f8:	1000ea15 	.word	0x1000ea15
1000e0fc:	1000ea17 	.word	0x1000ea17
1000e100:	1000ea19 	.word	0x1000ea19
1000e104:	1000ea1b 	.word	0x1000ea1b
1000e108:	1000ea1d 	.word	0x1000ea1d
1000e10c:	1000ea1f 	.word	0x1000ea1f
1000e110:	1000ea21 	.word	0x1000ea21
1000e114:	1000ea23 	.word	0x1000ea23
1000e118:	1000ea25 	.word	0x1000ea25
1000e11c:	1000ea27 	.word	0x1000ea27
1000e120:	1000ea29 	.word	0x1000ea29
1000e124:	1000ea2b 	.word	0x1000ea2b
1000e128:	1000ea2d 	.word	0x1000ea2d
1000e12c:	1000ea2f 	.word	0x1000ea2f
1000e130:	1000ea31 	.word	0x1000ea31
1000e134:	1000ea33 	.word	0x1000ea33
1000e138:	1000ea35 	.word	0x1000ea35
1000e13c:	1000ea37 	.word	0x1000ea37
1000e140:	1000ea39 	.word	0x1000ea39
1000e144:	1000ea3b 	.word	0x1000ea3b
1000e148:	1000ea3d 	.word	0x1000ea3d
1000e14c:	1000ea3f 	.word	0x1000ea3f
1000e150:	1000ea41 	.word	0x1000ea41
1000e154:	1000ea43 	.word	0x1000ea43
1000e158:	1000ea45 	.word	0x1000ea45
1000e15c:	1000ea47 	.word	0x1000ea47
1000e160:	1000ea49 	.word	0x1000ea49
1000e164:	1000ea4b 	.word	0x1000ea4b
1000e168:	1000ea4d 	.word	0x1000ea4d
1000e16c:	1000ea4f 	.word	0x1000ea4f
1000e170:	1000ea51 	.word	0x1000ea51
1000e174:	1000ea53 	.word	0x1000ea53
1000e178:	1000ea55 	.word	0x1000ea55
1000e17c:	1000ea57 	.word	0x1000ea57
1000e180:	1000ea59 	.word	0x1000ea59
1000e184:	1000ea5b 	.word	0x1000ea5b
1000e188:	1000ea5d 	.word	0x1000ea5d
1000e18c:	1000ea5f 	.word	0x1000ea5f
1000e190:	1000ea61 	.word	0x1000ea61
1000e194:	1000ea63 	.word	0x1000ea63
1000e198:	1000ea65 	.word	0x1000ea65
1000e19c:	1000ea67 	.word	0x1000ea67
1000e1a0:	1000ea69 	.word	0x1000ea69
1000e1a4:	1000ea6b 	.word	0x1000ea6b
1000e1a8:	1000ea6d 	.word	0x1000ea6d
1000e1ac:	1000ea6f 	.word	0x1000ea6f
1000e1b0:	1000ea71 	.word	0x1000ea71
1000e1b4:	1000ea73 	.word	0x1000ea73
1000e1b8:	1000ea75 	.word	0x1000ea75
1000e1bc:	1000ea77 	.word	0x1000ea77
1000e1c0:	1000ea79 	.word	0x1000ea79
1000e1c4:	1000ea7b 	.word	0x1000ea7b
1000e1c8:	1000ea7d 	.word	0x1000ea7d
1000e1cc:	1000ea7f 	.word	0x1000ea7f
1000e1d0:	1000ea81 	.word	0x1000ea81
1000e1d4:	1000ea83 	.word	0x1000ea83
1000e1d8:	1000ea85 	.word	0x1000ea85
1000e1dc:	1000ea87 	.word	0x1000ea87
	...

1000e200 <firmware_startup>:
1000e200:	4800      	ldr	r0, [pc, #0]	@ (1000e204 <firmware_startup+0x4>)
1000e202:	4780      	blx	r0
1000e204:	1000e969 	.word	0x1000e969

1000e208 <deregister_tm_clones>:
1000e208:	4803      	ldr	r0, [pc, #12]	@ (1000e218 <deregister_tm_clones+0x10>)
1000e20a:	4b04      	ldr	r3, [pc, #16]	@ (1000e21c <deregister_tm_clones+0x14>)
1000e20c:	4283      	cmp	r3, r0
1000e20e:	d002      	beq.n	1000e216 <deregister_tm_clones+0xe>
1000e210:	4b03      	ldr	r3, [pc, #12]	@ (1000e220 <deregister_tm_clones+0x18>)
1000e212:	b103      	cbz	r3, 1000e216 <deregister_tm_clones+0xe>
1000e214:	4718      	bx	r3
1000e216:	4770      	bx	lr
1000e218:	200006f8 	.word	0x200006f8
1000e21c:	200006f8 	.word	0x200006f8
1000e220:	00000000 	.word	0x00000000

1000e224 <register_tm_clones>:
1000e224:	4805      	ldr	r0, [pc, #20]	@ (1000e23c <register_tm_clones+0x18>)
1000e226:	4b06      	ldr	r3, [pc, #24]	@ (1000e240 <register_tm_clones+0x1c>)
1000e228:	1a1b      	subs	r3, r3, r0
1000e22a:	0fd9      	lsrs	r1, r3, #31
1000e22c:	eb01 01a3 	add.w	r1, r1, r3, asr #2
1000e230:	1049      	asrs	r1, r1, #1
1000e232:	d002      	beq.n	1000e23a <register_tm_clones+0x16>
1000e234:	4b03      	ldr	r3, [pc, #12]	@ (1000e244 <register_tm_clones+0x20>)
1000e236:	b103      	cbz	r3, 1000e23a <register_tm_clones+0x16>
1000e238:	4718      	bx	r3
1000e23a:	4770      	bx	lr
1000e23c:	200006f8 	.word	0x200006f8
1000e240:	200006f8 	.word	0x200006f8
1000e244:	00000000 	.word	0x00000000

1000e248 <__do_global_dtors_aux>:
1000e248:	b510      	push	{r4, lr}
1000e24a:	4c06      	ldr	r4, [pc, #24]	@ (1000e264 <__do_global_dtors_aux+0x1c>)
1000e24c:	7823      	ldrb	r3, [r4, #0]
1000e24e:	b943      	cbnz	r3, 1000e262 <__do_global_dtors_aux+0x1a>
1000e250:	f7ff ffda 	bl	1000e208 <deregister_tm_clones>
1000e254:	4b04      	ldr	r3, [pc, #16]	@ (1000e268 <__do_global_dtors_aux+0x20>)
1000e256:	b113      	cbz	r3, 1000e25e <__do_global_dtors_aux+0x16>
1000e258:	4804      	ldr	r0, [pc, #16]	@ (1000e26c <__do_global_dtors_aux+0x24>)
1000e25a:	f3af 8000 	nop.w
1000e25e:	2301      	movs	r3, #1
1000e260:	7023      	strb	r3, [r4, #0]
1000e262:	bd10      	pop	{r4, pc}
1000e264:	20000800 	.word	0x20000800
1000e268:	00000000 	.word	0x00000000
1000e26c:	10019698 	.word	0x10019698

1000e270 <frame_dummy>:
1000e270:	b508      	push	{r3, lr}
1000e272:	4b05      	ldr	r3, [pc, #20]	@ (1000e288 <frame_dummy+0x18>)
1000e274:	b11b      	cbz	r3, 1000e27e <frame_dummy+0xe>
1000e276:	4905      	ldr	r1, [pc, #20]	@ (1000e28c <frame_dummy+0x1c>)
1000e278:	4805      	ldr	r0, [pc, #20]	@ (1000e290 <frame_dummy+0x20>)
1000e27a:	f3af 8000 	nop.w
1000e27e:	e8bd 4008 	ldmia.w	sp!, {r3, lr}
1000e282:	f7ff bfcf 	b.w	1000e224 <register_tm_clones>
1000e286:	bf00      	nop
1000e288:	00000000 	.word	0x00000000
1000e28c:	20000804 	.word	0x20000804
1000e290:	10019698 	.word	0x10019698

1000e294 <board_link_init>:
 * @return int: negative if error, zero if successful
 *
 * Initialized the underlying i2c_simple interface
*/
int board_link_init(i2c_addr_t addr) {
    return i2c_simple_peripheral_init(addr);
1000e294:	f000 b9f6 	b.w	1000e684 <i2c_simple_peripheral_init>

1000e298 <component_id_to_i2c_addr>:
 * 
 * @return i2c_addr_t, i2c address
*/
i2c_addr_t component_id_to_i2c_addr(uint32_t component_id) {
    return (uint8_t) component_id & COMPONENT_ADDR_MASK;
}
1000e298:	b2c0      	uxtb	r0, r0
1000e29a:	4770      	bx	lr

1000e29c <send_packet_and_ack>:
 * @param message: uint8_t*, message to be sent
 * 
 * This function utilizes the simple_i2c_peripheral library to
 * send a packet to the AP and wait for the message to be received
*/
void send_packet_and_ack(uint8_t len, uint8_t* packet) {
1000e29c:	b510      	push	{r4, lr}
    I2C_REGS[TRANSMIT_LEN][0] = len;
1000e29e:	4c09      	ldr	r4, [pc, #36]	@ (1000e2c4 <send_packet_and_ack+0x28>)
1000e2a0:	6963      	ldr	r3, [r4, #20]
1000e2a2:	7018      	strb	r0, [r3, #0]
void send_packet_and_ack(uint8_t len, uint8_t* packet) {
1000e2a4:	4602      	mov	r2, r0
    memcpy((void*)I2C_REGS[TRANSMIT], (void*)packet, len);
1000e2a6:	68e0      	ldr	r0, [r4, #12]
1000e2a8:	f006 f802 	bl	100142b0 <memcpy>
    I2C_REGS[TRANSMIT_DONE][0] = false;
1000e2ac:	6923      	ldr	r3, [r4, #16]
1000e2ae:	2200      	movs	r2, #0
1000e2b0:	701a      	strb	r2, [r3, #0]

    // Wait for ack from AP
    while(!I2C_REGS[TRANSMIT_DONE][0]);
1000e2b2:	6922      	ldr	r2, [r4, #16]
1000e2b4:	7813      	ldrb	r3, [r2, #0]
1000e2b6:	2b00      	cmp	r3, #0
1000e2b8:	d0fc      	beq.n	1000e2b4 <send_packet_and_ack+0x18>
    I2C_REGS[RECEIVE_DONE][0] = false;
1000e2ba:	6863      	ldr	r3, [r4, #4]
1000e2bc:	2200      	movs	r2, #0
1000e2be:	701a      	strb	r2, [r3, #0]
}
1000e2c0:	bd10      	pop	{r4, pc}
1000e2c2:	bf00      	nop
1000e2c4:	20000018 	.word	0x20000018

1000e2c8 <wait_and_receive_packet>:
 * @param packet: uint8_t*, message received
 * 
 * This function waits for a new message to be available from the AP,
 * once the message is available it is returned in the buffer pointer to by packet 
*/
uint8_t wait_and_receive_packet(uint8_t* packet) {
1000e2c8:	b510      	push	{r4, lr}
    while(!I2C_REGS[RECEIVE_DONE][0]);
1000e2ca:	4907      	ldr	r1, [pc, #28]	@ (1000e2e8 <wait_and_receive_packet+0x20>)
1000e2cc:	684a      	ldr	r2, [r1, #4]
1000e2ce:	7813      	ldrb	r3, [r2, #0]
1000e2d0:	2b00      	cmp	r3, #0
1000e2d2:	d0fc      	beq.n	1000e2ce <wait_and_receive_packet+0x6>

    uint8_t len = I2C_REGS[RECEIVE_LEN][0];
1000e2d4:	688b      	ldr	r3, [r1, #8]
    memcpy(packet, (void*)I2C_REGS[RECEIVE], len);
1000e2d6:	6809      	ldr	r1, [r1, #0]
    uint8_t len = I2C_REGS[RECEIVE_LEN][0];
1000e2d8:	781c      	ldrb	r4, [r3, #0]
1000e2da:	b2e4      	uxtb	r4, r4
    memcpy(packet, (void*)I2C_REGS[RECEIVE], len);
1000e2dc:	4622      	mov	r2, r4
1000e2de:	f005 ffe7 	bl	100142b0 <memcpy>

    return len;
}
1000e2e2:	4620      	mov	r0, r4
1000e2e4:	bd10      	pop	{r4, pc}
1000e2e6:	bf00      	nop
1000e2e8:	20000018 	.word	0x20000018

1000e2ec <boot>:

/******************************* FUNCTION DEFINITIONS *********************************/

// Example boot sequence
// Your design does not need to change this
void boot() {
1000e2ec:	b508      	push	{r3, lr}
    #ifdef POST_BOOT
        POST_BOOT
    #else
    // Anything after this macro can be changed by your design
    // but will not be run on provisioned systems
    LED_Off(LED1);
1000e2ee:	2000      	movs	r0, #0
1000e2f0:	f000 fafe 	bl	1000e8f0 <LED_Off>
    LED_Off(LED2);
1000e2f4:	2001      	movs	r0, #1
1000e2f6:	f000 fafb 	bl	1000e8f0 <LED_Off>
    LED_Off(LED3);
1000e2fa:	2002      	movs	r0, #2
1000e2fc:	f000 faf8 	bl	1000e8f0 <LED_Off>
    // LED loop to show that boot occurred
    while (1) {
        LED_On(LED1);
        MXC_Delay(500000);
1000e300:	4c12      	ldr	r4, [pc, #72]	@ (1000e34c <boot+0x60>)
        LED_On(LED1);
1000e302:	2000      	movs	r0, #0
1000e304:	f000 fad4 	bl	1000e8b0 <LED_On>
        MXC_Delay(500000);
1000e308:	4620      	mov	r0, r4
1000e30a:	f000 fcef 	bl	1000ecec <MXC_Delay>
        LED_On(LED2);
1000e30e:	2001      	movs	r0, #1
1000e310:	f000 face 	bl	1000e8b0 <LED_On>
        MXC_Delay(500000);
1000e314:	4620      	mov	r0, r4
1000e316:	f000 fce9 	bl	1000ecec <MXC_Delay>
        LED_On(LED3);
1000e31a:	2002      	movs	r0, #2
1000e31c:	f000 fac8 	bl	1000e8b0 <LED_On>
        MXC_Delay(500000);
1000e320:	4620      	mov	r0, r4
1000e322:	f000 fce3 	bl	1000ecec <MXC_Delay>
        LED_Off(LED1);
1000e326:	2000      	movs	r0, #0
1000e328:	f000 fae2 	bl	1000e8f0 <LED_Off>
        MXC_Delay(500000);
1000e32c:	4620      	mov	r0, r4
1000e32e:	f000 fcdd 	bl	1000ecec <MXC_Delay>
        LED_Off(LED2);
1000e332:	2001      	movs	r0, #1
1000e334:	f000 fadc 	bl	1000e8f0 <LED_Off>
        MXC_Delay(500000);
1000e338:	4620      	mov	r0, r4
1000e33a:	f000 fcd7 	bl	1000ecec <MXC_Delay>
        LED_Off(LED3);
1000e33e:	2002      	movs	r0, #2
1000e340:	f000 fad6 	bl	1000e8f0 <LED_Off>
        MXC_Delay(500000);
1000e344:	4620      	mov	r0, r4
1000e346:	f000 fcd1 	bl	1000ecec <MXC_Delay>
    while (1) {
1000e34a:	e7da      	b.n	1000e302 <boot+0x16>
1000e34c:	0007a120 	.word	0x0007a120

1000e350 <process_boot>:

void process_boot() {
    // The AP requested a boot. Set `component_boot` for the main loop and
    // respond with the boot message
    uint8_t len = strlen(COMPONENT_BOOT_MSG) + 1;
    memcpy((void*)transmit_buffer, COMPONENT_BOOT_MSG, len);
1000e350:	4b09      	ldr	r3, [pc, #36]	@ (1000e378 <process_boot+0x28>)
1000e352:	e893 0007 	ldmia.w	r3, {r0, r1, r2}
void process_boot() {
1000e356:	b510      	push	{r4, lr}
    memcpy((void*)transmit_buffer, COMPONENT_BOOT_MSG, len);
1000e358:	4c08      	ldr	r4, [pc, #32]	@ (1000e37c <process_boot+0x2c>)
1000e35a:	4623      	mov	r3, r4
1000e35c:	c303      	stmia	r3!, {r0, r1}
1000e35e:	f823 2b02 	strh.w	r2, [r3], #2
1000e362:	ea4f 4c12 	mov.w	ip, r2, lsr #16
    send_packet_and_ack(len, transmit_buffer);
1000e366:	4621      	mov	r1, r4
1000e368:	200b      	movs	r0, #11
    memcpy((void*)transmit_buffer, COMPONENT_BOOT_MSG, len);
1000e36a:	f883 c000 	strb.w	ip, [r3]
    send_packet_and_ack(len, transmit_buffer);
1000e36e:	f7ff ff95 	bl	1000e29c <send_packet_and_ack>
    // Call the boot function
    boot();
1000e372:	f7ff ffbb 	bl	1000e2ec <boot>
1000e376:	bf00      	nop
1000e378:	10018eac 	.word	0x10018eac
1000e37c:	2000081c 	.word	0x2000081c

1000e380 <component_process_cmd>:
void component_process_cmd() {
1000e380:	b510      	push	{r4, lr}
    switch (command->opcode) {
1000e382:	4b15      	ldr	r3, [pc, #84]	@ (1000e3d8 <component_process_cmd+0x58>)
1000e384:	7819      	ldrb	r1, [r3, #0]
1000e386:	1e4b      	subs	r3, r1, #1
void component_process_cmd() {
1000e388:	b082      	sub	sp, #8
    switch (command->opcode) {
1000e38a:	2b03      	cmp	r3, #3
1000e38c:	d81e      	bhi.n	1000e3cc <component_process_cmd+0x4c>
1000e38e:	e8df f003 	tbb	[pc, r3]
1000e392:	0202      	.short	0x0202
1000e394:	0b1b      	.short	0x0b1b
}

void process_validate() {
    // The AP requested a validation. Respond with the Component ID
    validate_message* packet = (validate_message*) transmit_buffer;
    packet->component_id = COMPONENT_ID;
1000e396:	4911      	ldr	r1, [pc, #68]	@ (1000e3dc <component_process_cmd+0x5c>)
1000e398:	4b11      	ldr	r3, [pc, #68]	@ (1000e3e0 <component_process_cmd+0x60>)
1000e39a:	600b      	str	r3, [r1, #0]
    send_packet_and_ack(sizeof(validate_message), transmit_buffer);
1000e39c:	2004      	movs	r0, #4
}
1000e39e:	b002      	add	sp, #8
1000e3a0:	e8bd 4010 	ldmia.w	sp!, {r4, lr}

void process_attest() {
    // The AP requested attestation. Respond with the attestation data
    uint8_t len = sprintf((char*)transmit_buffer, "LOC>%s\nDATE>%s\nCUST>%s\n",
                ATTESTATION_LOC, ATTESTATION_DATE, ATTESTATION_CUSTOMER) + 1;
    send_packet_and_ack(len, transmit_buffer);
1000e3a4:	f7ff bf7a 	b.w	1000e29c <send_packet_and_ack>
    uint8_t len = sprintf((char*)transmit_buffer, "LOC>%s\nDATE>%s\nCUST>%s\n",
1000e3a8:	4c0e      	ldr	r4, [pc, #56]	@ (1000e3e4 <component_process_cmd+0x64>)
1000e3aa:	490f      	ldr	r1, [pc, #60]	@ (1000e3e8 <component_process_cmd+0x68>)
1000e3ac:	4b0f      	ldr	r3, [pc, #60]	@ (1000e3ec <component_process_cmd+0x6c>)
1000e3ae:	4a10      	ldr	r2, [pc, #64]	@ (1000e3f0 <component_process_cmd+0x70>)
1000e3b0:	9400      	str	r4, [sp, #0]
1000e3b2:	480a      	ldr	r0, [pc, #40]	@ (1000e3dc <component_process_cmd+0x5c>)
1000e3b4:	f005 fa50 	bl	10013858 <sprintf>
    send_packet_and_ack(len, transmit_buffer);
1000e3b8:	4908      	ldr	r1, [pc, #32]	@ (1000e3dc <component_process_cmd+0x5c>)
    uint8_t len = sprintf((char*)transmit_buffer, "LOC>%s\nDATE>%s\nCUST>%s\n",
1000e3ba:	3001      	adds	r0, #1
    send_packet_and_ack(len, transmit_buffer);
1000e3bc:	b2c0      	uxtb	r0, r0
}
1000e3be:	b002      	add	sp, #8
1000e3c0:	e8bd 4010 	ldmia.w	sp!, {r4, lr}
    send_packet_and_ack(len, transmit_buffer);
1000e3c4:	f7ff bf6a 	b.w	1000e29c <send_packet_and_ack>
        process_boot();
1000e3c8:	f7ff ffc2 	bl	1000e350 <process_boot>
        printf("Error: Unrecognized command received %d\n", command->opcode);
1000e3cc:	4809      	ldr	r0, [pc, #36]	@ (1000e3f4 <component_process_cmd+0x74>)
}
1000e3ce:	b002      	add	sp, #8
1000e3d0:	e8bd 4010 	ldmia.w	sp!, {r4, lr}
        printf("Error: Unrecognized command received %d\n", command->opcode);
1000e3d4:	f002 b840 	b.w	10010458 <printf>
1000e3d8:	2000085c 	.word	0x2000085c
1000e3dc:	2000081c 	.word	0x2000081c
1000e3e0:	11111112 	.word	0x11111112
1000e3e4:	10018fa0 	.word	0x10018fa0
1000e3e8:	10018f88 	.word	0x10018f88
1000e3ec:	10018eb8 	.word	0x10018eb8
1000e3f0:	10018f20 	.word	0x10018f20
1000e3f4:	10019008 	.word	0x10019008

1000e3f8 <main>:
}

/*********************************** MAIN *************************************/

int main(void) {
1000e3f8:	b510      	push	{r4, lr}
  \details Enables IRQ interrupts by clearing special-purpose register PRIMASK.
           Can only be executed in Privileged modes.
 */
__STATIC_FORCEINLINE void __enable_irq(void)
{
  __ASM volatile ("cpsie i" : : : "memory");
1000e3fa:	b662      	cpsie	i
    //comp started
    // Enable Global Interrupts
    __enable_irq();
    
    // Initialize Component
    i2c_addr_t addr = component_id_to_i2c_addr(COMPONENT_ID);
1000e3fc:	4807      	ldr	r0, [pc, #28]	@ (1000e41c <main+0x24>)
    board_link_init(addr);
    
    LED_On(LED2);

    while (1) {
        wait_and_receive_packet(receive_buffer);
1000e3fe:	4c08      	ldr	r4, [pc, #32]	@ (1000e420 <main+0x28>)
    i2c_addr_t addr = component_id_to_i2c_addr(COMPONENT_ID);
1000e400:	f7ff ff4a 	bl	1000e298 <component_id_to_i2c_addr>
    board_link_init(addr);
1000e404:	f7ff ff46 	bl	1000e294 <board_link_init>
    LED_On(LED2);
1000e408:	2001      	movs	r0, #1
1000e40a:	f000 fa51 	bl	1000e8b0 <LED_On>
        wait_and_receive_packet(receive_buffer);
1000e40e:	4620      	mov	r0, r4
1000e410:	f7ff ff5a 	bl	1000e2c8 <wait_and_receive_packet>

        component_process_cmd();
1000e414:	f7ff ffb4 	bl	1000e380 <component_process_cmd>
    while (1) {
1000e418:	e7f9      	b.n	1000e40e <main+0x16>
1000e41a:	bf00      	nop
1000e41c:	11111112 	.word	0x11111112
1000e420:	2000085c 	.word	0x2000085c

1000e424 <i2c_simple_isr>:
    static int READ_INDEX = 0;
    static int WRITE_INDEX = 0;
    static ECTF_I2C_REGS ACTIVE_REG = RECEIVE;

    // Read interrupt flags
    uint32_t Flags = I2C_INTERFACE->intfl0;
1000e424:	4890      	ldr	r0, [pc, #576]	@ (1000e668 <i2c_simple_isr+0x244>)
void i2c_simple_isr (void) {
1000e426:	b5f8      	push	{r3, r4, r5, r6, r7, lr}
    uint32_t Flags = I2C_INTERFACE->intfl0;
1000e428:	6884      	ldr	r4, [r0, #8]
    
    // Transaction over interrupt
    if (Flags & MXC_F_I2C_INTFL0_STOP) {
1000e42a:	0663      	lsls	r3, r4, #25
1000e42c:	d549      	bpl.n	1000e4c2 <i2c_simple_isr+0x9e>
        
        // Ready any remaining data
        if (WRITE_START == true) {
1000e42e:	4e8f      	ldr	r6, [pc, #572]	@ (1000e66c <i2c_simple_isr+0x248>)
1000e430:	7833      	ldrb	r3, [r6, #0]
1000e432:	2b00      	cmp	r3, #0
1000e434:	f040 80cb 	bne.w	1000e5ce <i2c_simple_isr+0x1aa>
            MXC_I2C_ReadRXFIFO(I2C_INTERFACE, (volatile unsigned char*) &ACTIVE_REG, 1);
            WRITE_START = false;
        }
        if (ACTIVE_REG <= MAX_REG) {
1000e438:	4d8d      	ldr	r5, [pc, #564]	@ (1000e670 <i2c_simple_isr+0x24c>)
            int available = MXC_I2C_GetRXFIFOAvailable(I2C_INTERFACE);
1000e43a:	488b      	ldr	r0, [pc, #556]	@ (1000e668 <i2c_simple_isr+0x244>)
        if (ACTIVE_REG <= MAX_REG) {
1000e43c:	782b      	ldrb	r3, [r5, #0]
1000e43e:	2b05      	cmp	r3, #5
1000e440:	d81b      	bhi.n	1000e47a <i2c_simple_isr+0x56>
            int available = MXC_I2C_GetRXFIFOAvailable(I2C_INTERFACE);
1000e442:	f000 ffcf 	bl	1000f3e4 <MXC_I2C_GetRXFIFOAvailable>
            if (available < (I2C_REGS_LEN[ACTIVE_REG]-WRITE_INDEX)) {
1000e446:	7829      	ldrb	r1, [r5, #0]
1000e448:	4b8a      	ldr	r3, [pc, #552]	@ (1000e674 <i2c_simple_isr+0x250>)
1000e44a:	4d8b      	ldr	r5, [pc, #556]	@ (1000e678 <i2c_simple_isr+0x254>)
1000e44c:	f853 2021 	ldr.w	r2, [r3, r1, lsl #2]
1000e450:	682b      	ldr	r3, [r5, #0]
1000e452:	1ad2      	subs	r2, r2, r3
1000e454:	4282      	cmp	r2, r0
1000e456:	f340 80da 	ble.w	1000e60e <i2c_simple_isr+0x1ea>
                WRITE_INDEX += MXC_I2C_ReadRXFIFO(I2C_INTERFACE,
                    &I2C_REGS[ACTIVE_REG][WRITE_INDEX],
1000e45a:	4a88      	ldr	r2, [pc, #544]	@ (1000e67c <i2c_simple_isr+0x258>)
                    MXC_I2C_GetRXFIFOAvailable(I2C_INTERFACE));
1000e45c:	4882      	ldr	r0, [pc, #520]	@ (1000e668 <i2c_simple_isr+0x244>)
                    &I2C_REGS[ACTIVE_REG][WRITE_INDEX],
1000e45e:	f852 7021 	ldr.w	r7, [r2, r1, lsl #2]
1000e462:	441f      	add	r7, r3
                    MXC_I2C_GetRXFIFOAvailable(I2C_INTERFACE));
1000e464:	f000 ffbe 	bl	1000f3e4 <MXC_I2C_GetRXFIFOAvailable>
                WRITE_INDEX += MXC_I2C_ReadRXFIFO(I2C_INTERFACE,
1000e468:	4639      	mov	r1, r7
                    MXC_I2C_GetRXFIFOAvailable(I2C_INTERFACE));
1000e46a:	4602      	mov	r2, r0
            }
            else {
                WRITE_INDEX += MXC_I2C_ReadRXFIFO(I2C_INTERFACE,
1000e46c:	487e      	ldr	r0, [pc, #504]	@ (1000e668 <i2c_simple_isr+0x244>)
1000e46e:	f000 ffb7 	bl	1000f3e0 <MXC_I2C_ReadRXFIFO>
1000e472:	682b      	ldr	r3, [r5, #0]
1000e474:	4403      	add	r3, r0
1000e476:	602b      	str	r3, [r5, #0]
1000e478:	e002      	b.n	1000e480 <i2c_simple_isr+0x5c>
                    &I2C_REGS[ACTIVE_REG][WRITE_INDEX],
                    I2C_REGS_LEN[ACTIVE_REG]-WRITE_INDEX);
            }
        } else {
            MXC_I2C_ClearRXFIFO(I2C_INTERFACE);
1000e47a:	f000 ffb9 	bl	1000f3f0 <MXC_I2C_ClearRXFIFO>
1000e47e:	4d7e      	ldr	r5, [pc, #504]	@ (1000e678 <i2c_simple_isr+0x254>)
        }

        // Disable bulk send/receive interrupts
        MXC_I2C_DisableInt(I2C_INTERFACE, MXC_F_I2C_INTEN0_RX_THD, 0);
1000e480:	4879      	ldr	r0, [pc, #484]	@ (1000e668 <i2c_simple_isr+0x244>)
1000e482:	2200      	movs	r2, #0
1000e484:	2110      	movs	r1, #16
1000e486:	f000 ffbb 	bl	1000f400 <MXC_I2C_DisableInt>
        MXC_I2C_DisableInt(I2C_INTERFACE, MXC_F_I2C_INTEN0_TX_THD, 0);
1000e48a:	4877      	ldr	r0, [pc, #476]	@ (1000e668 <i2c_simple_isr+0x244>)
1000e48c:	2200      	movs	r2, #0
1000e48e:	2120      	movs	r1, #32
1000e490:	f000 ffb6 	bl	1000f400 <MXC_I2C_DisableInt>

        // Clear FIFOs if full
        if (MXC_I2C_GetRXFIFOAvailable(I2C_INTERFACE) != 0) {
1000e494:	4874      	ldr	r0, [pc, #464]	@ (1000e668 <i2c_simple_isr+0x244>)
1000e496:	f000 ffa5 	bl	1000f3e4 <MXC_I2C_GetRXFIFOAvailable>
1000e49a:	2800      	cmp	r0, #0
1000e49c:	f040 80df 	bne.w	1000e65e <i2c_simple_isr+0x23a>
            MXC_I2C_ClearRXFIFO(I2C_INTERFACE);
        }
        if (MXC_I2C_GetTXFIFOAvailable(I2C_INTERFACE) != 8) {
1000e4a0:	4871      	ldr	r0, [pc, #452]	@ (1000e668 <i2c_simple_isr+0x244>)
1000e4a2:	f000 ffa3 	bl	1000f3ec <MXC_I2C_GetTXFIFOAvailable>
1000e4a6:	2808      	cmp	r0, #8
1000e4a8:	d002      	beq.n	1000e4b0 <i2c_simple_isr+0x8c>
            MXC_I2C_ClearTXFIFO(I2C_INTERFACE);
1000e4aa:	486f      	ldr	r0, [pc, #444]	@ (1000e668 <i2c_simple_isr+0x244>)
1000e4ac:	f000 ffa2 	bl	1000f3f4 <MXC_I2C_ClearTXFIFO>
        }

        // Reset state
        READ_INDEX = 0;
1000e4b0:	4b73      	ldr	r3, [pc, #460]	@ (1000e680 <i2c_simple_isr+0x25c>)
        WRITE_INDEX = 0;
        WRITE_START = false;

        // Clear ISR flag
        MXC_I2C_ClearFlags(I2C_INTERFACE, MXC_F_I2C_INTFL0_STOP, 0);
1000e4b2:	486d      	ldr	r0, [pc, #436]	@ (1000e668 <i2c_simple_isr+0x244>)
        READ_INDEX = 0;
1000e4b4:	2200      	movs	r2, #0
        MXC_I2C_ClearFlags(I2C_INTERFACE, MXC_F_I2C_INTFL0_STOP, 0);
1000e4b6:	2140      	movs	r1, #64	@ 0x40
        WRITE_INDEX = 0;
1000e4b8:	602a      	str	r2, [r5, #0]
        READ_INDEX = 0;
1000e4ba:	601a      	str	r2, [r3, #0]
        WRITE_START = false;
1000e4bc:	7032      	strb	r2, [r6, #0]
        MXC_I2C_ClearFlags(I2C_INTERFACE, MXC_F_I2C_INTFL0_STOP, 0);
1000e4be:	f000 ff9b 	bl	1000f3f8 <MXC_I2C_ClearFlags>
    }

    // TX Fifo Threshold Met on Read
    if (Flags & MXC_F_I2C_INTEN0_TX_THD && (I2C_INTERFACE->inten0 & MXC_F_I2C_INTEN0_TX_THD)) {
1000e4c2:	06a7      	lsls	r7, r4, #26
1000e4c4:	d503      	bpl.n	1000e4ce <i2c_simple_isr+0xaa>
1000e4c6:	4868      	ldr	r0, [pc, #416]	@ (1000e668 <i2c_simple_isr+0x244>)
1000e4c8:	68c3      	ldr	r3, [r0, #12]
1000e4ca:	069e      	lsls	r6, r3, #26
1000e4cc:	d433      	bmi.n	1000e536 <i2c_simple_isr+0x112>
        // Clear ISR flag
        MXC_I2C_ClearFlags(I2C_INTERFACE, MXC_F_I2C_INTFL0_TX_THD, 0);
    }

    // Read from Peripheral from Controller Match
    if (Flags & MXC_F_I2C_INTFL0_WR_ADDR_MATCH) {
1000e4ce:	0220      	lsls	r0, r4, #8
1000e4d0:	d43f      	bmi.n	1000e552 <i2c_simple_isr+0x12e>
            }
        }
    }

    // Write to Peripheral from Controller Match
    if (Flags & MXC_F_I2C_INTFL0_RD_ADDR_MATCH) {
1000e4d2:	0262      	lsls	r2, r4, #9
1000e4d4:	d46c      	bmi.n	1000e5b0 <i2c_simple_isr+0x18c>
        // Clear flag
        MXC_I2C_ClearFlags(I2C_INTERFACE, MXC_F_I2C_INTFL0_RD_ADDR_MATCH, 0);
    }

    // RX Fifo Threshold Met on Write
    if (Flags & MXC_F_I2C_INTEN0_RX_THD) {
1000e4d6:	06e3      	lsls	r3, r4, #27
1000e4d8:	d511      	bpl.n	1000e4fe <i2c_simple_isr+0xda>
        // We always write a register before writing data so select register
        if (WRITE_START == true) {
1000e4da:	4c64      	ldr	r4, [pc, #400]	@ (1000e66c <i2c_simple_isr+0x248>)
1000e4dc:	7823      	ldrb	r3, [r4, #0]
1000e4de:	2b00      	cmp	r3, #0
1000e4e0:	d17c      	bne.n	1000e5dc <i2c_simple_isr+0x1b8>
            MXC_I2C_ReadRXFIFO(I2C_INTERFACE, (volatile unsigned char*) &ACTIVE_REG, 1);
            WRITE_START = false;
        }
        // Read remaining data
        if (ACTIVE_REG <= MAX_REG) {
1000e4e2:	4c63      	ldr	r4, [pc, #396]	@ (1000e670 <i2c_simple_isr+0x24c>)
            int available = MXC_I2C_GetRXFIFOAvailable(I2C_INTERFACE);
1000e4e4:	4860      	ldr	r0, [pc, #384]	@ (1000e668 <i2c_simple_isr+0x244>)
        if (ACTIVE_REG <= MAX_REG) {
1000e4e6:	7823      	ldrb	r3, [r4, #0]
1000e4e8:	2b05      	cmp	r3, #5
1000e4ea:	d909      	bls.n	1000e500 <i2c_simple_isr+0xdc>
                    &I2C_REGS[ACTIVE_REG][WRITE_INDEX],
                    I2C_REGS_LEN[ACTIVE_REG]-WRITE_INDEX);
            }
        // Clear out FIFO if invalid register specified
        } else {
            MXC_I2C_ClearRXFIFO(I2C_INTERFACE);
1000e4ec:	f000 ff80 	bl	1000f3f0 <MXC_I2C_ClearRXFIFO>
        }

        // Clear ISR flag
        MXC_I2C_ClearFlags(I2C_INTERFACE, MXC_F_I2C_INTFL0_RX_THD, 0);
    }
}
1000e4f0:	e8bd 40f8 	ldmia.w	sp!, {r3, r4, r5, r6, r7, lr}
        MXC_I2C_ClearFlags(I2C_INTERFACE, MXC_F_I2C_INTFL0_RX_THD, 0);
1000e4f4:	485c      	ldr	r0, [pc, #368]	@ (1000e668 <i2c_simple_isr+0x244>)
1000e4f6:	2200      	movs	r2, #0
1000e4f8:	2110      	movs	r1, #16
1000e4fa:	f000 bf7d 	b.w	1000f3f8 <MXC_I2C_ClearFlags>
}
1000e4fe:	bdf8      	pop	{r3, r4, r5, r6, r7, pc}
            int available = MXC_I2C_GetRXFIFOAvailable(I2C_INTERFACE);
1000e500:	f000 ff70 	bl	1000f3e4 <MXC_I2C_GetRXFIFOAvailable>
            if (available < (I2C_REGS_LEN[ACTIVE_REG]-WRITE_INDEX)) {
1000e504:	7821      	ldrb	r1, [r4, #0]
1000e506:	4a5b      	ldr	r2, [pc, #364]	@ (1000e674 <i2c_simple_isr+0x250>)
1000e508:	4c5b      	ldr	r4, [pc, #364]	@ (1000e678 <i2c_simple_isr+0x254>)
1000e50a:	f852 2021 	ldr.w	r2, [r2, r1, lsl #2]
1000e50e:	6823      	ldr	r3, [r4, #0]
1000e510:	1ad2      	subs	r2, r2, r3
1000e512:	4282      	cmp	r2, r0
1000e514:	dd70      	ble.n	1000e5f8 <i2c_simple_isr+0x1d4>
                    &I2C_REGS[ACTIVE_REG][WRITE_INDEX],
1000e516:	4a59      	ldr	r2, [pc, #356]	@ (1000e67c <i2c_simple_isr+0x258>)
                    MXC_I2C_GetRXFIFOAvailable(I2C_INTERFACE));
1000e518:	4853      	ldr	r0, [pc, #332]	@ (1000e668 <i2c_simple_isr+0x244>)
                    &I2C_REGS[ACTIVE_REG][WRITE_INDEX],
1000e51a:	f852 5021 	ldr.w	r5, [r2, r1, lsl #2]
1000e51e:	441d      	add	r5, r3
                    MXC_I2C_GetRXFIFOAvailable(I2C_INTERFACE));
1000e520:	f000 ff60 	bl	1000f3e4 <MXC_I2C_GetRXFIFOAvailable>
                WRITE_INDEX += MXC_I2C_ReadRXFIFO(I2C_INTERFACE,
1000e524:	4629      	mov	r1, r5
                    MXC_I2C_GetRXFIFOAvailable(I2C_INTERFACE));
1000e526:	4602      	mov	r2, r0
                WRITE_INDEX += MXC_I2C_ReadRXFIFO(I2C_INTERFACE,
1000e528:	484f      	ldr	r0, [pc, #316]	@ (1000e668 <i2c_simple_isr+0x244>)
1000e52a:	f000 ff59 	bl	1000f3e0 <MXC_I2C_ReadRXFIFO>
1000e52e:	6823      	ldr	r3, [r4, #0]
1000e530:	4403      	add	r3, r0
1000e532:	6023      	str	r3, [r4, #0]
1000e534:	e7dc      	b.n	1000e4f0 <i2c_simple_isr+0xcc>
        if (Flags & MXC_F_I2C_INTFL0_TX_LOCKOUT) {
1000e536:	0425      	lsls	r5, r4, #16
1000e538:	f100 808b 	bmi.w	1000e652 <i2c_simple_isr+0x22e>
        if (ACTIVE_REG <= MAX_REG) {
1000e53c:	4d4c      	ldr	r5, [pc, #304]	@ (1000e670 <i2c_simple_isr+0x24c>)
1000e53e:	782b      	ldrb	r3, [r5, #0]
1000e540:	2b05      	cmp	r3, #5
1000e542:	d969      	bls.n	1000e618 <i2c_simple_isr+0x1f4>
        MXC_I2C_ClearFlags(I2C_INTERFACE, MXC_F_I2C_INTFL0_TX_THD, 0);
1000e544:	4848      	ldr	r0, [pc, #288]	@ (1000e668 <i2c_simple_isr+0x244>)
1000e546:	2200      	movs	r2, #0
1000e548:	2120      	movs	r1, #32
1000e54a:	f000 ff55 	bl	1000f3f8 <MXC_I2C_ClearFlags>
    if (Flags & MXC_F_I2C_INTFL0_WR_ADDR_MATCH) {
1000e54e:	0220      	lsls	r0, r4, #8
1000e550:	d5bf      	bpl.n	1000e4d2 <i2c_simple_isr+0xae>
        MXC_I2C_ClearFlags(I2C_INTERFACE, MXC_F_I2C_INTFL0_WR_ADDR_MATCH, 0);
1000e552:	f44f 0100 	mov.w	r1, #8388608	@ 0x800000
1000e556:	4844      	ldr	r0, [pc, #272]	@ (1000e668 <i2c_simple_isr+0x244>)
1000e558:	2200      	movs	r2, #0
1000e55a:	f000 ff4d 	bl	1000f3f8 <MXC_I2C_ClearFlags>
        if (Flags & MXC_F_I2C_INTFL0_TX_LOCKOUT) {
1000e55e:	0421      	lsls	r1, r4, #16
1000e560:	d5b7      	bpl.n	1000e4d2 <i2c_simple_isr+0xae>
            MXC_I2C_ReadRXFIFO(I2C_INTERFACE, (volatile unsigned char*) &ACTIVE_REG, 1);
1000e562:	4d43      	ldr	r5, [pc, #268]	@ (1000e670 <i2c_simple_isr+0x24c>)
            MXC_I2C_ClearFlags(I2C_INTERFACE, MXC_F_I2C_INTFL0_TX_LOCKOUT, 0);
1000e564:	4840      	ldr	r0, [pc, #256]	@ (1000e668 <i2c_simple_isr+0x244>)
1000e566:	2200      	movs	r2, #0
1000e568:	f44f 4100 	mov.w	r1, #32768	@ 0x8000
1000e56c:	f000 ff44 	bl	1000f3f8 <MXC_I2C_ClearFlags>
            MXC_I2C_ReadRXFIFO(I2C_INTERFACE, (volatile unsigned char*) &ACTIVE_REG, 1);
1000e570:	483d      	ldr	r0, [pc, #244]	@ (1000e668 <i2c_simple_isr+0x244>)
1000e572:	2201      	movs	r2, #1
1000e574:	4629      	mov	r1, r5
1000e576:	f000 ff33 	bl	1000f3e0 <MXC_I2C_ReadRXFIFO>
            if (ACTIVE_REG <= MAX_REG) {
1000e57a:	782b      	ldrb	r3, [r5, #0]
1000e57c:	2b05      	cmp	r3, #5
1000e57e:	d8a8      	bhi.n	1000e4d2 <i2c_simple_isr+0xae>
                READ_INDEX += MXC_I2C_WriteTXFIFO(I2C_INTERFACE, (volatile unsigned char*)I2C_REGS[ACTIVE_REG], I2C_REGS_LEN[ACTIVE_REG]);
1000e580:	4e3c      	ldr	r6, [pc, #240]	@ (1000e674 <i2c_simple_isr+0x250>)
1000e582:	4a3e      	ldr	r2, [pc, #248]	@ (1000e67c <i2c_simple_isr+0x258>)
1000e584:	4838      	ldr	r0, [pc, #224]	@ (1000e668 <i2c_simple_isr+0x244>)
1000e586:	f852 1023 	ldr.w	r1, [r2, r3, lsl #2]
1000e58a:	f856 2023 	ldr.w	r2, [r6, r3, lsl #2]
1000e58e:	f000 ff2b 	bl	1000f3e8 <MXC_I2C_WriteTXFIFO>
1000e592:	4b3b      	ldr	r3, [pc, #236]	@ (1000e680 <i2c_simple_isr+0x25c>)
                if (READ_INDEX < I2C_REGS_LEN[ACTIVE_REG]) {
1000e594:	782a      	ldrb	r2, [r5, #0]
                READ_INDEX += MXC_I2C_WriteTXFIFO(I2C_INTERFACE, (volatile unsigned char*)I2C_REGS[ACTIVE_REG], I2C_REGS_LEN[ACTIVE_REG]);
1000e596:	6819      	ldr	r1, [r3, #0]
                if (READ_INDEX < I2C_REGS_LEN[ACTIVE_REG]) {
1000e598:	f856 2022 	ldr.w	r2, [r6, r2, lsl #2]
                READ_INDEX += MXC_I2C_WriteTXFIFO(I2C_INTERFACE, (volatile unsigned char*)I2C_REGS[ACTIVE_REG], I2C_REGS_LEN[ACTIVE_REG]);
1000e59c:	4408      	add	r0, r1
                if (READ_INDEX < I2C_REGS_LEN[ACTIVE_REG]) {
1000e59e:	4290      	cmp	r0, r2
                READ_INDEX += MXC_I2C_WriteTXFIFO(I2C_INTERFACE, (volatile unsigned char*)I2C_REGS[ACTIVE_REG], I2C_REGS_LEN[ACTIVE_REG]);
1000e5a0:	6018      	str	r0, [r3, #0]
                if (READ_INDEX < I2C_REGS_LEN[ACTIVE_REG]) {
1000e5a2:	da96      	bge.n	1000e4d2 <i2c_simple_isr+0xae>
                    MXC_I2C_EnableInt(I2C_INTERFACE, MXC_F_I2C_INTEN0_TX_THD, 0);
1000e5a4:	4830      	ldr	r0, [pc, #192]	@ (1000e668 <i2c_simple_isr+0x244>)
1000e5a6:	2200      	movs	r2, #0
1000e5a8:	2120      	movs	r1, #32
1000e5aa:	f000 ff27 	bl	1000f3fc <MXC_I2C_EnableInt>
1000e5ae:	e790      	b.n	1000e4d2 <i2c_simple_isr+0xae>
        WRITE_START = true;
1000e5b0:	4b2e      	ldr	r3, [pc, #184]	@ (1000e66c <i2c_simple_isr+0x248>)
        MXC_I2C_EnableInt(I2C_INTERFACE, MXC_F_I2C_INTEN0_RX_THD, 0);
1000e5b2:	482d      	ldr	r0, [pc, #180]	@ (1000e668 <i2c_simple_isr+0x244>)
1000e5b4:	2200      	movs	r2, #0
1000e5b6:	2110      	movs	r1, #16
        WRITE_START = true;
1000e5b8:	2501      	movs	r5, #1
1000e5ba:	701d      	strb	r5, [r3, #0]
        MXC_I2C_EnableInt(I2C_INTERFACE, MXC_F_I2C_INTEN0_RX_THD, 0);
1000e5bc:	f000 ff1e 	bl	1000f3fc <MXC_I2C_EnableInt>
        MXC_I2C_ClearFlags(I2C_INTERFACE, MXC_F_I2C_INTFL0_RD_ADDR_MATCH, 0);
1000e5c0:	4829      	ldr	r0, [pc, #164]	@ (1000e668 <i2c_simple_isr+0x244>)
1000e5c2:	2200      	movs	r2, #0
1000e5c4:	f44f 0180 	mov.w	r1, #4194304	@ 0x400000
1000e5c8:	f000 ff16 	bl	1000f3f8 <MXC_I2C_ClearFlags>
1000e5cc:	e783      	b.n	1000e4d6 <i2c_simple_isr+0xb2>
            MXC_I2C_ReadRXFIFO(I2C_INTERFACE, (volatile unsigned char*) &ACTIVE_REG, 1);
1000e5ce:	4928      	ldr	r1, [pc, #160]	@ (1000e670 <i2c_simple_isr+0x24c>)
1000e5d0:	2201      	movs	r2, #1
1000e5d2:	f000 ff05 	bl	1000f3e0 <MXC_I2C_ReadRXFIFO>
            WRITE_START = false;
1000e5d6:	2300      	movs	r3, #0
1000e5d8:	7033      	strb	r3, [r6, #0]
1000e5da:	e72d      	b.n	1000e438 <i2c_simple_isr+0x14>
            MXC_I2C_ReadRXFIFO(I2C_INTERFACE, (volatile unsigned char*) &ACTIVE_REG, 1);
1000e5dc:	4924      	ldr	r1, [pc, #144]	@ (1000e670 <i2c_simple_isr+0x24c>)
1000e5de:	4822      	ldr	r0, [pc, #136]	@ (1000e668 <i2c_simple_isr+0x244>)
1000e5e0:	2201      	movs	r2, #1
1000e5e2:	f000 fefd 	bl	1000f3e0 <MXC_I2C_ReadRXFIFO>
            WRITE_START = false;
1000e5e6:	2300      	movs	r3, #0
1000e5e8:	7023      	strb	r3, [r4, #0]
        if (ACTIVE_REG <= MAX_REG) {
1000e5ea:	4c21      	ldr	r4, [pc, #132]	@ (1000e670 <i2c_simple_isr+0x24c>)
            int available = MXC_I2C_GetRXFIFOAvailable(I2C_INTERFACE);
1000e5ec:	481e      	ldr	r0, [pc, #120]	@ (1000e668 <i2c_simple_isr+0x244>)
        if (ACTIVE_REG <= MAX_REG) {
1000e5ee:	7823      	ldrb	r3, [r4, #0]
1000e5f0:	2b05      	cmp	r3, #5
1000e5f2:	f63f af7b 	bhi.w	1000e4ec <i2c_simple_isr+0xc8>
1000e5f6:	e783      	b.n	1000e500 <i2c_simple_isr+0xdc>
                    &I2C_REGS[ACTIVE_REG][WRITE_INDEX],
1000e5f8:	4820      	ldr	r0, [pc, #128]	@ (1000e67c <i2c_simple_isr+0x258>)
1000e5fa:	f850 1021 	ldr.w	r1, [r0, r1, lsl #2]
                WRITE_INDEX += MXC_I2C_ReadRXFIFO(I2C_INTERFACE,
1000e5fe:	481a      	ldr	r0, [pc, #104]	@ (1000e668 <i2c_simple_isr+0x244>)
1000e600:	4419      	add	r1, r3
1000e602:	f000 feed 	bl	1000f3e0 <MXC_I2C_ReadRXFIFO>
1000e606:	6823      	ldr	r3, [r4, #0]
1000e608:	4403      	add	r3, r0
1000e60a:	6023      	str	r3, [r4, #0]
1000e60c:	e770      	b.n	1000e4f0 <i2c_simple_isr+0xcc>
                    &I2C_REGS[ACTIVE_REG][WRITE_INDEX],
1000e60e:	481b      	ldr	r0, [pc, #108]	@ (1000e67c <i2c_simple_isr+0x258>)
1000e610:	f850 1021 	ldr.w	r1, [r0, r1, lsl #2]
                WRITE_INDEX += MXC_I2C_ReadRXFIFO(I2C_INTERFACE,
1000e614:	4419      	add	r1, r3
1000e616:	e729      	b.n	1000e46c <i2c_simple_isr+0x48>
            READ_INDEX += MXC_I2C_WriteTXFIFO(I2C_INTERFACE,
1000e618:	4e19      	ldr	r6, [pc, #100]	@ (1000e680 <i2c_simple_isr+0x25c>)
                I2C_REGS_LEN[ACTIVE_REG]-READ_INDEX);
1000e61a:	4f16      	ldr	r7, [pc, #88]	@ (1000e674 <i2c_simple_isr+0x250>)
                (volatile unsigned char*)&I2C_REGS[ACTIVE_REG][READ_INDEX],
1000e61c:	4917      	ldr	r1, [pc, #92]	@ (1000e67c <i2c_simple_isr+0x258>)
            READ_INDEX += MXC_I2C_WriteTXFIFO(I2C_INTERFACE,
1000e61e:	6832      	ldr	r2, [r6, #0]
                (volatile unsigned char*)&I2C_REGS[ACTIVE_REG][READ_INDEX],
1000e620:	f851 1023 	ldr.w	r1, [r1, r3, lsl #2]
                I2C_REGS_LEN[ACTIVE_REG]-READ_INDEX);
1000e624:	f857 3023 	ldr.w	r3, [r7, r3, lsl #2]
            READ_INDEX += MXC_I2C_WriteTXFIFO(I2C_INTERFACE,
1000e628:	480f      	ldr	r0, [pc, #60]	@ (1000e668 <i2c_simple_isr+0x244>)
1000e62a:	4411      	add	r1, r2
1000e62c:	1a9a      	subs	r2, r3, r2
1000e62e:	f000 fedb 	bl	1000f3e8 <MXC_I2C_WriteTXFIFO>
            if (I2C_REGS_LEN[ACTIVE_REG]-1 == READ_INDEX) {
1000e632:	782b      	ldrb	r3, [r5, #0]
            READ_INDEX += MXC_I2C_WriteTXFIFO(I2C_INTERFACE,
1000e634:	6832      	ldr	r2, [r6, #0]
            if (I2C_REGS_LEN[ACTIVE_REG]-1 == READ_INDEX) {
1000e636:	f857 3023 	ldr.w	r3, [r7, r3, lsl #2]
            READ_INDEX += MXC_I2C_WriteTXFIFO(I2C_INTERFACE,
1000e63a:	4410      	add	r0, r2
            if (I2C_REGS_LEN[ACTIVE_REG]-1 == READ_INDEX) {
1000e63c:	3b01      	subs	r3, #1
1000e63e:	4298      	cmp	r0, r3
            READ_INDEX += MXC_I2C_WriteTXFIFO(I2C_INTERFACE,
1000e640:	6030      	str	r0, [r6, #0]
            if (I2C_REGS_LEN[ACTIVE_REG]-1 == READ_INDEX) {
1000e642:	f47f af7f 	bne.w	1000e544 <i2c_simple_isr+0x120>
                MXC_I2C_DisableInt(I2C_INTERFACE, MXC_F_I2C_INTEN0_TX_THD, 0);
1000e646:	4808      	ldr	r0, [pc, #32]	@ (1000e668 <i2c_simple_isr+0x244>)
1000e648:	2200      	movs	r2, #0
1000e64a:	2120      	movs	r1, #32
1000e64c:	f000 fed8 	bl	1000f400 <MXC_I2C_DisableInt>
1000e650:	e778      	b.n	1000e544 <i2c_simple_isr+0x120>
            MXC_I2C_ClearFlags(I2C_INTERFACE, MXC_F_I2C_INTFL0_TX_LOCKOUT, 0);
1000e652:	2200      	movs	r2, #0
1000e654:	f44f 4100 	mov.w	r1, #32768	@ 0x8000
1000e658:	f000 fece 	bl	1000f3f8 <MXC_I2C_ClearFlags>
1000e65c:	e76e      	b.n	1000e53c <i2c_simple_isr+0x118>
            MXC_I2C_ClearRXFIFO(I2C_INTERFACE);
1000e65e:	4802      	ldr	r0, [pc, #8]	@ (1000e668 <i2c_simple_isr+0x244>)
1000e660:	f000 fec6 	bl	1000f3f0 <MXC_I2C_ClearRXFIFO>
1000e664:	e71c      	b.n	1000e4a0 <i2c_simple_isr+0x7c>
1000e666:	bf00      	nop
1000e668:	4001e000 	.word	0x4001e000
1000e66c:	200008a5 	.word	0x200008a5
1000e670:	200008a4 	.word	0x200008a4
1000e674:	20000000 	.word	0x20000000
1000e678:	200008a0 	.word	0x200008a0
1000e67c:	20000018 	.word	0x20000018
1000e680:	2000089c 	.word	0x2000089c

1000e684 <i2c_simple_peripheral_init>:
int i2c_simple_peripheral_init(uint8_t addr) {
1000e684:	b510      	push	{r4, lr}
1000e686:	4602      	mov	r2, r0
    error = MXC_I2C_Init(I2C_INTERFACE, false, addr);
1000e688:	2100      	movs	r1, #0
1000e68a:	481b      	ldr	r0, [pc, #108]	@ (1000e6f8 <i2c_simple_peripheral_init+0x74>)
1000e68c:	f000 fe52 	bl	1000f334 <MXC_I2C_Init>
    if (error != E_NO_ERROR) {
1000e690:	4604      	mov	r4, r0
1000e692:	bb60      	cbnz	r0, 1000e6ee <i2c_simple_peripheral_init+0x6a>
    MXC_I2C_SetFrequency(I2C_INTERFACE, I2C_FREQ);
1000e694:	4919      	ldr	r1, [pc, #100]	@ (1000e6fc <i2c_simple_peripheral_init+0x78>)
1000e696:	4818      	ldr	r0, [pc, #96]	@ (1000e6f8 <i2c_simple_peripheral_init+0x74>)
1000e698:	f000 fe96 	bl	1000f3c8 <MXC_I2C_SetFrequency>
    MXC_I2C_ClearRXFIFO(I2C_INTERFACE);
1000e69c:	4816      	ldr	r0, [pc, #88]	@ (1000e6f8 <i2c_simple_peripheral_init+0x74>)
1000e69e:	f000 fea7 	bl	1000f3f0 <MXC_I2C_ClearRXFIFO>
    MXC_I2C_EnableInt(I2C_INTERFACE, MXC_F_I2C_INTFL0_RD_ADDR_MATCH, 0);
1000e6a2:	4622      	mov	r2, r4
1000e6a4:	4814      	ldr	r0, [pc, #80]	@ (1000e6f8 <i2c_simple_peripheral_init+0x74>)
1000e6a6:	f44f 0180 	mov.w	r1, #4194304	@ 0x400000
1000e6aa:	f000 fea7 	bl	1000f3fc <MXC_I2C_EnableInt>
    MXC_I2C_EnableInt(I2C_INTERFACE, MXC_F_I2C_INTFL0_WR_ADDR_MATCH, 0);
1000e6ae:	4622      	mov	r2, r4
1000e6b0:	4811      	ldr	r0, [pc, #68]	@ (1000e6f8 <i2c_simple_peripheral_init+0x74>)
1000e6b2:	f44f 0100 	mov.w	r1, #8388608	@ 0x800000
1000e6b6:	f000 fea1 	bl	1000f3fc <MXC_I2C_EnableInt>
    MXC_I2C_EnableInt(I2C_INTERFACE, MXC_F_I2C_INTFL0_STOP, 0);
1000e6ba:	4622      	mov	r2, r4
1000e6bc:	480e      	ldr	r0, [pc, #56]	@ (1000e6f8 <i2c_simple_peripheral_init+0x74>)
1000e6be:	2140      	movs	r1, #64	@ 0x40
1000e6c0:	f000 fe9c 	bl	1000f3fc <MXC_I2C_EnableInt>
    MXC_NVIC_SetVector(MXC_I2C_GET_IRQ(MXC_I2C_GET_IDX(I2C_INTERFACE)), i2c_simple_isr);
1000e6c4:	490e      	ldr	r1, [pc, #56]	@ (1000e700 <i2c_simple_peripheral_init+0x7c>)
1000e6c6:	2024      	movs	r0, #36	@ 0x24
1000e6c8:	f000 fb4a 	bl	1000ed60 <MXC_NVIC_SetVector>
__STATIC_INLINE void __NVIC_EnableIRQ(IRQn_Type IRQn)
{
  if ((int32_t)(IRQn) >= 0)
  {
    __COMPILER_BARRIER();
    NVIC->ISER[(((uint32_t)IRQn) >> 5UL)] = (uint32_t)(1UL << (((uint32_t)IRQn) & 0x1FUL));
1000e6cc:	4b0d      	ldr	r3, [pc, #52]	@ (1000e704 <i2c_simple_peripheral_init+0x80>)
1000e6ce:	2210      	movs	r2, #16
1000e6d0:	605a      	str	r2, [r3, #4]
    MXC_I2C_ClearFlags(I2C_INTERFACE, 0xFFFFFFFF, 0xFFFFFFFF);
1000e6d2:	f04f 32ff 	mov.w	r2, #4294967295	@ 0xffffffff
1000e6d6:	4611      	mov	r1, r2
1000e6d8:	4807      	ldr	r0, [pc, #28]	@ (1000e6f8 <i2c_simple_peripheral_init+0x74>)
1000e6da:	f000 fe8d 	bl	1000f3f8 <MXC_I2C_ClearFlags>
    I2C_REGS[RECEIVE_DONE][0] = false;
1000e6de:	4b0a      	ldr	r3, [pc, #40]	@ (1000e708 <i2c_simple_peripheral_init+0x84>)
1000e6e0:	6859      	ldr	r1, [r3, #4]
1000e6e2:	700c      	strb	r4, [r1, #0]
    I2C_REGS[TRANSMIT_DONE][0] = true;
1000e6e4:	691b      	ldr	r3, [r3, #16]
1000e6e6:	2201      	movs	r2, #1
1000e6e8:	701a      	strb	r2, [r3, #0]
}
1000e6ea:	4620      	mov	r0, r4
1000e6ec:	bd10      	pop	{r4, pc}
        printf("Failed to initialize I2C.\n");
1000e6ee:	4807      	ldr	r0, [pc, #28]	@ (1000e70c <i2c_simple_peripheral_init+0x88>)
1000e6f0:	f004 fde2 	bl	100132b8 <puts>
}
1000e6f4:	4620      	mov	r0, r4
1000e6f6:	bd10      	pop	{r4, pc}
1000e6f8:	4001e000 	.word	0x4001e000
1000e6fc:	000186a0 	.word	0x000186a0
1000e700:	1000e425 	.word	0x1000e425
1000e704:	e000e100 	.word	0xe000e100
1000e708:	20000018 	.word	0x20000018
1000e70c:	10019034 	.word	0x10019034

1000e710 <mxc_assert>:
};
const unsigned int num_leds = (sizeof(led_pin) / sizeof(mxc_gpio_cfg_t));

/******************************************************************************/
void mxc_assert(const char *expr, const char *file, int line)
{
1000e710:	b508      	push	{r3, lr}
1000e712:	4603      	mov	r3, r0
    printf("MXC_ASSERT %s #%d: (%s)\n", file, line, expr);
1000e714:	4801      	ldr	r0, [pc, #4]	@ (1000e71c <mxc_assert+0xc>)
1000e716:	f001 fe9f 	bl	10010458 <printf>

    while (1) {}
1000e71a:	e7fe      	b.n	1000e71a <mxc_assert+0xa>
1000e71c:	10019050 	.word	0x10019050

1000e720 <GPIO0_IRQHandler>:
 * NOTE: This weak definition is included to support Push Button 0 interrupts in
 *       case the user does not define this interrupt handler in their application.
 **/
__weak void GPIO0_IRQHandler(void)
{
    MXC_GPIO_Handler(MXC_GPIO_GET_IDX(MXC_GPIO0));
1000e720:	2000      	movs	r0, #0
1000e722:	f000 bd7d 	b.w	1000f220 <MXC_GPIO_Handler>
1000e726:	bf00      	nop

1000e728 <GPIO1_IRQHandler>:
 * NOTE: This weak definition is included to support Push Button 1 interrupts in
 *       case the user does not define this interrupt handler in their application.
 **/
__weak void GPIO1_IRQHandler(void)
{
    MXC_GPIO_Handler(MXC_GPIO_GET_IDX(MXC_GPIO1));
1000e728:	2001      	movs	r0, #1
1000e72a:	f000 bd79 	b.w	1000f220 <MXC_GPIO_Handler>
1000e72e:	bf00      	nop

1000e730 <Board_Init>:
}

/******************************************************************************/
int Board_Init(void)
{
1000e730:	b510      	push	{r4, lr}
#ifndef __riscv
    int err;

    // Enable GPIO
    MXC_SYS_ClockEnable(MXC_SYS_PERIPH_CLOCK_GPIO0);
1000e732:	2000      	movs	r0, #0
1000e734:	f000 fb5e 	bl	1000edf4 <MXC_SYS_ClockEnable>
    MXC_SYS_ClockEnable(MXC_SYS_PERIPH_CLOCK_GPIO1);
1000e738:	2001      	movs	r0, #1
1000e73a:	f000 fb5b 	bl	1000edf4 <MXC_SYS_ClockEnable>
    MXC_SYS_ClockEnable(MXC_SYS_PERIPH_CLOCK_GPIO2);
1000e73e:	2040      	movs	r0, #64	@ 0x40
1000e740:	f000 fb58 	bl	1000edf4 <MXC_SYS_ClockEnable>
/******************************************************************************/
int Console_Init(void)
{
    int err;

    if ((err = MXC_UART_Init(ConsoleUart, CONSOLE_BAUD, MXC_UART_IBRO_CLK)) != E_NO_ERROR) {
1000e744:	4b10      	ldr	r3, [pc, #64]	@ (1000e788 <Board_Init+0x58>)
1000e746:	2202      	movs	r2, #2
1000e748:	6818      	ldr	r0, [r3, #0]
1000e74a:	f44f 31e1 	mov.w	r1, #115200	@ 0x1c200
1000e74e:	f001 f891 	bl	1000f874 <MXC_UART_Init>
    if ((err = Console_Init()) < E_NO_ERROR) {
1000e752:	1e04      	subs	r4, r0, #0
1000e754:	db0c      	blt.n	1000e770 <Board_Init+0x40>
    if ((err = PB_Init()) != E_NO_ERROR) {
1000e756:	f000 f8eb 	bl	1000e930 <PB_Init>
1000e75a:	b958      	cbnz	r0, 1000e774 <Board_Init+0x44>
    if ((err = LED_Init()) != E_NO_ERROR) {
1000e75c:	f000 f888 	bl	1000e870 <LED_Init>
1000e760:	4604      	mov	r4, r0
1000e762:	b960      	cbnz	r0, 1000e77e <Board_Init+0x4e>
    MXC_SIMO->vrego_c = 0x43; // Set CNN voltage
1000e764:	4b09      	ldr	r3, [pc, #36]	@ (1000e78c <Board_Init+0x5c>)
    MXC_Delay(200000);
1000e766:	480a      	ldr	r0, [pc, #40]	@ (1000e790 <Board_Init+0x60>)
    MXC_SIMO->vrego_c = 0x43; // Set CNN voltage
1000e768:	2243      	movs	r2, #67	@ 0x43
1000e76a:	60da      	str	r2, [r3, #12]
    MXC_Delay(200000);
1000e76c:	f000 fabe 	bl	1000ecec <MXC_Delay>
}
1000e770:	4620      	mov	r0, r4
1000e772:	bd10      	pop	{r4, pc}
        MXC_ASSERT_FAIL();
1000e774:	4907      	ldr	r1, [pc, #28]	@ (1000e794 <Board_Init+0x64>)
1000e776:	4808      	ldr	r0, [pc, #32]	@ (1000e798 <Board_Init+0x68>)
1000e778:	226f      	movs	r2, #111	@ 0x6f
1000e77a:	f7ff ffc9 	bl	1000e710 <mxc_assert>
        MXC_ASSERT_FAIL();
1000e77e:	4905      	ldr	r1, [pc, #20]	@ (1000e794 <Board_Init+0x64>)
1000e780:	4805      	ldr	r0, [pc, #20]	@ (1000e798 <Board_Init+0x68>)
1000e782:	2274      	movs	r2, #116	@ 0x74
1000e784:	f7ff ffc4 	bl	1000e710 <mxc_assert>
1000e788:	20000030 	.word	0x20000030
1000e78c:	40004400 	.word	0x40004400
1000e790:	00030d40 	.word	0x00030d40
1000e794:	1001906c 	.word	0x1001906c
1000e798:	100190d4 	.word	0x100190d4

1000e79c <NMI_Handler>:
}

/******************************************************************************/
void NMI_Handler(void)
{
    __NOP();
1000e79c:	bf00      	nop
}
1000e79e:	4770      	bx	lr

1000e7a0 <_close>:
    return -1;
}
int _close(int file)
{
    return -1;
}
1000e7a0:	f04f 30ff 	mov.w	r0, #4294967295	@ 0xffffffff
1000e7a4:	4770      	bx	lr
1000e7a6:	bf00      	nop

1000e7a8 <_isatty>:
int _isatty(int file)
1000e7a8:	f04f 30ff 	mov.w	r0, #4294967295	@ 0xffffffff
1000e7ac:	4770      	bx	lr
1000e7ae:	bf00      	nop

1000e7b0 <_lseek>:
    return -1;
}
int _lseek(int file, off_t offset, int whence)
{
    return -1;
}
1000e7b0:	f04f 30ff 	mov.w	r0, #4294967295	@ 0xffffffff
1000e7b4:	4770      	bx	lr
1000e7b6:	bf00      	nop

1000e7b8 <_fstat>:
int _fstat(int file, struct stat *st)
{
    return -1;
}
1000e7b8:	f04f 30ff 	mov.w	r0, #4294967295	@ 0xffffffff
1000e7bc:	4770      	bx	lr
1000e7be:	bf00      	nop

1000e7c0 <_read>:
   fgetc for stdio */
#if defined(__ICCARM__) || defined(__GNUC__)

#if defined(__GNUC__) // GNUC _read function prototype
int _read(int file, char *ptr, int len)
{
1000e7c0:	b5f8      	push	{r3, r4, r5, r6, r7, lr}
    size_t n;
#endif /*  */

    int num = 0; // count of number received.

    switch (file) {
1000e7c2:	b9e0      	cbnz	r0, 1000e7fe <_read+0x3e>
    case STDIN_FILENO:
        for (n = 0; n < len; n++) {
1000e7c4:	2a00      	cmp	r2, #0
1000e7c6:	dd19      	ble.n	1000e7fc <_read+0x3c>
            *ptr = MXC_UART_ReadCharacter(MXC_UARTn); // read a byte.
1000e7c8:	4d10      	ldr	r5, [pc, #64]	@ (1000e80c <_read+0x4c>)
1000e7ca:	460e      	mov	r6, r1
1000e7cc:	188f      	adds	r7, r1, r2
        for (n = 0; n < len; n++) {
1000e7ce:	460c      	mov	r4, r1
1000e7d0:	e002      	b.n	1000e7d8 <_read+0x18>
1000e7d2:	42bb      	cmp	r3, r7
1000e7d4:	d00f      	beq.n	1000e7f6 <_read+0x36>
                num++;
                ptr++;

                break;
            } else {
                ptr++;
1000e7d6:	461c      	mov	r4, r3
            *ptr = MXC_UART_ReadCharacter(MXC_UARTn); // read a byte.
1000e7d8:	4628      	mov	r0, r5
1000e7da:	f001 f941 	bl	1000fa60 <MXC_UART_ReadCharacter>
1000e7de:	b2c1      	uxtb	r1, r0
1000e7e0:	7021      	strb	r1, [r4, #0]
            MXC_UART_WriteCharacter(MXC_UARTn, *ptr); // echo the byte.
1000e7e2:	4628      	mov	r0, r5
1000e7e4:	f001 f93e 	bl	1000fa64 <MXC_UART_WriteCharacter>
            if (*ptr == '\r') { // check for end of line.
1000e7e8:	7822      	ldrb	r2, [r4, #0]
1000e7ea:	2a0d      	cmp	r2, #13
                ptr++;
1000e7ec:	f104 0301 	add.w	r3, r4, #1
            if (*ptr == '\r') { // check for end of line.
1000e7f0:	d1ef      	bne.n	1000e7d2 <_read+0x12>
                *ptr = '\n';
1000e7f2:	230a      	movs	r3, #10
1000e7f4:	7023      	strb	r3, [r4, #0]
                num++;
1000e7f6:	f1c6 0601 	rsb	r6, r6, #1
1000e7fa:	19a0      	adds	r0, r4, r6
        errno = EBADF;
        return -1;
    }

    return num;
}
1000e7fc:	bdf8      	pop	{r3, r4, r5, r6, r7, pc}
        errno = EBADF;
1000e7fe:	f005 fcc3 	bl	10014188 <__errno>
1000e802:	2309      	movs	r3, #9
1000e804:	6003      	str	r3, [r0, #0]
        return -1;
1000e806:	f04f 30ff 	mov.w	r0, #4294967295	@ 0xffffffff
}
1000e80a:	bdf8      	pop	{r3, r4, r5, r6, r7, pc}
1000e80c:	40042000 	.word	0x40042000

1000e810 <_write>:

/* newlib/libc printf() will eventually call write() to get the data to the stdout */
#if defined(__GNUC__)
// GNUC _write function prototype
int _write(int file, char *ptr, int len)
{
1000e810:	b5f8      	push	{r3, r4, r5, r6, r7, lr}
int __write(int file, const unsigned char *ptr, size_t len)
{
    size_t n;
#endif /* __GNUC__ */

    switch (file) {
1000e812:	1e43      	subs	r3, r0, #1
1000e814:	2b01      	cmp	r3, #1
1000e816:	d821      	bhi.n	1000e85c <_write+0x4c>
    case STDOUT_FILENO:
    case STDERR_FILENO:

        // This function should be as fast as possible
        // So we'll forgo the UART driver for now
        for (n = 0; n < len; n++) {
1000e818:	2a00      	cmp	r2, #0
1000e81a:	4617      	mov	r7, r2
1000e81c:	dd12      	ble.n	1000e844 <_write+0x34>
1000e81e:	1e53      	subs	r3, r2, #1
            if (*ptr == '\n') {
                // Wait until there's room in the FIFO
                while (MXC_UART_GetTXFIFOAvailable(MXC_UARTn) == 0) {}
1000e820:	4e12      	ldr	r6, [pc, #72]	@ (1000e86c <_write+0x5c>)
1000e822:	1e4c      	subs	r4, r1, #1
1000e824:	18cd      	adds	r5, r1, r3
            if (*ptr == '\n') {
1000e826:	f814 3f01 	ldrb.w	r3, [r4, #1]!
1000e82a:	2b0a      	cmp	r3, #10
1000e82c:	d00c      	beq.n	1000e848 <_write+0x38>

                MXC_UART_WriteCharacter(MXC_UARTn, '\r');
            }

            // Wait until there's room in the FIFO
            while (MXC_UART_GetTXFIFOAvailable(MXC_UARTn) == 0) {}
1000e82e:	480f      	ldr	r0, [pc, #60]	@ (1000e86c <_write+0x5c>)
1000e830:	f001 f91c 	bl	1000fa6c <MXC_UART_GetTXFIFOAvailable>
1000e834:	2800      	cmp	r0, #0
1000e836:	d0fa      	beq.n	1000e82e <_write+0x1e>

            MXC_UART_WriteCharacter(MXC_UARTn, *ptr++);
1000e838:	7821      	ldrb	r1, [r4, #0]
1000e83a:	4630      	mov	r0, r6
1000e83c:	f001 f912 	bl	1000fa64 <MXC_UART_WriteCharacter>
        for (n = 0; n < len; n++) {
1000e840:	42ac      	cmp	r4, r5
1000e842:	d1f0      	bne.n	1000e826 <_write+0x16>

        break;

    default:
        errno = EBADF;
        return -1;
1000e844:	4638      	mov	r0, r7
    }

    return len;
}
1000e846:	bdf8      	pop	{r3, r4, r5, r6, r7, pc}
                while (MXC_UART_GetTXFIFOAvailable(MXC_UARTn) == 0) {}
1000e848:	4808      	ldr	r0, [pc, #32]	@ (1000e86c <_write+0x5c>)
1000e84a:	f001 f90f 	bl	1000fa6c <MXC_UART_GetTXFIFOAvailable>
1000e84e:	2800      	cmp	r0, #0
1000e850:	d0fa      	beq.n	1000e848 <_write+0x38>
                MXC_UART_WriteCharacter(MXC_UARTn, '\r');
1000e852:	210d      	movs	r1, #13
1000e854:	4630      	mov	r0, r6
1000e856:	f001 f905 	bl	1000fa64 <MXC_UART_WriteCharacter>
1000e85a:	e7e8      	b.n	1000e82e <_write+0x1e>
        errno = EBADF;
1000e85c:	f005 fc94 	bl	10014188 <__errno>
1000e860:	2309      	movs	r3, #9
1000e862:	6003      	str	r3, [r0, #0]
        return -1;
1000e864:	f04f 30ff 	mov.w	r0, #4294967295	@ 0xffffffff
}
1000e868:	bdf8      	pop	{r3, r4, r5, r6, r7, pc}
1000e86a:	bf00      	nop
1000e86c:	40042000 	.word	0x40042000

1000e870 <LED_Init>:
#include "led.h"
#include "mxc_device.h"

/******************************************************************************/
int LED_Init(void)
{
1000e870:	b5f8      	push	{r3, r4, r5, r6, r7, lr}
    int retval = E_NO_ERROR;
    unsigned int i;

    /* setup GPIO for the LED */
    for (i = 0; i < num_leds; i++) {
1000e872:	4b0d      	ldr	r3, [pc, #52]	@ (1000e8a8 <LED_Init+0x38>)
1000e874:	681f      	ldr	r7, [r3, #0]
1000e876:	b1a7      	cbz	r7, 1000e8a2 <LED_Init+0x32>
1000e878:	2500      	movs	r5, #0
1000e87a:	4c0c      	ldr	r4, [pc, #48]	@ (1000e8ac <LED_Init+0x3c>)
    int retval = E_NO_ERROR;
1000e87c:	462e      	mov	r6, r5
//******************************************************************************
void LED_Off(unsigned int idx)
{
    MXC_ASSERT(idx < num_leds);
#if (LED_ON == 0)
    MXC_GPIO_OutSet(led_pin[idx].port, led_pin[idx].mask);
1000e87e:	e9d4 0100 	ldrd	r0, r1, [r4]
1000e882:	f000 fc99 	bl	1000f1b8 <MXC_GPIO_OutSet>
        if (MXC_GPIO_Config(&led_pin[i]) != E_NO_ERROR) {
1000e886:	4620      	mov	r0, r4
1000e888:	f000 fb9c 	bl	1000efc4 <MXC_GPIO_Config>
    for (i = 0; i < num_leds; i++) {
1000e88c:	3501      	adds	r5, #1
            retval = E_UNKNOWN;
1000e88e:	2800      	cmp	r0, #0
1000e890:	bf18      	it	ne
1000e892:	f06f 0607 	mvnne.w	r6, #7
    for (i = 0; i < num_leds; i++) {
1000e896:	42af      	cmp	r7, r5
1000e898:	f104 040c 	add.w	r4, r4, #12
1000e89c:	d1ef      	bne.n	1000e87e <LED_Init+0xe>
}
1000e89e:	4630      	mov	r0, r6
1000e8a0:	bdf8      	pop	{r3, r4, r5, r6, r7, pc}
    int retval = E_NO_ERROR;
1000e8a2:	463e      	mov	r6, r7
}
1000e8a4:	4630      	mov	r0, r6
1000e8a6:	bdf8      	pop	{r3, r4, r5, r6, r7, pc}
1000e8a8:	100190dc 	.word	0x100190dc
1000e8ac:	100190e0 	.word	0x100190e0

1000e8b0 <LED_On>:
    MXC_ASSERT(idx < num_leds);
1000e8b0:	4b0b      	ldr	r3, [pc, #44]	@ (1000e8e0 <LED_On+0x30>)
1000e8b2:	681b      	ldr	r3, [r3, #0]
1000e8b4:	4283      	cmp	r3, r0
{
1000e8b6:	b510      	push	{r4, lr}
1000e8b8:	4604      	mov	r4, r0
    MXC_ASSERT(idx < num_leds);
1000e8ba:	d90b      	bls.n	1000e8d4 <LED_On+0x24>
    MXC_GPIO_OutClr(led_pin[idx].port, led_pin[idx].mask);
1000e8bc:	4b09      	ldr	r3, [pc, #36]	@ (1000e8e4 <LED_On+0x34>)
1000e8be:	eb04 0444 	add.w	r4, r4, r4, lsl #1
1000e8c2:	eb03 0284 	add.w	r2, r3, r4, lsl #2
1000e8c6:	f853 0024 	ldr.w	r0, [r3, r4, lsl #2]
1000e8ca:	6851      	ldr	r1, [r2, #4]
}
1000e8cc:	e8bd 4010 	ldmia.w	sp!, {r4, lr}
    MXC_GPIO_OutClr(led_pin[idx].port, led_pin[idx].mask);
1000e8d0:	f000 bc8c 	b.w	1000f1ec <MXC_GPIO_OutClr>
    MXC_ASSERT(idx < num_leds);
1000e8d4:	4904      	ldr	r1, [pc, #16]	@ (1000e8e8 <LED_On+0x38>)
1000e8d6:	4805      	ldr	r0, [pc, #20]	@ (1000e8ec <LED_On+0x3c>)
1000e8d8:	223b      	movs	r2, #59	@ 0x3b
1000e8da:	f7ff ff19 	bl	1000e710 <mxc_assert>
1000e8de:	e7ed      	b.n	1000e8bc <LED_On+0xc>
1000e8e0:	100190dc 	.word	0x100190dc
1000e8e4:	100190e0 	.word	0x100190e0
1000e8e8:	10019120 	.word	0x10019120
1000e8ec:	10019174 	.word	0x10019174

1000e8f0 <LED_Off>:
    MXC_ASSERT(idx < num_leds);
1000e8f0:	4b0b      	ldr	r3, [pc, #44]	@ (1000e920 <LED_Off+0x30>)
1000e8f2:	681b      	ldr	r3, [r3, #0]
1000e8f4:	4283      	cmp	r3, r0
{
1000e8f6:	b510      	push	{r4, lr}
1000e8f8:	4604      	mov	r4, r0
    MXC_ASSERT(idx < num_leds);
1000e8fa:	d90b      	bls.n	1000e914 <LED_Off+0x24>
    MXC_GPIO_OutSet(led_pin[idx].port, led_pin[idx].mask);
1000e8fc:	4b09      	ldr	r3, [pc, #36]	@ (1000e924 <LED_Off+0x34>)
1000e8fe:	eb04 0444 	add.w	r4, r4, r4, lsl #1
1000e902:	eb03 0284 	add.w	r2, r3, r4, lsl #2
1000e906:	f853 0024 	ldr.w	r0, [r3, r4, lsl #2]
1000e90a:	6851      	ldr	r1, [r2, #4]
#else
    MXC_GPIO_OutClr(led_pin[idx].port, led_pin[idx].mask);
#endif
}
1000e90c:	e8bd 4010 	ldmia.w	sp!, {r4, lr}
    MXC_GPIO_OutSet(led_pin[idx].port, led_pin[idx].mask);
1000e910:	f000 bc52 	b.w	1000f1b8 <MXC_GPIO_OutSet>
    MXC_ASSERT(idx < num_leds);
1000e914:	4904      	ldr	r1, [pc, #16]	@ (1000e928 <LED_Off+0x38>)
1000e916:	4805      	ldr	r0, [pc, #20]	@ (1000e92c <LED_Off+0x3c>)
1000e918:	2246      	movs	r2, #70	@ 0x46
1000e91a:	f7ff fef9 	bl	1000e710 <mxc_assert>
1000e91e:	e7ed      	b.n	1000e8fc <LED_Off+0xc>
1000e920:	100190dc 	.word	0x100190dc
1000e924:	100190e0 	.word	0x100190e0
1000e928:	10019120 	.word	0x10019120
1000e92c:	10019174 	.word	0x10019174

1000e930 <PB_Init>:
#include "mxc_assert.h"
#include "pb.h"

/******************************************************************************/
int PB_Init(void)
{
1000e930:	b5f8      	push	{r3, r4, r5, r6, r7, lr}
    int retval = E_NO_ERROR;
    unsigned int i;

    // Enable pushbutton inputs
    for (i = 0; i < num_pbs; i++) {
1000e932:	4b0b      	ldr	r3, [pc, #44]	@ (1000e960 <PB_Init+0x30>)
1000e934:	681f      	ldr	r7, [r3, #0]
1000e936:	b187      	cbz	r7, 1000e95a <PB_Init+0x2a>
1000e938:	2400      	movs	r4, #0
1000e93a:	4d0a      	ldr	r5, [pc, #40]	@ (1000e964 <PB_Init+0x34>)
    int retval = E_NO_ERROR;
1000e93c:	4626      	mov	r6, r4
        if (MXC_GPIO_Config(&pb_pin[i]) != E_NO_ERROR) {
1000e93e:	4628      	mov	r0, r5
1000e940:	f000 fb40 	bl	1000efc4 <MXC_GPIO_Config>
    for (i = 0; i < num_pbs; i++) {
1000e944:	3401      	adds	r4, #1
            retval = E_UNKNOWN;
1000e946:	2800      	cmp	r0, #0
1000e948:	bf18      	it	ne
1000e94a:	f06f 0607 	mvnne.w	r6, #7
    for (i = 0; i < num_pbs; i++) {
1000e94e:	42bc      	cmp	r4, r7
1000e950:	f105 050c 	add.w	r5, r5, #12
1000e954:	d1f3      	bne.n	1000e93e <PB_Init+0xe>
        }
    }

    return retval;
}
1000e956:	4630      	mov	r0, r6
1000e958:	bdf8      	pop	{r3, r4, r5, r6, r7, pc}
    int retval = E_NO_ERROR;
1000e95a:	463e      	mov	r6, r7
}
1000e95c:	4630      	mov	r0, r6
1000e95e:	bdf8      	pop	{r3, r4, r5, r6, r7, pc}
1000e960:	10019104 	.word	0x10019104
1000e964:	10019108 	.word	0x10019108

1000e968 <Reset_Handler>:
1000e968:	4847      	ldr	r0, [pc, #284]	@ (1000ea88 <LPCMP_IRQHandler+0x2>)
1000e96a:	4685      	mov	sp, r0
1000e96c:	4847      	ldr	r0, [pc, #284]	@ (1000ea8c <LPCMP_IRQHandler+0x6>)
1000e96e:	4780      	blx	r0
1000e970:	b980      	cbnz	r0, 1000e994 <.SKIPRAMINIT>
1000e972:	4947      	ldr	r1, [pc, #284]	@ (1000ea90 <LPCMP_IRQHandler+0xa>)
1000e974:	4a47      	ldr	r2, [pc, #284]	@ (1000ea94 <LPCMP_IRQHandler+0xe>)
1000e976:	4b48      	ldr	r3, [pc, #288]	@ (1000ea98 <LPCMP_IRQHandler+0x12>)
1000e978:	1a9b      	subs	r3, r3, r2
1000e97a:	dd03      	ble.n	1000e984 <Reset_Handler+0x1c>
1000e97c:	3b04      	subs	r3, #4
1000e97e:	58c8      	ldr	r0, [r1, r3]
1000e980:	50d0      	str	r0, [r2, r3]
1000e982:	dcfb      	bgt.n	1000e97c <Reset_Handler+0x14>
1000e984:	4945      	ldr	r1, [pc, #276]	@ (1000ea9c <LPCMP_IRQHandler+0x16>)
1000e986:	4a46      	ldr	r2, [pc, #280]	@ (1000eaa0 <LPCMP_IRQHandler+0x1a>)
1000e988:	2000      	movs	r0, #0
1000e98a:	4291      	cmp	r1, r2
1000e98c:	bfbc      	itt	lt
1000e98e:	f841 0b04 	strlt.w	r0, [r1], #4
1000e992:	e7fa      	blt.n	1000e98a <Reset_Handler+0x22>

1000e994 <.SKIPRAMINIT>:
1000e994:	4843      	ldr	r0, [pc, #268]	@ (1000eaa4 <LPCMP_IRQHandler+0x1e>)
1000e996:	4780      	blx	r0
1000e998:	4843      	ldr	r0, [pc, #268]	@ (1000eaa8 <LPCMP_IRQHandler+0x22>)
1000e99a:	4780      	blx	r0
1000e99c:	4843      	ldr	r0, [pc, #268]	@ (1000eaac <LPCMP_IRQHandler+0x26>)
1000e99e:	4780      	blx	r0

1000e9a0 <.SPIN>:
1000e9a0:	f7ff fffe 	bl	1000e9a0 <.SPIN>
1000e9a4:	e7fe      	b.n	1000e9a4 <.SPIN+0x4>

1000e9a6 <HardFault_Handler>:
1000e9a6:	e7fe      	b.n	1000e9a6 <HardFault_Handler>

1000e9a8 <MemManage_Handler>:
1000e9a8:	e7fe      	b.n	1000e9a8 <MemManage_Handler>

1000e9aa <BusFault_Handler>:
1000e9aa:	e7fe      	b.n	1000e9aa <BusFault_Handler>

1000e9ac <UsageFault_Handler>:
1000e9ac:	e7fe      	b.n	1000e9ac <UsageFault_Handler>

1000e9ae <SVC_Handler>:
1000e9ae:	e7fe      	b.n	1000e9ae <SVC_Handler>

1000e9b0 <DebugMon_Handler>:
1000e9b0:	e7fe      	b.n	1000e9b0 <DebugMon_Handler>

1000e9b2 <PendSV_Handler>:
1000e9b2:	e7fe      	b.n	1000e9b2 <PendSV_Handler>

1000e9b4 <SysTick_Handler>:
1000e9b4:	e7fe      	b.n	1000e9b4 <SysTick_Handler>

1000e9b6 <Default_Handler>:
1000e9b6:	e7fe      	b.n	1000e9b6 <Default_Handler>

1000e9b8 <PF_IRQHandler>:
1000e9b8:	e7fe      	b.n	1000e9b8 <PF_IRQHandler>

1000e9ba <WDT0_IRQHandler>:
1000e9ba:	e7fe      	b.n	1000e9ba <WDT0_IRQHandler>

1000e9bc <RSV02_IRQHandler>:
1000e9bc:	e7fe      	b.n	1000e9bc <RSV02_IRQHandler>

1000e9be <RTC_IRQHandler>:
1000e9be:	e7fe      	b.n	1000e9be <RTC_IRQHandler>

1000e9c0 <TRNG_IRQHandler>:
1000e9c0:	e7fe      	b.n	1000e9c0 <TRNG_IRQHandler>

1000e9c2 <TMR0_IRQHandler>:
1000e9c2:	e7fe      	b.n	1000e9c2 <TMR0_IRQHandler>

1000e9c4 <TMR1_IRQHandler>:
1000e9c4:	e7fe      	b.n	1000e9c4 <TMR1_IRQHandler>

1000e9c6 <TMR2_IRQHandler>:
1000e9c6:	e7fe      	b.n	1000e9c6 <TMR2_IRQHandler>

1000e9c8 <TMR3_IRQHandler>:
1000e9c8:	e7fe      	b.n	1000e9c8 <TMR3_IRQHandler>

1000e9ca <TMR4_IRQHandler>:
1000e9ca:	e7fe      	b.n	1000e9ca <TMR4_IRQHandler>

1000e9cc <TMR5_IRQHandler>:
1000e9cc:	e7fe      	b.n	1000e9cc <TMR5_IRQHandler>

1000e9ce <RSV11_IRQHandler>:
1000e9ce:	e7fe      	b.n	1000e9ce <RSV11_IRQHandler>

1000e9d0 <RSV12_IRQHandler>:
1000e9d0:	e7fe      	b.n	1000e9d0 <RSV12_IRQHandler>

1000e9d2 <I2C0_IRQHandler>:
1000e9d2:	e7fe      	b.n	1000e9d2 <I2C0_IRQHandler>

1000e9d4 <UART0_IRQHandler>:
1000e9d4:	e7fe      	b.n	1000e9d4 <UART0_IRQHandler>

1000e9d6 <UART1_IRQHandler>:
1000e9d6:	e7fe      	b.n	1000e9d6 <UART1_IRQHandler>

1000e9d8 <SPI1_IRQHandler>:
1000e9d8:	e7fe      	b.n	1000e9d8 <SPI1_IRQHandler>

1000e9da <RSV17_IRQHandler>:
1000e9da:	e7fe      	b.n	1000e9da <RSV17_IRQHandler>

1000e9dc <RSV18_IRQHandler>:
1000e9dc:	e7fe      	b.n	1000e9dc <RSV18_IRQHandler>

1000e9de <RSV19_IRQHandler>:
1000e9de:	e7fe      	b.n	1000e9de <RSV19_IRQHandler>

1000e9e0 <ADC_IRQHandler>:
1000e9e0:	e7fe      	b.n	1000e9e0 <ADC_IRQHandler>

1000e9e2 <RSV21_IRQHandler>:
1000e9e2:	e7fe      	b.n	1000e9e2 <RSV21_IRQHandler>

1000e9e4 <RSV22_IRQHandler>:
1000e9e4:	e7fe      	b.n	1000e9e4 <RSV22_IRQHandler>

1000e9e6 <FLC0_IRQHandler>:
1000e9e6:	e7fe      	b.n	1000e9e6 <FLC0_IRQHandler>
1000e9e8:	e7fe      	b.n	1000e9e8 <FLC0_IRQHandler+0x2>
1000e9ea:	e7fe      	b.n	1000e9ea <FLC0_IRQHandler+0x4>

1000e9ec <GPIO2_IRQHandler>:
1000e9ec:	e7fe      	b.n	1000e9ec <GPIO2_IRQHandler>

1000e9ee <RSV27_IRQHandler>:
1000e9ee:	e7fe      	b.n	1000e9ee <RSV27_IRQHandler>

1000e9f0 <DMA0_IRQHandler>:
1000e9f0:	e7fe      	b.n	1000e9f0 <DMA0_IRQHandler>

1000e9f2 <DMA1_IRQHandler>:
1000e9f2:	e7fe      	b.n	1000e9f2 <DMA1_IRQHandler>

1000e9f4 <DMA2_IRQHandler>:
1000e9f4:	e7fe      	b.n	1000e9f4 <DMA2_IRQHandler>

1000e9f6 <DMA3_IRQHandler>:
1000e9f6:	e7fe      	b.n	1000e9f6 <DMA3_IRQHandler>

1000e9f8 <RSV32_IRQHandler>:
1000e9f8:	e7fe      	b.n	1000e9f8 <RSV32_IRQHandler>

1000e9fa <RSV33_IRQHandler>:
1000e9fa:	e7fe      	b.n	1000e9fa <RSV33_IRQHandler>

1000e9fc <UART2_IRQHandler>:
1000e9fc:	e7fe      	b.n	1000e9fc <UART2_IRQHandler>

1000e9fe <RSV35_IRQHandler>:
1000e9fe:	e7fe      	b.n	1000e9fe <RSV35_IRQHandler>

1000ea00 <I2C1_IRQHandler>:
1000ea00:	e7fe      	b.n	1000ea00 <I2C1_IRQHandler>

1000ea02 <RSV37_IRQHandler>:
1000ea02:	e7fe      	b.n	1000ea02 <RSV37_IRQHandler>

1000ea04 <RSV38_IRQHandler>:
1000ea04:	e7fe      	b.n	1000ea04 <RSV38_IRQHandler>

1000ea06 <RSV39_IRQHandler>:
1000ea06:	e7fe      	b.n	1000ea06 <RSV39_IRQHandler>

1000ea08 <RSV40_IRQHandler>:
1000ea08:	e7fe      	b.n	1000ea08 <RSV40_IRQHandler>

1000ea0a <RSV41_IRQHandler>:
1000ea0a:	e7fe      	b.n	1000ea0a <RSV41_IRQHandler>

1000ea0c <RSV42_IRQHandler>:
1000ea0c:	e7fe      	b.n	1000ea0c <RSV42_IRQHandler>

1000ea0e <RSV43_IRQHandler>:
1000ea0e:	e7fe      	b.n	1000ea0e <RSV43_IRQHandler>

1000ea10 <RSV44_IRQHandler>:
1000ea10:	e7fe      	b.n	1000ea10 <RSV44_IRQHandler>

1000ea12 <RSV45_IRQHandler>:
1000ea12:	e7fe      	b.n	1000ea12 <RSV45_IRQHandler>

1000ea14 <RSV46_IRQHandler>:
1000ea14:	e7fe      	b.n	1000ea14 <RSV46_IRQHandler>

1000ea16 <RSV47_IRQHandler>:
1000ea16:	e7fe      	b.n	1000ea16 <RSV47_IRQHandler>

1000ea18 <RSV48_IRQHandler>:
1000ea18:	e7fe      	b.n	1000ea18 <RSV48_IRQHandler>

1000ea1a <RSV49_IRQHandler>:
1000ea1a:	e7fe      	b.n	1000ea1a <RSV49_IRQHandler>

1000ea1c <RSV50_IRQHandler>:
1000ea1c:	e7fe      	b.n	1000ea1c <RSV50_IRQHandler>

1000ea1e <RSV51_IRQHandler>:
1000ea1e:	e7fe      	b.n	1000ea1e <RSV51_IRQHandler>

1000ea20 <RSV52_IRQHandler>:
1000ea20:	e7fe      	b.n	1000ea20 <RSV52_IRQHandler>

1000ea22 <WUT_IRQHandler>:
1000ea22:	e7fe      	b.n	1000ea22 <WUT_IRQHandler>

1000ea24 <GPIOWAKE_IRQHandler>:
1000ea24:	e7fe      	b.n	1000ea24 <GPIOWAKE_IRQHandler>

1000ea26 <RSV55_IRQHandler>:
1000ea26:	e7fe      	b.n	1000ea26 <RSV55_IRQHandler>

1000ea28 <SPI0_IRQHandler>:
1000ea28:	e7fe      	b.n	1000ea28 <SPI0_IRQHandler>

1000ea2a <WDT1_IRQHandler>:
1000ea2a:	e7fe      	b.n	1000ea2a <WDT1_IRQHandler>

1000ea2c <RSV58_IRQHandler>:
1000ea2c:	e7fe      	b.n	1000ea2c <RSV58_IRQHandler>

1000ea2e <PT_IRQHandler>:
1000ea2e:	e7fe      	b.n	1000ea2e <PT_IRQHandler>

1000ea30 <RSV60_IRQHandler>:
1000ea30:	e7fe      	b.n	1000ea30 <RSV60_IRQHandler>

1000ea32 <RSV61_IRQHandler>:
1000ea32:	e7fe      	b.n	1000ea32 <RSV61_IRQHandler>

1000ea34 <I2C2_IRQHandler>:
1000ea34:	e7fe      	b.n	1000ea34 <I2C2_IRQHandler>

1000ea36 <RISCV_IRQHandler>:
1000ea36:	e7fe      	b.n	1000ea36 <RISCV_IRQHandler>

1000ea38 <RSV64_IRQHandler>:
1000ea38:	e7fe      	b.n	1000ea38 <RSV64_IRQHandler>

1000ea3a <RSV65_IRQHandler>:
1000ea3a:	e7fe      	b.n	1000ea3a <RSV65_IRQHandler>

1000ea3c <RSV66_IRQHandler>:
1000ea3c:	e7fe      	b.n	1000ea3c <RSV66_IRQHandler>

1000ea3e <OWM_IRQHandler>:
1000ea3e:	e7fe      	b.n	1000ea3e <OWM_IRQHandler>

1000ea40 <RSV68_IRQHandler>:
1000ea40:	e7fe      	b.n	1000ea40 <RSV68_IRQHandler>

1000ea42 <RSV69_IRQHandler>:
1000ea42:	e7fe      	b.n	1000ea42 <RSV69_IRQHandler>

1000ea44 <RSV70_IRQHandler>:
1000ea44:	e7fe      	b.n	1000ea44 <RSV70_IRQHandler>

1000ea46 <RSV71_IRQHandler>:
1000ea46:	e7fe      	b.n	1000ea46 <RSV71_IRQHandler>

1000ea48 <RSV72_IRQHandler>:
1000ea48:	e7fe      	b.n	1000ea48 <RSV72_IRQHandler>

1000ea4a <RSV73_IRQHandler>:
1000ea4a:	e7fe      	b.n	1000ea4a <RSV73_IRQHandler>

1000ea4c <RSV74_IRQHandler>:
1000ea4c:	e7fe      	b.n	1000ea4c <RSV74_IRQHandler>

1000ea4e <RSV75_IRQHandler>:
1000ea4e:	e7fe      	b.n	1000ea4e <RSV75_IRQHandler>

1000ea50 <RSV76_IRQHandler>:
1000ea50:	e7fe      	b.n	1000ea50 <RSV76_IRQHandler>

1000ea52 <RSV77_IRQHandler>:
1000ea52:	e7fe      	b.n	1000ea52 <RSV77_IRQHandler>

1000ea54 <RSV78_IRQHandler>:
1000ea54:	e7fe      	b.n	1000ea54 <RSV78_IRQHandler>

1000ea56 <RSV79_IRQHandler>:
1000ea56:	e7fe      	b.n	1000ea56 <RSV79_IRQHandler>

1000ea58 <RSV80_IRQHandler>:
1000ea58:	e7fe      	b.n	1000ea58 <RSV80_IRQHandler>

1000ea5a <RSV81_IRQHandler>:
1000ea5a:	e7fe      	b.n	1000ea5a <RSV81_IRQHandler>

1000ea5c <ECC_IRQHandler>:
1000ea5c:	e7fe      	b.n	1000ea5c <ECC_IRQHandler>

1000ea5e <DVS_IRQHandler>:
1000ea5e:	e7fe      	b.n	1000ea5e <DVS_IRQHandler>

1000ea60 <SIMO_IRQHandler>:
1000ea60:	e7fe      	b.n	1000ea60 <SIMO_IRQHandler>

1000ea62 <RSV85_IRQHandler>:
1000ea62:	e7fe      	b.n	1000ea62 <RSV85_IRQHandler>

1000ea64 <RSV86_IRQHandler>:
1000ea64:	e7fe      	b.n	1000ea64 <RSV86_IRQHandler>

1000ea66 <RSV87_IRQHandler>:
1000ea66:	e7fe      	b.n	1000ea66 <RSV87_IRQHandler>

1000ea68 <UART3_IRQHandler>:
1000ea68:	e7fe      	b.n	1000ea68 <UART3_IRQHandler>

1000ea6a <RSV89_IRQHandler>:
1000ea6a:	e7fe      	b.n	1000ea6a <RSV89_IRQHandler>

1000ea6c <RSV90_IRQHandler>:
1000ea6c:	e7fe      	b.n	1000ea6c <RSV90_IRQHandler>

1000ea6e <PCIF_IRQHandler>:
1000ea6e:	e7fe      	b.n	1000ea6e <PCIF_IRQHandler>

1000ea70 <RSV92_IRQHandler>:
1000ea70:	e7fe      	b.n	1000ea70 <RSV92_IRQHandler>

1000ea72 <RSV93_IRQHandler>:
1000ea72:	e7fe      	b.n	1000ea72 <RSV93_IRQHandler>

1000ea74 <RSV94_IRQHandler>:
1000ea74:	e7fe      	b.n	1000ea74 <RSV94_IRQHandler>

1000ea76 <RSV95_IRQHandler>:
1000ea76:	e7fe      	b.n	1000ea76 <RSV95_IRQHandler>

1000ea78 <RSV96_IRQHandler>:
1000ea78:	e7fe      	b.n	1000ea78 <RSV96_IRQHandler>

1000ea7a <AES_IRQHandler>:
1000ea7a:	e7fe      	b.n	1000ea7a <AES_IRQHandler>

1000ea7c <RSV98_IRQHandler>:
1000ea7c:	e7fe      	b.n	1000ea7c <RSV98_IRQHandler>

1000ea7e <I2S_IRQHandler>:
1000ea7e:	e7fe      	b.n	1000ea7e <I2S_IRQHandler>

1000ea80 <CNN_FIFO_IRQHandler>:
1000ea80:	e7fe      	b.n	1000ea80 <CNN_FIFO_IRQHandler>

1000ea82 <CNN_IRQHandler>:
1000ea82:	e7fe      	b.n	1000ea82 <CNN_IRQHandler>

1000ea84 <RSV102_IRQHandler>:
1000ea84:	e7fe      	b.n	1000ea84 <RSV102_IRQHandler>

1000ea86 <LPCMP_IRQHandler>:
1000ea86:	e7fe      	b.n	1000ea86 <LPCMP_IRQHandler>
1000ea88:	20020000 	.word	0x20020000
1000ea8c:	1000eb55 	.word	0x1000eb55
1000ea90:	10019758 	.word	0x10019758
1000ea94:	20000000 	.word	0x20000000
1000ea98:	200006f8 	.word	0x200006f8
1000ea9c:	20000800 	.word	0x20000800
1000eaa0:	20001340 	.word	0x20001340
1000eaa4:	1000eb59 	.word	0x1000eb59
1000eaa8:	100141b1 	.word	0x100141b1
1000eaac:	1000e3f9 	.word	0x1000e3f9

1000eab0 <_sbrk>:
extern unsigned int __HeapLimit;
caddr_t _sbrk(int incr)
{
    char *prev_heap_end;

    if (heap_end == 0) {
1000eab0:	4a0b      	ldr	r2, [pc, #44]	@ (1000eae0 <_sbrk+0x30>)
{
1000eab2:	b508      	push	{r3, lr}
1000eab4:	4603      	mov	r3, r0
    if (heap_end == 0) {
1000eab6:	6810      	ldr	r0, [r2, #0]
1000eab8:	b128      	cbz	r0, 1000eac6 <_sbrk+0x16>
        heap_end = (caddr_t)&__HeapBase;
    }
    prev_heap_end = heap_end;

    if ((unsigned int)(heap_end + incr) > (unsigned int)&__HeapLimit) {
1000eaba:	490a      	ldr	r1, [pc, #40]	@ (1000eae4 <_sbrk+0x34>)
1000eabc:	4403      	add	r3, r0
1000eabe:	428b      	cmp	r3, r1
1000eac0:	d807      	bhi.n	1000ead2 <_sbrk+0x22>
        errno = ENOMEM;
        return (caddr_t)-1;
    }

    heap_end += incr;
1000eac2:	6013      	str	r3, [r2, #0]

    return (caddr_t)prev_heap_end;
}
1000eac4:	bd08      	pop	{r3, pc}
        heap_end = (caddr_t)&__HeapBase;
1000eac6:	4808      	ldr	r0, [pc, #32]	@ (1000eae8 <_sbrk+0x38>)
    if ((unsigned int)(heap_end + incr) > (unsigned int)&__HeapLimit) {
1000eac8:	4906      	ldr	r1, [pc, #24]	@ (1000eae4 <_sbrk+0x34>)
        heap_end = (caddr_t)&__HeapBase;
1000eaca:	6010      	str	r0, [r2, #0]
    if ((unsigned int)(heap_end + incr) > (unsigned int)&__HeapLimit) {
1000eacc:	4403      	add	r3, r0
1000eace:	428b      	cmp	r3, r1
1000ead0:	d9f7      	bls.n	1000eac2 <_sbrk+0x12>
        errno = ENOMEM;
1000ead2:	f005 fb59 	bl	10014188 <__errno>
1000ead6:	230c      	movs	r3, #12
1000ead8:	6003      	str	r3, [r0, #0]
        return (caddr_t)-1;
1000eada:	f04f 30ff 	mov.w	r0, #4294967295	@ 0xffffffff
}
1000eade:	bd08      	pop	{r3, pc}
1000eae0:	20000938 	.word	0x20000938
1000eae4:	2001f000 	.word	0x2001f000
1000eae8:	20001348 	.word	0x20001348

1000eaec <SystemCoreClockUpdate>:
__weak void SystemCoreClockUpdate(void)
{
    uint32_t base_freq, div, clk_src;

    // Get the clock source and frequency
    clk_src = (MXC_GCR->clkctrl & MXC_F_GCR_CLKCTRL_SYSCLK_SEL);
1000eaec:	f04f 4380 	mov.w	r3, #1073741824	@ 0x40000000
1000eaf0:	689a      	ldr	r2, [r3, #8]
1000eaf2:	f402 6260 	and.w	r2, r2, #3584	@ 0xe00
    switch (clk_src) {
1000eaf6:	f5b2 6f20 	cmp.w	r2, #2560	@ 0xa00
1000eafa:	d020      	beq.n	1000eb3e <SystemCoreClockUpdate+0x52>
1000eafc:	d911      	bls.n	1000eb22 <SystemCoreClockUpdate+0x36>
1000eafe:	f5b2 6f40 	cmp.w	r2, #3072	@ 0xc00
1000eb02:	d017      	beq.n	1000eb34 <SystemCoreClockUpdate+0x48>
        break;
    case MXC_S_GCR_CLKCTRL_SYSCLK_SEL_INRO:
        base_freq = INRO_FREQ;
        break;
    case MXC_S_GCR_CLKCTRL_SYSCLK_SEL_IPO:
        base_freq = IPO_FREQ;
1000eb04:	4b0f      	ldr	r3, [pc, #60]	@ (1000eb44 <SystemCoreClockUpdate+0x58>)
1000eb06:	4910      	ldr	r1, [pc, #64]	@ (1000eb48 <SystemCoreClockUpdate+0x5c>)
1000eb08:	f5b2 6f60 	cmp.w	r2, #3584	@ 0xe00
1000eb0c:	bf18      	it	ne
1000eb0e:	460b      	movne	r3, r1
        // This code should never execute, however, initialize to safe value.
        base_freq = HIRC_FREQ;
        break;
    }

    div = (MXC_GCR->clkctrl & MXC_F_GCR_CLKCTRL_SYSCLK_DIV) >> MXC_F_GCR_CLKCTRL_SYSCLK_DIV_POS;
1000eb10:	f04f 4280 	mov.w	r2, #1073741824	@ 0x40000000

    SystemCoreClock = base_freq >> div;
1000eb14:	490d      	ldr	r1, [pc, #52]	@ (1000eb4c <SystemCoreClockUpdate+0x60>)
    div = (MXC_GCR->clkctrl & MXC_F_GCR_CLKCTRL_SYSCLK_DIV) >> MXC_F_GCR_CLKCTRL_SYSCLK_DIV_POS;
1000eb16:	6892      	ldr	r2, [r2, #8]
1000eb18:	f3c2 1282 	ubfx	r2, r2, #6, #3
    SystemCoreClock = base_freq >> div;
1000eb1c:	40d3      	lsrs	r3, r2
1000eb1e:	600b      	str	r3, [r1, #0]
}
1000eb20:	4770      	bx	lr
    switch (clk_src) {
1000eb22:	b152      	cbz	r2, 1000eb3a <SystemCoreClockUpdate+0x4e>
        base_freq = IPO_FREQ;
1000eb24:	4908      	ldr	r1, [pc, #32]	@ (1000eb48 <SystemCoreClockUpdate+0x5c>)
1000eb26:	f247 5330 	movw	r3, #30000	@ 0x7530
1000eb2a:	f5b2 6fc0 	cmp.w	r2, #1536	@ 0x600
1000eb2e:	bf18      	it	ne
1000eb30:	460b      	movne	r3, r1
1000eb32:	e7ed      	b.n	1000eb10 <SystemCoreClockUpdate+0x24>
        base_freq = ERTCO_FREQ;
1000eb34:	f44f 4300 	mov.w	r3, #32768	@ 0x8000
1000eb38:	e7ea      	b.n	1000eb10 <SystemCoreClockUpdate+0x24>
        base_freq = ISO_FREQ;
1000eb3a:	4b05      	ldr	r3, [pc, #20]	@ (1000eb50 <SystemCoreClockUpdate+0x64>)
1000eb3c:	e7e8      	b.n	1000eb10 <SystemCoreClockUpdate+0x24>
        base_freq = IBRO_FREQ;
1000eb3e:	f44f 03e1 	mov.w	r3, #7372800	@ 0x708000
1000eb42:	e7e5      	b.n	1000eb10 <SystemCoreClockUpdate+0x24>
1000eb44:	047868c0 	.word	0x047868c0
1000eb48:	05f5e100 	.word	0x05f5e100
1000eb4c:	20001340 	.word	0x20001340
1000eb50:	03938700 	.word	0x03938700

1000eb54 <PreInit>:
 */
__weak int PreInit(void)
{
    /* Do nothing */
    return 0;
}
1000eb54:	2000      	movs	r0, #0
1000eb56:	4770      	bx	lr

1000eb58 <SystemInit>:
 * You may over-ride this function in your program by defining a custom 
 *  SystemInit(), but care should be taken to reproduce the initialization
 *  steps or a non-functional system may result.
 */
__weak void SystemInit(void)
{
1000eb58:	b510      	push	{r4, lr}
    /* Configure the interrupt controller to use the application vector table in */
    /* the application space */
#if defined(__CC_ARM) || defined(__GNUC__)
    /* IAR sets the VTOR pointer incorrectly and causes stack corruption */
    SCB->VTOR = (uint32_t)__isr_vector;
1000eb5a:	4c0a      	ldr	r4, [pc, #40]	@ (1000eb84 <SystemInit+0x2c>)
1000eb5c:	4b0a      	ldr	r3, [pc, #40]	@ (1000eb88 <SystemInit+0x30>)
1000eb5e:	60a3      	str	r3, [r4, #8]
#endif /* __CC_ARM || __GNUC__ */

    /* Enable instruction cache */
    MXC_ICC_Enable(MXC_ICC0);
1000eb60:	480a      	ldr	r0, [pc, #40]	@ (1000eb8c <SystemInit+0x34>)
1000eb62:	f000 fe35 	bl	1000f7d0 <MXC_ICC_Enable>

    /* Enable FPU on Cortex-M4, which occupies coprocessor slots 10 & 11 */
    /* Grant full access, per "Table B3-24 CPACR bit assignments". */
    /* DDI0403D "ARMv7-M Architecture Reference Manual" */
    SCB->CPACR |= SCB_CPACR_CP10_Msk | SCB_CPACR_CP11_Msk;
1000eb66:	f8d4 3088 	ldr.w	r3, [r4, #136]	@ 0x88
1000eb6a:	f443 0370 	orr.w	r3, r3, #15728640	@ 0xf00000
1000eb6e:	f8c4 3088 	str.w	r3, [r4, #136]	@ 0x88
  __ASM volatile ("dsb 0xF":::"memory");
1000eb72:	f3bf 8f4f 	dsb	sy
  __ASM volatile ("isb 0xF":::"memory");
1000eb76:	f3bf 8f6f 	isb	sy
    __DSB();
    __ISB();

    SystemCoreClockUpdate();
1000eb7a:	f7ff ffb7 	bl	1000eaec <SystemCoreClockUpdate>

    Board_Init();
1000eb7e:	f7ff fdd7 	bl	1000e730 <Board_Init>
}
1000eb82:	bd10      	pop	{r4, pc}
1000eb84:	e000ed00 	.word	0xe000ed00
1000eb88:	1000e000 	.word	0x1000e000
1000eb8c:	4002a000 	.word	0x4002a000

1000eb90 <MXC_DelayInit>:
1000eb90:	b538      	push	{r3, r4, r5, lr}
1000eb92:	f04f 23e0 	mov.w	r3, #3758153728	@ 0xe000e000
1000eb96:	4918      	ldr	r1, [pc, #96]	@ (1000ebf8 <MXC_DelayInit+0x68>)
1000eb98:	699c      	ldr	r4, [r3, #24]
1000eb9a:	691a      	ldr	r2, [r3, #16]
1000eb9c:	f422 3280 	bic.w	r2, r2, #65536	@ 0x10000
1000eba0:	600a      	str	r2, [r1, #0]
1000eba2:	691a      	ldr	r2, [r3, #16]
1000eba4:	07d2      	lsls	r2, r2, #31
1000eba6:	d423      	bmi.n	1000ebf0 <MXC_DelayInit+0x60>
1000eba8:	f06f 447f 	mvn.w	r4, #4278190080	@ 0xff000000
1000ebac:	2205      	movs	r2, #5
1000ebae:	615c      	str	r4, [r3, #20]
1000ebb0:	f04f 7580 	mov.w	r5, #16777216	@ 0x1000000
1000ebb4:	619c      	str	r4, [r3, #24]
1000ebb6:	611a      	str	r2, [r3, #16]
1000ebb8:	4b10      	ldr	r3, [pc, #64]	@ (1000ebfc <MXC_DelayInit+0x6c>)
1000ebba:	4a11      	ldr	r2, [pc, #68]	@ (1000ec00 <MXC_DelayInit+0x70>)
1000ebbc:	6819      	ldr	r1, [r3, #0]
1000ebbe:	2300      	movs	r3, #0
1000ebc0:	fba0 0101 	umull	r0, r1, r0, r1
1000ebc4:	f009 fffa 	bl	10018bbc <__aeabi_uldivmod>
1000ebc8:	4b0e      	ldr	r3, [pc, #56]	@ (1000ec04 <MXC_DelayInit+0x74>)
1000ebca:	fbb0 f2f5 	udiv	r2, r0, r5
1000ebce:	fb05 0012 	mls	r0, r5, r2, r0
1000ebd2:	4284      	cmp	r4, r0
1000ebd4:	601a      	str	r2, [r3, #0]
1000ebd6:	d807      	bhi.n	1000ebe8 <MXC_DelayInit+0x58>
1000ebd8:	681a      	ldr	r2, [r3, #0]
1000ebda:	3201      	adds	r2, #1
1000ebdc:	601a      	str	r2, [r3, #0]
1000ebde:	442c      	add	r4, r5
1000ebe0:	4b09      	ldr	r3, [pc, #36]	@ (1000ec08 <MXC_DelayInit+0x78>)
1000ebe2:	1a20      	subs	r0, r4, r0
1000ebe4:	6018      	str	r0, [r3, #0]
1000ebe6:	bd38      	pop	{r3, r4, r5, pc}
1000ebe8:	4b07      	ldr	r3, [pc, #28]	@ (1000ec08 <MXC_DelayInit+0x78>)
1000ebea:	1a20      	subs	r0, r4, r0
1000ebec:	6018      	str	r0, [r3, #0]
1000ebee:	bd38      	pop	{r3, r4, r5, pc}
1000ebf0:	695d      	ldr	r5, [r3, #20]
1000ebf2:	3501      	adds	r5, #1
1000ebf4:	e7e0      	b.n	1000ebb8 <MXC_DelayInit+0x28>
1000ebf6:	bf00      	nop
1000ebf8:	20000940 	.word	0x20000940
1000ebfc:	20001340 	.word	0x20001340
1000ec00:	000f4240 	.word	0x000f4240
1000ec04:	20000034 	.word	0x20000034
1000ec08:	20000944 	.word	0x20000944

1000ec0c <MXC_DelayAsync>:
1000ec0c:	b510      	push	{r4, lr}
1000ec0e:	4c0c      	ldr	r4, [pc, #48]	@ (1000ec40 <MXC_DelayAsync+0x34>)
1000ec10:	4b0c      	ldr	r3, [pc, #48]	@ (1000ec44 <MXC_DelayAsync+0x38>)
1000ec12:	6822      	ldr	r2, [r4, #0]
1000ec14:	6019      	str	r1, [r3, #0]
1000ec16:	2a00      	cmp	r2, #0
1000ec18:	dc0f      	bgt.n	1000ec3a <MXC_DelayAsync+0x2e>
1000ec1a:	b908      	cbnz	r0, 1000ec20 <MXC_DelayAsync+0x14>
1000ec1c:	2000      	movs	r0, #0
1000ec1e:	bd10      	pop	{r4, pc}
1000ec20:	f7ff ffb6 	bl	1000eb90 <MXC_DelayInit>
1000ec24:	6823      	ldr	r3, [r4, #0]
1000ec26:	2b00      	cmp	r3, #0
1000ec28:	ddf8      	ble.n	1000ec1c <MXC_DelayAsync+0x10>
1000ec2a:	f04f 22e0 	mov.w	r2, #3758153728	@ 0xe000e000
1000ec2e:	2000      	movs	r0, #0
1000ec30:	6913      	ldr	r3, [r2, #16]
1000ec32:	f043 0302 	orr.w	r3, r3, #2
1000ec36:	6113      	str	r3, [r2, #16]
1000ec38:	bd10      	pop	{r4, pc}
1000ec3a:	f06f 0005 	mvn.w	r0, #5
1000ec3e:	bd10      	pop	{r4, pc}
1000ec40:	20000034 	.word	0x20000034
1000ec44:	2000093c 	.word	0x2000093c

1000ec48 <MXC_DelayCheck>:
1000ec48:	b5f8      	push	{r3, r4, r5, r6, r7, lr}
1000ec4a:	4c17      	ldr	r4, [pc, #92]	@ (1000eca8 <MXC_DelayCheck+0x60>)
1000ec4c:	6823      	ldr	r3, [r4, #0]
1000ec4e:	2b00      	cmp	r3, #0
1000ec50:	db1e      	blt.n	1000ec90 <MXC_DelayCheck+0x48>
1000ec52:	6826      	ldr	r6, [r4, #0]
1000ec54:	bb2e      	cbnz	r6, 1000eca2 <MXC_DelayCheck+0x5a>
1000ec56:	4b15      	ldr	r3, [pc, #84]	@ (1000ecac <MXC_DelayCheck+0x64>)
1000ec58:	f04f 25e0 	mov.w	r5, #3758153728	@ 0xe000e000
1000ec5c:	681b      	ldr	r3, [r3, #0]
1000ec5e:	69aa      	ldr	r2, [r5, #24]
1000ec60:	429a      	cmp	r2, r3
1000ec62:	d81e      	bhi.n	1000eca2 <MXC_DelayCheck+0x5a>
1000ec64:	4f12      	ldr	r7, [pc, #72]	@ (1000ecb0 <MXC_DelayCheck+0x68>)
1000ec66:	683b      	ldr	r3, [r7, #0]
1000ec68:	b15b      	cbz	r3, 1000ec82 <MXC_DelayCheck+0x3a>
1000ec6a:	f06f 000f 	mvn.w	r0, #15
1000ec6e:	4798      	blx	r3
1000ec70:	4b10      	ldr	r3, [pc, #64]	@ (1000ecb4 <MXC_DelayCheck+0x6c>)
1000ec72:	603e      	str	r6, [r7, #0]
1000ec74:	681a      	ldr	r2, [r3, #0]
1000ec76:	612a      	str	r2, [r5, #16]
1000ec78:	f04f 33ff 	mov.w	r3, #4294967295	@ 0xffffffff
1000ec7c:	6023      	str	r3, [r4, #0]
1000ec7e:	2000      	movs	r0, #0
1000ec80:	bdf8      	pop	{r3, r4, r5, r6, r7, pc}
1000ec82:	4a0c      	ldr	r2, [pc, #48]	@ (1000ecb4 <MXC_DelayCheck+0x6c>)
1000ec84:	f04f 33ff 	mov.w	r3, #4294967295	@ 0xffffffff
1000ec88:	6812      	ldr	r2, [r2, #0]
1000ec8a:	612a      	str	r2, [r5, #16]
1000ec8c:	6023      	str	r3, [r4, #0]
1000ec8e:	e7f6      	b.n	1000ec7e <MXC_DelayCheck+0x36>
1000ec90:	4c07      	ldr	r4, [pc, #28]	@ (1000ecb0 <MXC_DelayCheck+0x68>)
1000ec92:	6823      	ldr	r3, [r4, #0]
1000ec94:	2b00      	cmp	r3, #0
1000ec96:	d0f2      	beq.n	1000ec7e <MXC_DelayCheck+0x36>
1000ec98:	2000      	movs	r0, #0
1000ec9a:	4798      	blx	r3
1000ec9c:	2000      	movs	r0, #0
1000ec9e:	6020      	str	r0, [r4, #0]
1000eca0:	bdf8      	pop	{r3, r4, r5, r6, r7, pc}
1000eca2:	f06f 0005 	mvn.w	r0, #5
1000eca6:	bdf8      	pop	{r3, r4, r5, r6, r7, pc}
1000eca8:	20000034 	.word	0x20000034
1000ecac:	20000944 	.word	0x20000944
1000ecb0:	2000093c 	.word	0x2000093c
1000ecb4:	20000940 	.word	0x20000940

1000ecb8 <MXC_DelayAbort>:
1000ecb8:	b510      	push	{r4, lr}
1000ecba:	4c09      	ldr	r4, [pc, #36]	@ (1000ece0 <MXC_DelayAbort+0x28>)
1000ecbc:	6823      	ldr	r3, [r4, #0]
1000ecbe:	b123      	cbz	r3, 1000ecca <MXC_DelayAbort+0x12>
1000ecc0:	f06f 000f 	mvn.w	r0, #15
1000ecc4:	4798      	blx	r3
1000ecc6:	2300      	movs	r3, #0
1000ecc8:	6023      	str	r3, [r4, #0]
1000ecca:	4a06      	ldr	r2, [pc, #24]	@ (1000ece4 <MXC_DelayAbort+0x2c>)
1000eccc:	4b06      	ldr	r3, [pc, #24]	@ (1000ece8 <MXC_DelayAbort+0x30>)
1000ecce:	6810      	ldr	r0, [r2, #0]
1000ecd0:	f04f 21e0 	mov.w	r1, #3758153728	@ 0xe000e000
1000ecd4:	f04f 32ff 	mov.w	r2, #4294967295	@ 0xffffffff
1000ecd8:	6108      	str	r0, [r1, #16]
1000ecda:	601a      	str	r2, [r3, #0]
1000ecdc:	bd10      	pop	{r4, pc}
1000ecde:	bf00      	nop
1000ece0:	2000093c 	.word	0x2000093c
1000ece4:	20000940 	.word	0x20000940
1000ece8:	20000034 	.word	0x20000034

1000ecec <MXC_Delay>:
1000ecec:	b538      	push	{r3, r4, r5, lr}
1000ecee:	4c18      	ldr	r4, [pc, #96]	@ (1000ed50 <MXC_Delay+0x64>)
1000ecf0:	6822      	ldr	r2, [r4, #0]
1000ecf2:	2a00      	cmp	r2, #0
1000ecf4:	dc29      	bgt.n	1000ed4a <MXC_Delay+0x5e>
1000ecf6:	b900      	cbnz	r0, 1000ecfa <MXC_Delay+0xe>
1000ecf8:	bd38      	pop	{r3, r4, r5, pc}
1000ecfa:	f7ff ff49 	bl	1000eb90 <MXC_DelayInit>
1000ecfe:	f04f 22e0 	mov.w	r2, #3758153728	@ 0xe000e000
1000ed02:	e002      	b.n	1000ed0a <MXC_Delay+0x1e>
1000ed04:	6913      	ldr	r3, [r2, #16]
1000ed06:	03db      	lsls	r3, r3, #15
1000ed08:	d41b      	bmi.n	1000ed42 <MXC_Delay+0x56>
1000ed0a:	6823      	ldr	r3, [r4, #0]
1000ed0c:	2b00      	cmp	r3, #0
1000ed0e:	dcf9      	bgt.n	1000ed04 <MXC_Delay+0x18>
1000ed10:	4b10      	ldr	r3, [pc, #64]	@ (1000ed54 <MXC_Delay+0x68>)
1000ed12:	681a      	ldr	r2, [r3, #0]
1000ed14:	f04f 21e0 	mov.w	r1, #3758153728	@ 0xe000e000
1000ed18:	698b      	ldr	r3, [r1, #24]
1000ed1a:	4293      	cmp	r3, r2
1000ed1c:	d8fc      	bhi.n	1000ed18 <MXC_Delay+0x2c>
1000ed1e:	4d0e      	ldr	r5, [pc, #56]	@ (1000ed58 <MXC_Delay+0x6c>)
1000ed20:	682b      	ldr	r3, [r5, #0]
1000ed22:	b123      	cbz	r3, 1000ed2e <MXC_Delay+0x42>
1000ed24:	f06f 000f 	mvn.w	r0, #15
1000ed28:	4798      	blx	r3
1000ed2a:	2300      	movs	r3, #0
1000ed2c:	602b      	str	r3, [r5, #0]
1000ed2e:	4b0b      	ldr	r3, [pc, #44]	@ (1000ed5c <MXC_Delay+0x70>)
1000ed30:	f04f 22e0 	mov.w	r2, #3758153728	@ 0xe000e000
1000ed34:	6819      	ldr	r1, [r3, #0]
1000ed36:	6111      	str	r1, [r2, #16]
1000ed38:	f04f 33ff 	mov.w	r3, #4294967295	@ 0xffffffff
1000ed3c:	2000      	movs	r0, #0
1000ed3e:	6023      	str	r3, [r4, #0]
1000ed40:	bd38      	pop	{r3, r4, r5, pc}
1000ed42:	6823      	ldr	r3, [r4, #0]
1000ed44:	3b01      	subs	r3, #1
1000ed46:	6023      	str	r3, [r4, #0]
1000ed48:	e7df      	b.n	1000ed0a <MXC_Delay+0x1e>
1000ed4a:	f06f 0005 	mvn.w	r0, #5
1000ed4e:	bd38      	pop	{r3, r4, r5, pc}
1000ed50:	20000034 	.word	0x20000034
1000ed54:	20000944 	.word	0x20000944
1000ed58:	2000093c 	.word	0x2000093c
1000ed5c:	20000940 	.word	0x20000940

1000ed60 <MXC_NVIC_SetVector>:
1000ed60:	b5f8      	push	{r3, r4, r5, r6, r7, lr}
1000ed62:	4e0f      	ldr	r6, [pc, #60]	@ (1000eda0 <MXC_NVIC_SetVector+0x40>)
1000ed64:	4b0f      	ldr	r3, [pc, #60]	@ (1000eda4 <MXC_NVIC_SetVector+0x44>)
1000ed66:	68b2      	ldr	r2, [r6, #8]
1000ed68:	429a      	cmp	r2, r3
1000ed6a:	4604      	mov	r4, r0
1000ed6c:	460d      	mov	r5, r1
1000ed6e:	f100 0710 	add.w	r7, r0, #16
1000ed72:	d007      	beq.n	1000ed84 <MXC_NVIC_SetVector+0x24>
1000ed74:	4618      	mov	r0, r3
1000ed76:	490c      	ldr	r1, [pc, #48]	@ (1000eda8 <MXC_NVIC_SetVector+0x48>)
1000ed78:	f44f 72f0 	mov.w	r2, #480	@ 0x1e0
1000ed7c:	f005 fa98 	bl	100142b0 <memcpy>
1000ed80:	4603      	mov	r3, r0
1000ed82:	60b0      	str	r0, [r6, #8]
1000ed84:	2c00      	cmp	r4, #0
1000ed86:	f843 5027 	str.w	r5, [r3, r7, lsl #2]
1000ed8a:	db08      	blt.n	1000ed9e <MXC_NVIC_SetVector+0x3e>
1000ed8c:	4b07      	ldr	r3, [pc, #28]	@ (1000edac <MXC_NVIC_SetVector+0x4c>)
1000ed8e:	0962      	lsrs	r2, r4, #5
1000ed90:	2001      	movs	r0, #1
1000ed92:	f004 041f 	and.w	r4, r4, #31
1000ed96:	fa00 f404 	lsl.w	r4, r0, r4
1000ed9a:	f843 4022 	str.w	r4, [r3, r2, lsl #2]
1000ed9e:	bdf8      	pop	{r3, r4, r5, r6, r7, pc}
1000eda0:	e000ed00 	.word	0xe000ed00
1000eda4:	20000a00 	.word	0x20000a00
1000eda8:	1000e000 	.word	0x1000e000
1000edac:	e000e100 	.word	0xe000e100

1000edb0 <MXC_SYS_ClockDisable>:
1000edb0:	283f      	cmp	r0, #63	@ 0x3f
1000edb2:	d909      	bls.n	1000edc8 <MXC_SYS_ClockDisable+0x18>
1000edb4:	4a0e      	ldr	r2, [pc, #56]	@ (1000edf0 <MXC_SYS_ClockDisable+0x40>)
1000edb6:	3840      	subs	r0, #64	@ 0x40
1000edb8:	68d1      	ldr	r1, [r2, #12]
1000edba:	b2c0      	uxtb	r0, r0
1000edbc:	2301      	movs	r3, #1
1000edbe:	fa03 f000 	lsl.w	r0, r3, r0
1000edc2:	4308      	orrs	r0, r1
1000edc4:	60d0      	str	r0, [r2, #12]
1000edc6:	4770      	bx	lr
1000edc8:	281f      	cmp	r0, #31
1000edca:	f04f 4280 	mov.w	r2, #1073741824	@ 0x40000000
1000edce:	d908      	bls.n	1000ede2 <MXC_SYS_ClockDisable+0x32>
1000edd0:	3820      	subs	r0, #32
1000edd2:	6c91      	ldr	r1, [r2, #72]	@ 0x48
1000edd4:	b2c0      	uxtb	r0, r0
1000edd6:	2301      	movs	r3, #1
1000edd8:	fa03 f000 	lsl.w	r0, r3, r0
1000eddc:	4308      	orrs	r0, r1
1000edde:	6490      	str	r0, [r2, #72]	@ 0x48
1000ede0:	4770      	bx	lr
1000ede2:	6a51      	ldr	r1, [r2, #36]	@ 0x24
1000ede4:	2301      	movs	r3, #1
1000ede6:	fa03 f000 	lsl.w	r0, r3, r0
1000edea:	4308      	orrs	r0, r1
1000edec:	6250      	str	r0, [r2, #36]	@ 0x24
1000edee:	4770      	bx	lr
1000edf0:	40080000 	.word	0x40080000

1000edf4 <MXC_SYS_ClockEnable>:
1000edf4:	283f      	cmp	r0, #63	@ 0x3f
1000edf6:	d90a      	bls.n	1000ee0e <MXC_SYS_ClockEnable+0x1a>
1000edf8:	4910      	ldr	r1, [pc, #64]	@ (1000ee3c <MXC_SYS_ClockEnable+0x48>)
1000edfa:	3840      	subs	r0, #64	@ 0x40
1000edfc:	68cb      	ldr	r3, [r1, #12]
1000edfe:	b2c0      	uxtb	r0, r0
1000ee00:	2201      	movs	r2, #1
1000ee02:	fa02 f000 	lsl.w	r0, r2, r0
1000ee06:	ea23 0000 	bic.w	r0, r3, r0
1000ee0a:	60c8      	str	r0, [r1, #12]
1000ee0c:	4770      	bx	lr
1000ee0e:	281f      	cmp	r0, #31
1000ee10:	f04f 4180 	mov.w	r1, #1073741824	@ 0x40000000
1000ee14:	d909      	bls.n	1000ee2a <MXC_SYS_ClockEnable+0x36>
1000ee16:	3820      	subs	r0, #32
1000ee18:	6c8b      	ldr	r3, [r1, #72]	@ 0x48
1000ee1a:	b2c0      	uxtb	r0, r0
1000ee1c:	2201      	movs	r2, #1
1000ee1e:	fa02 f000 	lsl.w	r0, r2, r0
1000ee22:	ea23 0000 	bic.w	r0, r3, r0
1000ee26:	6488      	str	r0, [r1, #72]	@ 0x48
1000ee28:	4770      	bx	lr
1000ee2a:	6a4b      	ldr	r3, [r1, #36]	@ 0x24
1000ee2c:	2201      	movs	r2, #1
1000ee2e:	fa02 f000 	lsl.w	r0, r2, r0
1000ee32:	ea23 0000 	bic.w	r0, r3, r0
1000ee36:	6248      	str	r0, [r1, #36]	@ 0x24
1000ee38:	4770      	bx	lr
1000ee3a:	bf00      	nop
1000ee3c:	40080000 	.word	0x40080000

1000ee40 <MXC_SYS_ClockSourceEnable>:
1000ee40:	b510      	push	{r4, lr}
1000ee42:	2807      	cmp	r0, #7
1000ee44:	d80a      	bhi.n	1000ee5c <MXC_SYS_ClockSourceEnable+0x1c>
1000ee46:	e8df f000 	tbb	[pc, r0]
1000ee4a:	090c      	.short	0x090c
1000ee4c:	47332309 	.word	0x47332309
1000ee50:	045b      	.short	0x045b
1000ee52:	e8bd 4010 	ldmia.w	sp!, {r4, lr}
1000ee56:	4836      	ldr	r0, [pc, #216]	@ (1000ef30 <MXC_SYS_ClockSourceEnable+0xf0>)
1000ee58:	f000 b8b4 	b.w	1000efc4 <MXC_GPIO_Config>
1000ee5c:	f06f 0002 	mvn.w	r0, #2
1000ee60:	bd10      	pop	{r4, pc}
1000ee62:	f04f 4480 	mov.w	r4, #1073741824	@ 0x40000000
1000ee66:	2100      	movs	r1, #0
1000ee68:	68a3      	ldr	r3, [r4, #8]
1000ee6a:	f443 2380 	orr.w	r3, r3, #262144	@ 0x40000
1000ee6e:	60a3      	str	r3, [r4, #8]
1000ee70:	f44f 707a 	mov.w	r0, #1000	@ 0x3e8
1000ee74:	f7ff feca 	bl	1000ec0c <MXC_DelayAsync>
1000ee78:	e003      	b.n	1000ee82 <MXC_SYS_ClockSourceEnable+0x42>
1000ee7a:	f7ff fee5 	bl	1000ec48 <MXC_DelayCheck>
1000ee7e:	3006      	adds	r0, #6
1000ee80:	d152      	bne.n	1000ef28 <MXC_SYS_ClockSourceEnable+0xe8>
1000ee82:	68a3      	ldr	r3, [r4, #8]
1000ee84:	0159      	lsls	r1, r3, #5
1000ee86:	d5f8      	bpl.n	1000ee7a <MXC_SYS_ClockSourceEnable+0x3a>
1000ee88:	f7ff ff16 	bl	1000ecb8 <MXC_DelayAbort>
1000ee8c:	2000      	movs	r0, #0
1000ee8e:	bd10      	pop	{r4, pc}
1000ee90:	2100      	movs	r1, #0
1000ee92:	f44f 707a 	mov.w	r0, #1000	@ 0x3e8
1000ee96:	f7ff feb9 	bl	1000ec0c <MXC_DelayAsync>
1000ee9a:	f04f 4480 	mov.w	r4, #1073741824	@ 0x40000000
1000ee9e:	e003      	b.n	1000eea8 <MXC_SYS_ClockSourceEnable+0x68>
1000eea0:	f7ff fed2 	bl	1000ec48 <MXC_DelayCheck>
1000eea4:	3006      	adds	r0, #6
1000eea6:	d13f      	bne.n	1000ef28 <MXC_SYS_ClockSourceEnable+0xe8>
1000eea8:	68a3      	ldr	r3, [r4, #8]
1000eeaa:	009a      	lsls	r2, r3, #2
1000eeac:	d4ec      	bmi.n	1000ee88 <MXC_SYS_ClockSourceEnable+0x48>
1000eeae:	e7f7      	b.n	1000eea0 <MXC_SYS_ClockSourceEnable+0x60>
1000eeb0:	f04f 4480 	mov.w	r4, #1073741824	@ 0x40000000
1000eeb4:	2100      	movs	r1, #0
1000eeb6:	68a3      	ldr	r3, [r4, #8]
1000eeb8:	f443 2300 	orr.w	r3, r3, #524288	@ 0x80000
1000eebc:	60a3      	str	r3, [r4, #8]
1000eebe:	f44f 707a 	mov.w	r0, #1000	@ 0x3e8
1000eec2:	f7ff fea3 	bl	1000ec0c <MXC_DelayAsync>
1000eec6:	e003      	b.n	1000eed0 <MXC_SYS_ClockSourceEnable+0x90>
1000eec8:	f7ff febe 	bl	1000ec48 <MXC_DelayCheck>
1000eecc:	3006      	adds	r0, #6
1000eece:	d12b      	bne.n	1000ef28 <MXC_SYS_ClockSourceEnable+0xe8>
1000eed0:	68a3      	ldr	r3, [r4, #8]
1000eed2:	011b      	lsls	r3, r3, #4
1000eed4:	d5f8      	bpl.n	1000eec8 <MXC_SYS_ClockSourceEnable+0x88>
1000eed6:	e7d7      	b.n	1000ee88 <MXC_SYS_ClockSourceEnable+0x48>
1000eed8:	f04f 4480 	mov.w	r4, #1073741824	@ 0x40000000
1000eedc:	2100      	movs	r1, #0
1000eede:	68a3      	ldr	r3, [r4, #8]
1000eee0:	f443 1380 	orr.w	r3, r3, #1048576	@ 0x100000
1000eee4:	60a3      	str	r3, [r4, #8]
1000eee6:	f44f 707a 	mov.w	r0, #1000	@ 0x3e8
1000eeea:	f7ff fe8f 	bl	1000ec0c <MXC_DelayAsync>
1000eeee:	e003      	b.n	1000eef8 <MXC_SYS_ClockSourceEnable+0xb8>
1000eef0:	f7ff feaa 	bl	1000ec48 <MXC_DelayCheck>
1000eef4:	3006      	adds	r0, #6
1000eef6:	d117      	bne.n	1000ef28 <MXC_SYS_ClockSourceEnable+0xe8>
1000eef8:	68a3      	ldr	r3, [r4, #8]
1000eefa:	00d8      	lsls	r0, r3, #3
1000eefc:	d4c4      	bmi.n	1000ee88 <MXC_SYS_ClockSourceEnable+0x48>
1000eefe:	e7f7      	b.n	1000eef0 <MXC_SYS_ClockSourceEnable+0xb0>
1000ef00:	f04f 4480 	mov.w	r4, #1073741824	@ 0x40000000
1000ef04:	2100      	movs	r1, #0
1000ef06:	68a3      	ldr	r3, [r4, #8]
1000ef08:	f443 3300 	orr.w	r3, r3, #131072	@ 0x20000
1000ef0c:	60a3      	str	r3, [r4, #8]
1000ef0e:	f44f 707a 	mov.w	r0, #1000	@ 0x3e8
1000ef12:	f7ff fe7b 	bl	1000ec0c <MXC_DelayAsync>
1000ef16:	e003      	b.n	1000ef20 <MXC_SYS_ClockSourceEnable+0xe0>
1000ef18:	f7ff fe96 	bl	1000ec48 <MXC_DelayCheck>
1000ef1c:	3006      	adds	r0, #6
1000ef1e:	d103      	bne.n	1000ef28 <MXC_SYS_ClockSourceEnable+0xe8>
1000ef20:	68a3      	ldr	r3, [r4, #8]
1000ef22:	019b      	lsls	r3, r3, #6
1000ef24:	d4b0      	bmi.n	1000ee88 <MXC_SYS_ClockSourceEnable+0x48>
1000ef26:	e7f7      	b.n	1000ef18 <MXC_SYS_ClockSourceEnable+0xd8>
1000ef28:	f06f 0009 	mvn.w	r0, #9
1000ef2c:	bd10      	pop	{r4, pc}
1000ef2e:	bf00      	nop
1000ef30:	10019184 	.word	0x10019184

1000ef34 <MXC_SYS_Reset_Periph>:
1000ef34:	283f      	cmp	r0, #63	@ 0x3f
1000ef36:	d90a      	bls.n	1000ef4e <MXC_SYS_Reset_Periph+0x1a>
1000ef38:	3840      	subs	r0, #64	@ 0x40
1000ef3a:	4a11      	ldr	r2, [pc, #68]	@ (1000ef80 <MXC_SYS_Reset_Periph+0x4c>)
1000ef3c:	b2c0      	uxtb	r0, r0
1000ef3e:	2301      	movs	r3, #1
1000ef40:	fa03 f000 	lsl.w	r0, r3, r0
1000ef44:	6090      	str	r0, [r2, #8]
1000ef46:	6893      	ldr	r3, [r2, #8]
1000ef48:	4218      	tst	r0, r3
1000ef4a:	d1fc      	bne.n	1000ef46 <MXC_SYS_Reset_Periph+0x12>
1000ef4c:	4770      	bx	lr
1000ef4e:	281f      	cmp	r0, #31
1000ef50:	d90b      	bls.n	1000ef6a <MXC_SYS_Reset_Periph+0x36>
1000ef52:	3820      	subs	r0, #32
1000ef54:	b2c0      	uxtb	r0, r0
1000ef56:	2301      	movs	r3, #1
1000ef58:	f04f 4280 	mov.w	r2, #1073741824	@ 0x40000000
1000ef5c:	fa03 f000 	lsl.w	r0, r3, r0
1000ef60:	6450      	str	r0, [r2, #68]	@ 0x44
1000ef62:	6c53      	ldr	r3, [r2, #68]	@ 0x44
1000ef64:	4218      	tst	r0, r3
1000ef66:	d1fc      	bne.n	1000ef62 <MXC_SYS_Reset_Periph+0x2e>
1000ef68:	4770      	bx	lr
1000ef6a:	2301      	movs	r3, #1
1000ef6c:	f04f 4280 	mov.w	r2, #1073741824	@ 0x40000000
1000ef70:	fa03 f000 	lsl.w	r0, r3, r0
1000ef74:	6050      	str	r0, [r2, #4]
1000ef76:	6853      	ldr	r3, [r2, #4]
1000ef78:	4218      	tst	r0, r3
1000ef7a:	d1fc      	bne.n	1000ef76 <MXC_SYS_Reset_Periph+0x42>
1000ef7c:	4770      	bx	lr
1000ef7e:	bf00      	nop
1000ef80:	40080000 	.word	0x40080000

1000ef84 <MXC_GPIO_Init>:
1000ef84:	07c1      	lsls	r1, r0, #31
1000ef86:	b510      	push	{r4, lr}
1000ef88:	4604      	mov	r4, r0
1000ef8a:	d408      	bmi.n	1000ef9e <MXC_GPIO_Init+0x1a>
1000ef8c:	07a2      	lsls	r2, r4, #30
1000ef8e:	d40b      	bmi.n	1000efa8 <MXC_GPIO_Init+0x24>
1000ef90:	0763      	lsls	r3, r4, #29
1000ef92:	d40e      	bmi.n	1000efb2 <MXC_GPIO_Init+0x2e>
1000ef94:	4620      	mov	r0, r4
1000ef96:	e8bd 4010 	ldmia.w	sp!, {r4, lr}
1000ef9a:	f000 bf4d 	b.w	1000fe38 <MXC_GPIO_Common_Init>
1000ef9e:	2000      	movs	r0, #0
1000efa0:	f7ff ff28 	bl	1000edf4 <MXC_SYS_ClockEnable>
1000efa4:	07a2      	lsls	r2, r4, #30
1000efa6:	d5f3      	bpl.n	1000ef90 <MXC_GPIO_Init+0xc>
1000efa8:	2001      	movs	r0, #1
1000efaa:	f7ff ff23 	bl	1000edf4 <MXC_SYS_ClockEnable>
1000efae:	0763      	lsls	r3, r4, #29
1000efb0:	d5f0      	bpl.n	1000ef94 <MXC_GPIO_Init+0x10>
1000efb2:	2040      	movs	r0, #64	@ 0x40
1000efb4:	f7ff ff1e 	bl	1000edf4 <MXC_SYS_ClockEnable>
1000efb8:	4620      	mov	r0, r4
1000efba:	e8bd 4010 	ldmia.w	sp!, {r4, lr}
1000efbe:	f000 bf3b 	b.w	1000fe38 <MXC_GPIO_Common_Init>
1000efc2:	bf00      	nop

1000efc4 <MXC_GPIO_Config>:
1000efc4:	b538      	push	{r3, r4, r5, lr}
1000efc6:	4b7a      	ldr	r3, [pc, #488]	@ (1000f1b0 <MXC_GPIO_Config+0x1ec>)
1000efc8:	6805      	ldr	r5, [r0, #0]
1000efca:	429d      	cmp	r5, r3
1000efcc:	4604      	mov	r4, r0
1000efce:	d059      	beq.n	1000f084 <MXC_GPIO_Config+0xc0>
1000efd0:	f503 5380 	add.w	r3, r3, #4096	@ 0x1000
1000efd4:	429d      	cmp	r5, r3
1000efd6:	d01c      	beq.n	1000f012 <MXC_GPIO_Config+0x4e>
1000efd8:	f503 23ee 	add.w	r3, r3, #487424	@ 0x77000
1000efdc:	f503 6380 	add.w	r3, r3, #1024	@ 0x400
1000efe0:	429d      	cmp	r5, r3
1000efe2:	f000 80a6 	beq.w	1000f132 <MXC_GPIO_Config+0x16e>
1000efe6:	f503 7300 	add.w	r3, r3, #512	@ 0x200
1000efea:	429d      	cmp	r5, r3
1000efec:	d013      	beq.n	1000f016 <MXC_GPIO_Config+0x52>
1000efee:	2000      	movs	r0, #0
1000eff0:	f7ff ffc8 	bl	1000ef84 <MXC_GPIO_Init>
1000eff4:	6862      	ldr	r2, [r4, #4]
1000eff6:	7a21      	ldrb	r1, [r4, #8]
1000eff8:	4628      	mov	r0, r5
1000effa:	f000 f937 	bl	1000f26c <MXC_GPIO_RevA_SetAF>
1000effe:	b9a0      	cbnz	r0, 1000f02a <MXC_GPIO_Config+0x66>
1000f000:	7a63      	ldrb	r3, [r4, #9]
1000f002:	2b04      	cmp	r3, #4
1000f004:	f200 80d1 	bhi.w	1000f1aa <MXC_GPIO_Config+0x1e6>
1000f008:	e8df f003 	tbb	[pc, r3]
1000f00c:	5e6d7b89 	.word	0x5e6d7b89
1000f010:	4a          	.byte	0x4a
1000f011:	00          	.byte	0x00
1000f012:	2002      	movs	r0, #2
1000f014:	e7ec      	b.n	1000eff0 <MXC_GPIO_Config+0x2c>
1000f016:	6840      	ldr	r0, [r0, #4]
1000f018:	07c3      	lsls	r3, r0, #31
1000f01a:	d519      	bpl.n	1000f050 <MXC_GPIO_Config+0x8c>
1000f01c:	7a23      	ldrb	r3, [r4, #8]
1000f01e:	2b00      	cmp	r3, #0
1000f020:	d032      	beq.n	1000f088 <MXC_GPIO_Config+0xc4>
1000f022:	2b01      	cmp	r3, #1
1000f024:	d002      	beq.n	1000f02c <MXC_GPIO_Config+0x68>
1000f026:	f06f 0010 	mvn.w	r0, #16
1000f02a:	bd38      	pop	{r3, r4, r5, pc}
1000f02c:	4a61      	ldr	r2, [pc, #388]	@ (1000f1b4 <MXC_GPIO_Config+0x1f0>)
1000f02e:	6a13      	ldr	r3, [r2, #32]
1000f030:	f043 0302 	orr.w	r3, r3, #2
1000f034:	6213      	str	r3, [r2, #32]
1000f036:	7a63      	ldrb	r3, [r4, #9]
1000f038:	2b01      	cmp	r3, #1
1000f03a:	d07c      	beq.n	1000f136 <MXC_GPIO_Config+0x172>
1000f03c:	2b02      	cmp	r3, #2
1000f03e:	f000 8088 	beq.w	1000f152 <MXC_GPIO_Config+0x18e>
1000f042:	2b00      	cmp	r3, #0
1000f044:	d1ef      	bne.n	1000f026 <MXC_GPIO_Config+0x62>
1000f046:	4a5b      	ldr	r2, [pc, #364]	@ (1000f1b4 <MXC_GPIO_Config+0x1f0>)
1000f048:	6a13      	ldr	r3, [r2, #32]
1000f04a:	f043 0304 	orr.w	r3, r3, #4
1000f04e:	6213      	str	r3, [r2, #32]
1000f050:	f010 0002 	ands.w	r0, r0, #2
1000f054:	d0e9      	beq.n	1000f02a <MXC_GPIO_Config+0x66>
1000f056:	7a23      	ldrb	r3, [r4, #8]
1000f058:	b1e3      	cbz	r3, 1000f094 <MXC_GPIO_Config+0xd0>
1000f05a:	2b01      	cmp	r3, #1
1000f05c:	d1e3      	bne.n	1000f026 <MXC_GPIO_Config+0x62>
1000f05e:	4a55      	ldr	r2, [pc, #340]	@ (1000f1b4 <MXC_GPIO_Config+0x1f0>)
1000f060:	6a13      	ldr	r3, [r2, #32]
1000f062:	f043 0320 	orr.w	r3, r3, #32
1000f066:	6213      	str	r3, [r2, #32]
1000f068:	7a60      	ldrb	r0, [r4, #9]
1000f06a:	2801      	cmp	r0, #1
1000f06c:	d07f      	beq.n	1000f16e <MXC_GPIO_Config+0x1aa>
1000f06e:	2802      	cmp	r0, #2
1000f070:	f000 808c 	beq.w	1000f18c <MXC_GPIO_Config+0x1c8>
1000f074:	2800      	cmp	r0, #0
1000f076:	d1d6      	bne.n	1000f026 <MXC_GPIO_Config+0x62>
1000f078:	4a4e      	ldr	r2, [pc, #312]	@ (1000f1b4 <MXC_GPIO_Config+0x1f0>)
1000f07a:	6a13      	ldr	r3, [r2, #32]
1000f07c:	f043 0340 	orr.w	r3, r3, #64	@ 0x40
1000f080:	6213      	str	r3, [r2, #32]
1000f082:	bd38      	pop	{r3, r4, r5, pc}
1000f084:	2001      	movs	r0, #1
1000f086:	e7b3      	b.n	1000eff0 <MXC_GPIO_Config+0x2c>
1000f088:	4a4a      	ldr	r2, [pc, #296]	@ (1000f1b4 <MXC_GPIO_Config+0x1f0>)
1000f08a:	6a13      	ldr	r3, [r2, #32]
1000f08c:	f023 0302 	bic.w	r3, r3, #2
1000f090:	6213      	str	r3, [r2, #32]
1000f092:	e7d0      	b.n	1000f036 <MXC_GPIO_Config+0x72>
1000f094:	4a47      	ldr	r2, [pc, #284]	@ (1000f1b4 <MXC_GPIO_Config+0x1f0>)
1000f096:	6a13      	ldr	r3, [r2, #32]
1000f098:	f023 0320 	bic.w	r3, r3, #32
1000f09c:	6213      	str	r3, [r2, #32]
1000f09e:	e7e3      	b.n	1000f068 <MXC_GPIO_Config+0xa4>
1000f0a0:	6e2b      	ldr	r3, [r5, #96]	@ 0x60
1000f0a2:	6862      	ldr	r2, [r4, #4]
1000f0a4:	ea23 0302 	bic.w	r3, r3, r2
1000f0a8:	662b      	str	r3, [r5, #96]	@ 0x60
1000f0aa:	6e6b      	ldr	r3, [r5, #100]	@ 0x64
1000f0ac:	4313      	orrs	r3, r2
1000f0ae:	666b      	str	r3, [r5, #100]	@ 0x64
1000f0b0:	f8d5 30b8 	ldr.w	r3, [r5, #184]	@ 0xb8
1000f0b4:	ea23 0302 	bic.w	r3, r3, r2
1000f0b8:	f8c5 30b8 	str.w	r3, [r5, #184]	@ 0xb8
1000f0bc:	7aa1      	ldrb	r1, [r4, #10]
1000f0be:	4628      	mov	r0, r5
1000f0c0:	e8bd 4038 	ldmia.w	sp!, {r3, r4, r5, lr}
1000f0c4:	f000 b8ba 	b.w	1000f23c <MXC_GPIO_RevA_SetVSSEL>
1000f0c8:	6e2b      	ldr	r3, [r5, #96]	@ 0x60
1000f0ca:	6862      	ldr	r2, [r4, #4]
1000f0cc:	4313      	orrs	r3, r2
1000f0ce:	662b      	str	r3, [r5, #96]	@ 0x60
1000f0d0:	6e6b      	ldr	r3, [r5, #100]	@ 0x64
1000f0d2:	ea23 0302 	bic.w	r3, r3, r2
1000f0d6:	666b      	str	r3, [r5, #100]	@ 0x64
1000f0d8:	f8d5 30b8 	ldr.w	r3, [r5, #184]	@ 0xb8
1000f0dc:	ea23 0302 	bic.w	r3, r3, r2
1000f0e0:	f8c5 30b8 	str.w	r3, [r5, #184]	@ 0xb8
1000f0e4:	e7ea      	b.n	1000f0bc <MXC_GPIO_Config+0xf8>
1000f0e6:	6e2b      	ldr	r3, [r5, #96]	@ 0x60
1000f0e8:	6862      	ldr	r2, [r4, #4]
1000f0ea:	ea23 0302 	bic.w	r3, r3, r2
1000f0ee:	662b      	str	r3, [r5, #96]	@ 0x60
1000f0f0:	6e6b      	ldr	r3, [r5, #100]	@ 0x64
1000f0f2:	4313      	orrs	r3, r2
1000f0f4:	666b      	str	r3, [r5, #100]	@ 0x64
1000f0f6:	f8d5 30b8 	ldr.w	r3, [r5, #184]	@ 0xb8
1000f0fa:	4313      	orrs	r3, r2
1000f0fc:	f8c5 30b8 	str.w	r3, [r5, #184]	@ 0xb8
1000f100:	e7dc      	b.n	1000f0bc <MXC_GPIO_Config+0xf8>
1000f102:	6e2b      	ldr	r3, [r5, #96]	@ 0x60
1000f104:	6862      	ldr	r2, [r4, #4]
1000f106:	4313      	orrs	r3, r2
1000f108:	662b      	str	r3, [r5, #96]	@ 0x60
1000f10a:	6e6b      	ldr	r3, [r5, #100]	@ 0x64
1000f10c:	ea23 0302 	bic.w	r3, r3, r2
1000f110:	666b      	str	r3, [r5, #100]	@ 0x64
1000f112:	f8d5 30b8 	ldr.w	r3, [r5, #184]	@ 0xb8
1000f116:	4313      	orrs	r3, r2
1000f118:	f8c5 30b8 	str.w	r3, [r5, #184]	@ 0xb8
1000f11c:	e7ce      	b.n	1000f0bc <MXC_GPIO_Config+0xf8>
1000f11e:	6e2b      	ldr	r3, [r5, #96]	@ 0x60
1000f120:	6862      	ldr	r2, [r4, #4]
1000f122:	ea23 0302 	bic.w	r3, r3, r2
1000f126:	662b      	str	r3, [r5, #96]	@ 0x60
1000f128:	6e6b      	ldr	r3, [r5, #100]	@ 0x64
1000f12a:	ea23 0302 	bic.w	r3, r3, r2
1000f12e:	666b      	str	r3, [r5, #100]	@ 0x64
1000f130:	e7c4      	b.n	1000f0bc <MXC_GPIO_Config+0xf8>
1000f132:	2004      	movs	r0, #4
1000f134:	e75c      	b.n	1000eff0 <MXC_GPIO_Config+0x2c>
1000f136:	4b1f      	ldr	r3, [pc, #124]	@ (1000f1b4 <MXC_GPIO_Config+0x1f0>)
1000f138:	6a1a      	ldr	r2, [r3, #32]
1000f13a:	f022 0204 	bic.w	r2, r2, #4
1000f13e:	621a      	str	r2, [r3, #32]
1000f140:	6a1a      	ldr	r2, [r3, #32]
1000f142:	f022 0202 	bic.w	r2, r2, #2
1000f146:	621a      	str	r2, [r3, #32]
1000f148:	6a1a      	ldr	r2, [r3, #32]
1000f14a:	f042 0201 	orr.w	r2, r2, #1
1000f14e:	621a      	str	r2, [r3, #32]
1000f150:	e77e      	b.n	1000f050 <MXC_GPIO_Config+0x8c>
1000f152:	4b18      	ldr	r3, [pc, #96]	@ (1000f1b4 <MXC_GPIO_Config+0x1f0>)
1000f154:	6a1a      	ldr	r2, [r3, #32]
1000f156:	f022 0204 	bic.w	r2, r2, #4
1000f15a:	621a      	str	r2, [r3, #32]
1000f15c:	6a1a      	ldr	r2, [r3, #32]
1000f15e:	f022 0202 	bic.w	r2, r2, #2
1000f162:	621a      	str	r2, [r3, #32]
1000f164:	6a1a      	ldr	r2, [r3, #32]
1000f166:	f022 0201 	bic.w	r2, r2, #1
1000f16a:	621a      	str	r2, [r3, #32]
1000f16c:	e770      	b.n	1000f050 <MXC_GPIO_Config+0x8c>
1000f16e:	4b11      	ldr	r3, [pc, #68]	@ (1000f1b4 <MXC_GPIO_Config+0x1f0>)
1000f170:	6a1a      	ldr	r2, [r3, #32]
1000f172:	f022 0240 	bic.w	r2, r2, #64	@ 0x40
1000f176:	621a      	str	r2, [r3, #32]
1000f178:	6a1a      	ldr	r2, [r3, #32]
1000f17a:	f022 0220 	bic.w	r2, r2, #32
1000f17e:	621a      	str	r2, [r3, #32]
1000f180:	6a1a      	ldr	r2, [r3, #32]
1000f182:	f042 0210 	orr.w	r2, r2, #16
1000f186:	2000      	movs	r0, #0
1000f188:	621a      	str	r2, [r3, #32]
1000f18a:	bd38      	pop	{r3, r4, r5, pc}
1000f18c:	4b09      	ldr	r3, [pc, #36]	@ (1000f1b4 <MXC_GPIO_Config+0x1f0>)
1000f18e:	6a1a      	ldr	r2, [r3, #32]
1000f190:	f022 0240 	bic.w	r2, r2, #64	@ 0x40
1000f194:	621a      	str	r2, [r3, #32]
1000f196:	6a1a      	ldr	r2, [r3, #32]
1000f198:	f022 0220 	bic.w	r2, r2, #32
1000f19c:	621a      	str	r2, [r3, #32]
1000f19e:	6a1a      	ldr	r2, [r3, #32]
1000f1a0:	f022 0210 	bic.w	r2, r2, #16
1000f1a4:	2000      	movs	r0, #0
1000f1a6:	621a      	str	r2, [r3, #32]
1000f1a8:	bd38      	pop	{r3, r4, r5, pc}
1000f1aa:	f06f 0002 	mvn.w	r0, #2
1000f1ae:	bd38      	pop	{r3, r4, r5, pc}
1000f1b0:	40008000 	.word	0x40008000
1000f1b4:	40006c00 	.word	0x40006c00

1000f1b8 <MXC_GPIO_OutSet>:
1000f1b8:	4a0a      	ldr	r2, [pc, #40]	@ (1000f1e4 <MXC_GPIO_OutSet+0x2c>)
1000f1ba:	4290      	cmp	r0, r2
1000f1bc:	460b      	mov	r3, r1
1000f1be:	d001      	beq.n	1000f1c4 <MXC_GPIO_OutSet+0xc>
1000f1c0:	f000 b834 	b.w	1000f22c <MXC_GPIO_RevA_OutSet>
1000f1c4:	07ca      	lsls	r2, r1, #31
1000f1c6:	d504      	bpl.n	1000f1d2 <MXC_GPIO_OutSet+0x1a>
1000f1c8:	4907      	ldr	r1, [pc, #28]	@ (1000f1e8 <MXC_GPIO_OutSet+0x30>)
1000f1ca:	6a0a      	ldr	r2, [r1, #32]
1000f1cc:	f042 0201 	orr.w	r2, r2, #1
1000f1d0:	620a      	str	r2, [r1, #32]
1000f1d2:	079b      	lsls	r3, r3, #30
1000f1d4:	d505      	bpl.n	1000f1e2 <MXC_GPIO_OutSet+0x2a>
1000f1d6:	4a04      	ldr	r2, [pc, #16]	@ (1000f1e8 <MXC_GPIO_OutSet+0x30>)
1000f1d8:	6a13      	ldr	r3, [r2, #32]
1000f1da:	f043 0310 	orr.w	r3, r3, #16
1000f1de:	6213      	str	r3, [r2, #32]
1000f1e0:	4770      	bx	lr
1000f1e2:	4770      	bx	lr
1000f1e4:	40080600 	.word	0x40080600
1000f1e8:	40006c00 	.word	0x40006c00

1000f1ec <MXC_GPIO_OutClr>:
1000f1ec:	4a0a      	ldr	r2, [pc, #40]	@ (1000f218 <MXC_GPIO_OutClr+0x2c>)
1000f1ee:	4290      	cmp	r0, r2
1000f1f0:	460b      	mov	r3, r1
1000f1f2:	d001      	beq.n	1000f1f8 <MXC_GPIO_OutClr+0xc>
1000f1f4:	f000 b81c 	b.w	1000f230 <MXC_GPIO_RevA_OutClr>
1000f1f8:	07ca      	lsls	r2, r1, #31
1000f1fa:	d504      	bpl.n	1000f206 <MXC_GPIO_OutClr+0x1a>
1000f1fc:	4907      	ldr	r1, [pc, #28]	@ (1000f21c <MXC_GPIO_OutClr+0x30>)
1000f1fe:	6a0a      	ldr	r2, [r1, #32]
1000f200:	f022 0201 	bic.w	r2, r2, #1
1000f204:	620a      	str	r2, [r1, #32]
1000f206:	079b      	lsls	r3, r3, #30
1000f208:	d505      	bpl.n	1000f216 <MXC_GPIO_OutClr+0x2a>
1000f20a:	4a04      	ldr	r2, [pc, #16]	@ (1000f21c <MXC_GPIO_OutClr+0x30>)
1000f20c:	6a13      	ldr	r3, [r2, #32]
1000f20e:	f023 0310 	bic.w	r3, r3, #16
1000f212:	6213      	str	r3, [r2, #32]
1000f214:	4770      	bx	lr
1000f216:	4770      	bx	lr
1000f218:	40080600 	.word	0x40080600
1000f21c:	40006c00 	.word	0x40006c00

1000f220 <MXC_GPIO_Handler>:
1000f220:	f000 be1c 	b.w	1000fe5c <MXC_GPIO_Common_Handler>

1000f224 <MXC_GPIO_ClearFlags>:
1000f224:	f000 b806 	b.w	1000f234 <MXC_GPIO_RevA_ClearFlags>

1000f228 <MXC_GPIO_GetFlags>:
1000f228:	f000 b806 	b.w	1000f238 <MXC_GPIO_RevA_GetFlags>

1000f22c <MXC_GPIO_RevA_OutSet>:
1000f22c:	61c1      	str	r1, [r0, #28]
1000f22e:	4770      	bx	lr

1000f230 <MXC_GPIO_RevA_OutClr>:
1000f230:	6201      	str	r1, [r0, #32]
1000f232:	4770      	bx	lr

1000f234 <MXC_GPIO_RevA_ClearFlags>:
1000f234:	6481      	str	r1, [r0, #72]	@ 0x48
1000f236:	4770      	bx	lr

1000f238 <MXC_GPIO_RevA_GetFlags>:
1000f238:	6c00      	ldr	r0, [r0, #64]	@ 0x40
1000f23a:	4770      	bx	lr

1000f23c <MXC_GPIO_RevA_SetVSSEL>:
1000f23c:	b169      	cbz	r1, 1000f25a <MXC_GPIO_RevA_SetVSSEL+0x1e>
1000f23e:	2901      	cmp	r1, #1
1000f240:	d107      	bne.n	1000f252 <MXC_GPIO_RevA_SetVSSEL+0x16>
1000f242:	f8d0 30c0 	ldr.w	r3, [r0, #192]	@ 0xc0
1000f246:	2100      	movs	r1, #0
1000f248:	431a      	orrs	r2, r3
1000f24a:	f8c0 20c0 	str.w	r2, [r0, #192]	@ 0xc0
1000f24e:	4608      	mov	r0, r1
1000f250:	4770      	bx	lr
1000f252:	f06f 0102 	mvn.w	r1, #2
1000f256:	4608      	mov	r0, r1
1000f258:	4770      	bx	lr
1000f25a:	f8d0 30c0 	ldr.w	r3, [r0, #192]	@ 0xc0
1000f25e:	ea23 0202 	bic.w	r2, r3, r2
1000f262:	f8c0 20c0 	str.w	r2, [r0, #192]	@ 0xc0
1000f266:	4608      	mov	r0, r1
1000f268:	4770      	bx	lr
1000f26a:	bf00      	nop

1000f26c <MXC_GPIO_RevA_SetAF>:
1000f26c:	4603      	mov	r3, r0
1000f26e:	6b00      	ldr	r0, [r0, #48]	@ 0x30
1000f270:	4310      	orrs	r0, r2
1000f272:	6318      	str	r0, [r3, #48]	@ 0x30
1000f274:	605a      	str	r2, [r3, #4]
1000f276:	2905      	cmp	r1, #5
1000f278:	d82a      	bhi.n	1000f2d0 <MXC_GPIO_RevA_SetAF+0x64>
1000f27a:	e8df f001 	tbb	[pc, r1]
1000f27e:	120a      	.short	0x120a
1000f280:	03221b14 	.word	0x03221b14
1000f284:	f8c3 2088 	str.w	r2, [r3, #136]	@ 0x88
1000f288:	2000      	movs	r0, #0
1000f28a:	679a      	str	r2, [r3, #120]	@ 0x78
1000f28c:	66da      	str	r2, [r3, #108]	@ 0x6c
1000f28e:	609a      	str	r2, [r3, #8]
1000f290:	4770      	bx	lr
1000f292:	615a      	str	r2, [r3, #20]
1000f294:	605a      	str	r2, [r3, #4]
1000f296:	2000      	movs	r0, #0
1000f298:	671a      	str	r2, [r3, #112]	@ 0x70
1000f29a:	67da      	str	r2, [r3, #124]	@ 0x7c
1000f29c:	f8c3 2088 	str.w	r2, [r3, #136]	@ 0x88
1000f2a0:	4770      	bx	lr
1000f2a2:	611a      	str	r2, [r3, #16]
1000f2a4:	e7f6      	b.n	1000f294 <MXC_GPIO_RevA_SetAF+0x28>
1000f2a6:	f8c3 2088 	str.w	r2, [r3, #136]	@ 0x88
1000f2aa:	2000      	movs	r0, #0
1000f2ac:	67da      	str	r2, [r3, #124]	@ 0x7c
1000f2ae:	671a      	str	r2, [r3, #112]	@ 0x70
1000f2b0:	609a      	str	r2, [r3, #8]
1000f2b2:	4770      	bx	lr
1000f2b4:	f8c3 2088 	str.w	r2, [r3, #136]	@ 0x88
1000f2b8:	2000      	movs	r0, #0
1000f2ba:	67da      	str	r2, [r3, #124]	@ 0x7c
1000f2bc:	66da      	str	r2, [r3, #108]	@ 0x6c
1000f2be:	609a      	str	r2, [r3, #8]
1000f2c0:	4770      	bx	lr
1000f2c2:	f8c3 2088 	str.w	r2, [r3, #136]	@ 0x88
1000f2c6:	2000      	movs	r0, #0
1000f2c8:	679a      	str	r2, [r3, #120]	@ 0x78
1000f2ca:	671a      	str	r2, [r3, #112]	@ 0x70
1000f2cc:	609a      	str	r2, [r3, #8]
1000f2ce:	4770      	bx	lr
1000f2d0:	f06f 0002 	mvn.w	r0, #2
1000f2d4:	4770      	bx	lr
1000f2d6:	bf00      	nop

1000f2d8 <MXC_I2C_SetSlaveAddr>:
1000f2d8:	f000 b902 	b.w	1000f4e0 <MXC_I2C_RevA_SetSlaveAddr>

1000f2dc <MXC_I2C_Shutdown>:
1000f2dc:	b508      	push	{r3, lr}
1000f2de:	4b12      	ldr	r3, [pc, #72]	@ (1000f328 <MXC_I2C_Shutdown+0x4c>)
1000f2e0:	4298      	cmp	r0, r3
1000f2e2:	d00d      	beq.n	1000f300 <MXC_I2C_Shutdown+0x24>
1000f2e4:	4b11      	ldr	r3, [pc, #68]	@ (1000f32c <MXC_I2C_Shutdown+0x50>)
1000f2e6:	4298      	cmp	r0, r3
1000f2e8:	d012      	beq.n	1000f310 <MXC_I2C_Shutdown+0x34>
1000f2ea:	4b11      	ldr	r3, [pc, #68]	@ (1000f330 <MXC_I2C_Shutdown+0x54>)
1000f2ec:	4298      	cmp	r0, r3
1000f2ee:	d117      	bne.n	1000f320 <MXC_I2C_Shutdown+0x44>
1000f2f0:	2038      	movs	r0, #56	@ 0x38
1000f2f2:	f7ff fd5d 	bl	1000edb0 <MXC_SYS_ClockDisable>
1000f2f6:	2034      	movs	r0, #52	@ 0x34
1000f2f8:	f7ff fe1c 	bl	1000ef34 <MXC_SYS_Reset_Periph>
1000f2fc:	2000      	movs	r0, #0
1000f2fe:	bd08      	pop	{r3, pc}
1000f300:	200d      	movs	r0, #13
1000f302:	f7ff fd55 	bl	1000edb0 <MXC_SYS_ClockDisable>
1000f306:	2010      	movs	r0, #16
1000f308:	f7ff fe14 	bl	1000ef34 <MXC_SYS_Reset_Periph>
1000f30c:	2000      	movs	r0, #0
1000f30e:	bd08      	pop	{r3, pc}
1000f310:	201c      	movs	r0, #28
1000f312:	f7ff fd4d 	bl	1000edb0 <MXC_SYS_ClockDisable>
1000f316:	2020      	movs	r0, #32
1000f318:	f7ff fe0c 	bl	1000ef34 <MXC_SYS_Reset_Periph>
1000f31c:	2000      	movs	r0, #0
1000f31e:	bd08      	pop	{r3, pc}
1000f320:	f06f 0001 	mvn.w	r0, #1
1000f324:	bd08      	pop	{r3, pc}
1000f326:	bf00      	nop
1000f328:	4001d000 	.word	0x4001d000
1000f32c:	4001e000 	.word	0x4001e000
1000f330:	4001f000 	.word	0x4001f000

1000f334 <MXC_I2C_Init>:
1000f334:	b3c0      	cbz	r0, 1000f3a8 <MXC_I2C_Init+0x74>
1000f336:	b570      	push	{r4, r5, r6, lr}
1000f338:	4604      	mov	r4, r0
1000f33a:	460d      	mov	r5, r1
1000f33c:	4616      	mov	r6, r2
1000f33e:	f7ff ffcd 	bl	1000f2dc <MXC_I2C_Shutdown>
1000f342:	4b1b      	ldr	r3, [pc, #108]	@ (1000f3b0 <MXC_I2C_Init+0x7c>)
1000f344:	429c      	cmp	r4, r3
1000f346:	d012      	beq.n	1000f36e <MXC_I2C_Init+0x3a>
1000f348:	4b1a      	ldr	r3, [pc, #104]	@ (1000f3b4 <MXC_I2C_Init+0x80>)
1000f34a:	429c      	cmp	r4, r3
1000f34c:	d01c      	beq.n	1000f388 <MXC_I2C_Init+0x54>
1000f34e:	4b1a      	ldr	r3, [pc, #104]	@ (1000f3b8 <MXC_I2C_Init+0x84>)
1000f350:	429c      	cmp	r4, r3
1000f352:	d126      	bne.n	1000f3a2 <MXC_I2C_Init+0x6e>
1000f354:	2038      	movs	r0, #56	@ 0x38
1000f356:	f7ff fd4d 	bl	1000edf4 <MXC_SYS_ClockEnable>
1000f35a:	4818      	ldr	r0, [pc, #96]	@ (1000f3bc <MXC_I2C_Init+0x88>)
1000f35c:	f7ff fe32 	bl	1000efc4 <MXC_GPIO_Config>
1000f360:	4632      	mov	r2, r6
1000f362:	4629      	mov	r1, r5
1000f364:	4620      	mov	r0, r4
1000f366:	e8bd 4070 	ldmia.w	sp!, {r4, r5, r6, lr}
1000f36a:	f000 b851 	b.w	1000f410 <MXC_I2C_RevA_Init>
1000f36e:	200d      	movs	r0, #13
1000f370:	f7ff fd40 	bl	1000edf4 <MXC_SYS_ClockEnable>
1000f374:	4812      	ldr	r0, [pc, #72]	@ (1000f3c0 <MXC_I2C_Init+0x8c>)
1000f376:	f7ff fe25 	bl	1000efc4 <MXC_GPIO_Config>
1000f37a:	4632      	mov	r2, r6
1000f37c:	4629      	mov	r1, r5
1000f37e:	4620      	mov	r0, r4
1000f380:	e8bd 4070 	ldmia.w	sp!, {r4, r5, r6, lr}
1000f384:	f000 b844 	b.w	1000f410 <MXC_I2C_RevA_Init>
1000f388:	201c      	movs	r0, #28
1000f38a:	f7ff fd33 	bl	1000edf4 <MXC_SYS_ClockEnable>
1000f38e:	480d      	ldr	r0, [pc, #52]	@ (1000f3c4 <MXC_I2C_Init+0x90>)
1000f390:	f7ff fe18 	bl	1000efc4 <MXC_GPIO_Config>
1000f394:	4632      	mov	r2, r6
1000f396:	4629      	mov	r1, r5
1000f398:	4620      	mov	r0, r4
1000f39a:	e8bd 4070 	ldmia.w	sp!, {r4, r5, r6, lr}
1000f39e:	f000 b837 	b.w	1000f410 <MXC_I2C_RevA_Init>
1000f3a2:	f06f 0001 	mvn.w	r0, #1
1000f3a6:	bd70      	pop	{r4, r5, r6, pc}
1000f3a8:	f04f 30ff 	mov.w	r0, #4294967295	@ 0xffffffff
1000f3ac:	4770      	bx	lr
1000f3ae:	bf00      	nop
1000f3b0:	4001d000 	.word	0x4001d000
1000f3b4:	4001e000 	.word	0x4001e000
1000f3b8:	4001f000 	.word	0x4001f000
1000f3bc:	100191a8 	.word	0x100191a8
1000f3c0:	10019190 	.word	0x10019190
1000f3c4:	1001919c 	.word	0x1001919c

1000f3c8 <MXC_I2C_SetFrequency>:
1000f3c8:	4b03      	ldr	r3, [pc, #12]	@ (1000f3d8 <MXC_I2C_SetFrequency+0x10>)
1000f3ca:	4299      	cmp	r1, r3
1000f3cc:	d801      	bhi.n	1000f3d2 <MXC_I2C_SetFrequency+0xa>
1000f3ce:	f000 b8a1 	b.w	1000f514 <MXC_I2C_RevA_SetFrequency>
1000f3d2:	f06f 0010 	mvn.w	r0, #16
1000f3d6:	4770      	bx	lr
1000f3d8:	0033e140 	.word	0x0033e140

1000f3dc <MXC_I2C_GetFrequency>:
1000f3dc:	f000 b8ec 	b.w	1000f5b8 <MXC_I2C_RevA_GetFrequency>

1000f3e0 <MXC_I2C_ReadRXFIFO>:
1000f3e0:	f000 b8fa 	b.w	1000f5d8 <MXC_I2C_RevA_ReadRXFIFO>

1000f3e4 <MXC_I2C_GetRXFIFOAvailable>:
1000f3e4:	f000 b910 	b.w	1000f608 <MXC_I2C_RevA_GetRXFIFOAvailable>

1000f3e8 <MXC_I2C_WriteTXFIFO>:
1000f3e8:	f000 b916 	b.w	1000f618 <MXC_I2C_RevA_WriteTXFIFO>

1000f3ec <MXC_I2C_GetTXFIFOAvailable>:
1000f3ec:	f000 b92c 	b.w	1000f648 <MXC_I2C_RevA_GetTXFIFOAvailable>

1000f3f0 <MXC_I2C_ClearRXFIFO>:
1000f3f0:	f000 b936 	b.w	1000f660 <MXC_I2C_RevA_ClearRXFIFO>

1000f3f4 <MXC_I2C_ClearTXFIFO>:
1000f3f4:	f000 b93c 	b.w	1000f670 <MXC_I2C_RevA_ClearTXFIFO>

1000f3f8 <MXC_I2C_ClearFlags>:
1000f3f8:	f000 b942 	b.w	1000f680 <MXC_I2C_RevA_ClearFlags>

1000f3fc <MXC_I2C_EnableInt>:
1000f3fc:	f000 b944 	b.w	1000f688 <MXC_I2C_RevA_EnableInt>

1000f400 <MXC_I2C_DisableInt>:
1000f400:	f000 b94c 	b.w	1000f69c <MXC_I2C_RevA_DisableInt>

1000f404 <MXC_I2C_Recover>:
1000f404:	f000 b956 	b.w	1000f6b4 <MXC_I2C_RevA_Recover>

1000f408 <MXC_I2C_SetRXThreshold>:
1000f408:	f000 b9c0 	b.w	1000f78c <MXC_I2C_RevA_SetRXThreshold>

1000f40c <MXC_I2C_SetTXThreshold>:
1000f40c:	f000 b9ce 	b.w	1000f7ac <MXC_I2C_RevA_SetTXThreshold>

1000f410 <MXC_I2C_RevA_Init>:
1000f410:	b5f8      	push	{r3, r4, r5, r6, r7, lr}
1000f412:	2800      	cmp	r0, #0
1000f414:	d058      	beq.n	1000f4c8 <MXC_I2C_RevA_Init+0xb8>
1000f416:	460f      	mov	r7, r1
1000f418:	2110      	movs	r1, #16
1000f41a:	4615      	mov	r5, r2
1000f41c:	4604      	mov	r4, r0
1000f41e:	f7ff fff1 	bl	1000f404 <MXC_I2C_Recover>
1000f422:	4606      	mov	r6, r0
1000f424:	b108      	cbz	r0, 1000f42a <MXC_I2C_RevA_Init+0x1a>
1000f426:	4630      	mov	r0, r6
1000f428:	bdf8      	pop	{r3, r4, r5, r6, r7, pc}
1000f42a:	6823      	ldr	r3, [r4, #0]
1000f42c:	f043 0301 	orr.w	r3, r3, #1
1000f430:	6023      	str	r3, [r4, #0]
1000f432:	4620      	mov	r0, r4
1000f434:	f7ff ffdc 	bl	1000f3f0 <MXC_I2C_ClearRXFIFO>
1000f438:	4620      	mov	r0, r4
1000f43a:	f7ff ffdb 	bl	1000f3f4 <MXC_I2C_ClearTXFIFO>
1000f43e:	2102      	movs	r1, #2
1000f440:	4620      	mov	r0, r4
1000f442:	f7ff ffe3 	bl	1000f40c <MXC_I2C_SetTXThreshold>
1000f446:	2106      	movs	r1, #6
1000f448:	4620      	mov	r0, r4
1000f44a:	f7ff ffdd 	bl	1000f408 <MXC_I2C_SetRXThreshold>
1000f44e:	b1d7      	cbz	r7, 1000f486 <MXC_I2C_RevA_Init+0x76>
1000f450:	6823      	ldr	r3, [r4, #0]
1000f452:	4a1f      	ldr	r2, [pc, #124]	@ (1000f4d0 <MXC_I2C_RevA_Init+0xc0>)
1000f454:	f043 0302 	orr.w	r3, r3, #2
1000f458:	4294      	cmp	r4, r2
1000f45a:	6023      	str	r3, [r4, #0]
1000f45c:	d02e      	beq.n	1000f4bc <MXC_I2C_RevA_Init+0xac>
1000f45e:	4b1d      	ldr	r3, [pc, #116]	@ (1000f4d4 <MXC_I2C_RevA_Init+0xc4>)
1000f460:	429c      	cmp	r4, r3
1000f462:	d00e      	beq.n	1000f482 <MXC_I2C_RevA_Init+0x72>
1000f464:	481c      	ldr	r0, [pc, #112]	@ (1000f4d8 <MXC_I2C_RevA_Init+0xc8>)
1000f466:	4284      	cmp	r4, r0
1000f468:	bf0c      	ite	eq
1000f46a:	2402      	moveq	r4, #2
1000f46c:	f04f 34ff 	movne.w	r4, #4294967295	@ 0xffffffff
1000f470:	4b1a      	ldr	r3, [pc, #104]	@ (1000f4dc <MXC_I2C_RevA_Init+0xcc>)
1000f472:	eb04 0444 	add.w	r4, r4, r4, lsl #1
1000f476:	eb03 04c4 	add.w	r4, r3, r4, lsl #3
1000f47a:	2301      	movs	r3, #1
1000f47c:	6063      	str	r3, [r4, #4]
1000f47e:	4630      	mov	r0, r6
1000f480:	bdf8      	pop	{r3, r4, r5, r6, r7, pc}
1000f482:	2401      	movs	r4, #1
1000f484:	e7f4      	b.n	1000f470 <MXC_I2C_RevA_Init+0x60>
1000f486:	463a      	mov	r2, r7
1000f488:	4629      	mov	r1, r5
1000f48a:	4620      	mov	r0, r4
1000f48c:	f7ff ff24 	bl	1000f2d8 <MXC_I2C_SetSlaveAddr>
1000f490:	4b0f      	ldr	r3, [pc, #60]	@ (1000f4d0 <MXC_I2C_RevA_Init+0xc0>)
1000f492:	429c      	cmp	r4, r3
1000f494:	d014      	beq.n	1000f4c0 <MXC_I2C_RevA_Init+0xb0>
1000f496:	f503 5380 	add.w	r3, r3, #4096	@ 0x1000
1000f49a:	429c      	cmp	r4, r3
1000f49c:	d012      	beq.n	1000f4c4 <MXC_I2C_RevA_Init+0xb4>
1000f49e:	490e      	ldr	r1, [pc, #56]	@ (1000f4d8 <MXC_I2C_RevA_Init+0xc8>)
1000f4a0:	428c      	cmp	r4, r1
1000f4a2:	bf0c      	ite	eq
1000f4a4:	2102      	moveq	r1, #2
1000f4a6:	f04f 31ff 	movne.w	r1, #4294967295	@ 0xffffffff
1000f4aa:	4b0c      	ldr	r3, [pc, #48]	@ (1000f4dc <MXC_I2C_RevA_Init+0xcc>)
1000f4ac:	eb01 0441 	add.w	r4, r1, r1, lsl #1
1000f4b0:	eb03 04c4 	add.w	r4, r3, r4, lsl #3
1000f4b4:	2600      	movs	r6, #0
1000f4b6:	6066      	str	r6, [r4, #4]
1000f4b8:	4630      	mov	r0, r6
1000f4ba:	bdf8      	pop	{r3, r4, r5, r6, r7, pc}
1000f4bc:	4634      	mov	r4, r6
1000f4be:	e7d7      	b.n	1000f470 <MXC_I2C_RevA_Init+0x60>
1000f4c0:	4639      	mov	r1, r7
1000f4c2:	e7f2      	b.n	1000f4aa <MXC_I2C_RevA_Init+0x9a>
1000f4c4:	2101      	movs	r1, #1
1000f4c6:	e7f0      	b.n	1000f4aa <MXC_I2C_RevA_Init+0x9a>
1000f4c8:	f04f 36ff 	mov.w	r6, #4294967295	@ 0xffffffff
1000f4cc:	e7ab      	b.n	1000f426 <MXC_I2C_RevA_Init+0x16>
1000f4ce:	bf00      	nop
1000f4d0:	4001d000 	.word	0x4001d000
1000f4d4:	4001e000 	.word	0x4001e000
1000f4d8:	4001f000 	.word	0x4001f000
1000f4dc:	20000be0 	.word	0x20000be0

1000f4e0 <MXC_I2C_RevA_SetSlaveAddr>:
1000f4e0:	4603      	mov	r3, r0
1000f4e2:	b1a0      	cbz	r0, 1000f50e <MXC_I2C_RevA_SetSlaveAddr+0x2e>
1000f4e4:	b96a      	cbnz	r2, 1000f502 <MXC_I2C_RevA_SetSlaveAddr+0x22>
1000f4e6:	f5b1 6f80 	cmp.w	r1, #1024	@ 0x400
1000f4ea:	d20d      	bcs.n	1000f508 <MXC_I2C_RevA_SetSlaveAddr+0x28>
1000f4ec:	297f      	cmp	r1, #127	@ 0x7f
1000f4ee:	64c2      	str	r2, [r0, #76]	@ 0x4c
1000f4f0:	bf84      	itt	hi
1000f4f2:	f44f 4200 	movhi.w	r2, #32768	@ 0x8000
1000f4f6:	64c2      	strhi	r2, [r0, #76]	@ 0x4c
1000f4f8:	6cc2      	ldr	r2, [r0, #76]	@ 0x4c
1000f4fa:	4311      	orrs	r1, r2
1000f4fc:	2000      	movs	r0, #0
1000f4fe:	64d9      	str	r1, [r3, #76]	@ 0x4c
1000f500:	4770      	bx	lr
1000f502:	f06f 0010 	mvn.w	r0, #16
1000f506:	4770      	bx	lr
1000f508:	f06f 0002 	mvn.w	r0, #2
1000f50c:	4770      	bx	lr
1000f50e:	f04f 30ff 	mov.w	r0, #4294967295	@ 0xffffffff
1000f512:	4770      	bx	lr

1000f514 <MXC_I2C_RevA_SetFrequency>:
1000f514:	2800      	cmp	r0, #0
1000f516:	d041      	beq.n	1000f59c <MXC_I2C_RevA_SetFrequency+0x88>
1000f518:	b410      	push	{r4}
1000f51a:	4a22      	ldr	r2, [pc, #136]	@ (1000f5a4 <MXC_I2C_RevA_SetFrequency+0x90>)
1000f51c:	f5a1 2374 	sub.w	r3, r1, #999424	@ 0xf4000
1000f520:	f46f 7410 	mvn.w	r4, #576	@ 0x240
1000f524:	4423      	add	r3, r4
1000f526:	4293      	cmp	r3, r2
1000f528:	d314      	bcc.n	1000f554 <MXC_I2C_RevA_SetFrequency+0x40>
1000f52a:	4b1f      	ldr	r3, [pc, #124]	@ (1000f5a8 <MXC_I2C_RevA_SetFrequency+0x94>)
1000f52c:	4299      	cmp	r1, r3
1000f52e:	d830      	bhi.n	1000f592 <MXC_I2C_RevA_SetFrequency+0x7e>
1000f530:	4b1e      	ldr	r3, [pc, #120]	@ (1000f5ac <MXC_I2C_RevA_SetFrequency+0x98>)
1000f532:	681b      	ldr	r3, [r3, #0]
1000f534:	085b      	lsrs	r3, r3, #1
1000f536:	fbb3 f1f1 	udiv	r1, r3, r1
1000f53a:	0849      	lsrs	r1, r1, #1
1000f53c:	1e8b      	subs	r3, r1, #2
1000f53e:	f5b3 7fff 	cmp.w	r3, #510	@ 0x1fe
1000f542:	f101 31ff 	add.w	r1, r1, #4294967295	@ 0xffffffff
1000f546:	d824      	bhi.n	1000f592 <MXC_I2C_RevA_SetFrequency+0x7e>
1000f548:	6341      	str	r1, [r0, #52]	@ 0x34
1000f54a:	f85d 4b04 	ldr.w	r4, [sp], #4
1000f54e:	6381      	str	r1, [r0, #56]	@ 0x38
1000f550:	f7ff bf44 	b.w	1000f3dc <MXC_I2C_GetFrequency>
1000f554:	4b15      	ldr	r3, [pc, #84]	@ (1000f5ac <MXC_I2C_RevA_SetFrequency+0x98>)
1000f556:	4c16      	ldr	r4, [pc, #88]	@ (1000f5b0 <MXC_I2C_RevA_SetFrequency+0x9c>)
1000f558:	681b      	ldr	r3, [r3, #0]
1000f55a:	085b      	lsrs	r3, r3, #1
1000f55c:	fbb3 f1f1 	udiv	r1, r3, r1
1000f560:	004a      	lsls	r2, r1, #1
1000f562:	fba4 c101 	umull	ip, r1, r4, r1
1000f566:	0849      	lsrs	r1, r1, #1
1000f568:	fba4 4202 	umull	r4, r2, r4, r2
1000f56c:	3901      	subs	r1, #1
1000f56e:	0852      	lsrs	r2, r2, #1
1000f570:	290f      	cmp	r1, #15
1000f572:	f102 32ff 	add.w	r2, r2, #4294967295	@ 0xffffffff
1000f576:	dc0c      	bgt.n	1000f592 <MXC_I2C_RevA_SetFrequency+0x7e>
1000f578:	2a0f      	cmp	r2, #15
1000f57a:	dc0a      	bgt.n	1000f592 <MXC_I2C_RevA_SetFrequency+0x7e>
1000f57c:	0209      	lsls	r1, r1, #8
1000f57e:	b2d2      	uxtb	r2, r2
1000f580:	b289      	uxth	r1, r1
1000f582:	4311      	orrs	r1, r2
1000f584:	63c1      	str	r1, [r0, #60]	@ 0x3c
1000f586:	6802      	ldr	r2, [r0, #0]
1000f588:	490a      	ldr	r1, [pc, #40]	@ (1000f5b4 <MXC_I2C_RevA_SetFrequency+0xa0>)
1000f58a:	f442 4200 	orr.w	r2, r2, #32768	@ 0x8000
1000f58e:	6002      	str	r2, [r0, #0]
1000f590:	e7d1      	b.n	1000f536 <MXC_I2C_RevA_SetFrequency+0x22>
1000f592:	f06f 0002 	mvn.w	r0, #2
1000f596:	f85d 4b04 	ldr.w	r4, [sp], #4
1000f59a:	4770      	bx	lr
1000f59c:	f04f 30ff 	mov.w	r0, #4294967295	@ 0xffffffff
1000f5a0:	4770      	bx	lr
1000f5a2:	bf00      	nop
1000f5a4:	00249f00 	.word	0x00249f00
1000f5a8:	0033e140 	.word	0x0033e140
1000f5ac:	20001340 	.word	0x20001340
1000f5b0:	aaaaaaab 	.word	0xaaaaaaab
1000f5b4:	00061a80 	.word	0x00061a80

1000f5b8 <MXC_I2C_RevA_GetFrequency>:
1000f5b8:	4906      	ldr	r1, [pc, #24]	@ (1000f5d4 <MXC_I2C_RevA_GetFrequency+0x1c>)
1000f5ba:	6b43      	ldr	r3, [r0, #52]	@ 0x34
1000f5bc:	6b82      	ldr	r2, [r0, #56]	@ 0x38
1000f5be:	6808      	ldr	r0, [r1, #0]
1000f5c0:	f3c2 0208 	ubfx	r2, r2, #0, #9
1000f5c4:	f3c3 0308 	ubfx	r3, r3, #0, #9
1000f5c8:	4413      	add	r3, r2
1000f5ca:	0840      	lsrs	r0, r0, #1
1000f5cc:	fbb0 f0f3 	udiv	r0, r0, r3
1000f5d0:	4770      	bx	lr
1000f5d2:	bf00      	nop
1000f5d4:	20001340 	.word	0x20001340

1000f5d8 <MXC_I2C_RevA_ReadRXFIFO>:
1000f5d8:	b198      	cbz	r0, 1000f602 <MXC_I2C_RevA_ReadRXFIFO+0x2a>
1000f5da:	b191      	cbz	r1, 1000f602 <MXC_I2C_RevA_ReadRXFIFO+0x2a>
1000f5dc:	b17a      	cbz	r2, 1000f5fe <MXC_I2C_RevA_ReadRXFIFO+0x26>
1000f5de:	2300      	movs	r3, #0
1000f5e0:	f101 3cff 	add.w	ip, r1, #4294967295	@ 0xffffffff
1000f5e4:	e006      	b.n	1000f5f4 <MXC_I2C_RevA_ReadRXFIFO+0x1c>
1000f5e6:	6ac1      	ldr	r1, [r0, #44]	@ 0x2c
1000f5e8:	3301      	adds	r3, #1
1000f5ea:	b2c9      	uxtb	r1, r1
1000f5ec:	429a      	cmp	r2, r3
1000f5ee:	f80c 1003 	strb.w	r1, [ip, r3]
1000f5f2:	d004      	beq.n	1000f5fe <MXC_I2C_RevA_ReadRXFIFO+0x26>
1000f5f4:	6841      	ldr	r1, [r0, #4]
1000f5f6:	0789      	lsls	r1, r1, #30
1000f5f8:	d5f5      	bpl.n	1000f5e6 <MXC_I2C_RevA_ReadRXFIFO+0xe>
1000f5fa:	4618      	mov	r0, r3
1000f5fc:	4770      	bx	lr
1000f5fe:	4610      	mov	r0, r2
1000f600:	4770      	bx	lr
1000f602:	f04f 30ff 	mov.w	r0, #4294967295	@ 0xffffffff
1000f606:	4770      	bx	lr

1000f608 <MXC_I2C_RevA_GetRXFIFOAvailable>:
1000f608:	b118      	cbz	r0, 1000f612 <MXC_I2C_RevA_GetRXFIFOAvailable+0xa>
1000f60a:	6a00      	ldr	r0, [r0, #32]
1000f60c:	f3c0 2003 	ubfx	r0, r0, #8, #4
1000f610:	4770      	bx	lr
1000f612:	f04f 30ff 	mov.w	r0, #4294967295	@ 0xffffffff
1000f616:	4770      	bx	lr

1000f618 <MXC_I2C_RevA_WriteTXFIFO>:
1000f618:	b198      	cbz	r0, 1000f642 <MXC_I2C_RevA_WriteTXFIFO+0x2a>
1000f61a:	b191      	cbz	r1, 1000f642 <MXC_I2C_RevA_WriteTXFIFO+0x2a>
1000f61c:	b17a      	cbz	r2, 1000f63e <MXC_I2C_RevA_WriteTXFIFO+0x26>
1000f61e:	2300      	movs	r3, #0
1000f620:	f101 3cff 	add.w	ip, r1, #4294967295	@ 0xffffffff
1000f624:	e006      	b.n	1000f634 <MXC_I2C_RevA_WriteTXFIFO+0x1c>
1000f626:	3301      	adds	r3, #1
1000f628:	429a      	cmp	r2, r3
1000f62a:	f81c 1003 	ldrb.w	r1, [ip, r3]
1000f62e:	b2c9      	uxtb	r1, r1
1000f630:	62c1      	str	r1, [r0, #44]	@ 0x2c
1000f632:	d004      	beq.n	1000f63e <MXC_I2C_RevA_WriteTXFIFO+0x26>
1000f634:	6841      	ldr	r1, [r0, #4]
1000f636:	06c9      	lsls	r1, r1, #27
1000f638:	d5f5      	bpl.n	1000f626 <MXC_I2C_RevA_WriteTXFIFO+0xe>
1000f63a:	4618      	mov	r0, r3
1000f63c:	4770      	bx	lr
1000f63e:	4610      	mov	r0, r2
1000f640:	4770      	bx	lr
1000f642:	f04f 30ff 	mov.w	r0, #4294967295	@ 0xffffffff
1000f646:	4770      	bx	lr

1000f648 <MXC_I2C_RevA_GetTXFIFOAvailable>:
1000f648:	b138      	cbz	r0, 1000f65a <MXC_I2C_RevA_GetTXFIFOAvailable+0x12>
1000f64a:	6983      	ldr	r3, [r0, #24]
1000f64c:	6a82      	ldr	r2, [r0, #40]	@ 0x28
1000f64e:	f3c3 2007 	ubfx	r0, r3, #8, #8
1000f652:	f3c2 2303 	ubfx	r3, r2, #8, #4
1000f656:	1ac0      	subs	r0, r0, r3
1000f658:	4770      	bx	lr
1000f65a:	f04f 30ff 	mov.w	r0, #4294967295	@ 0xffffffff
1000f65e:	4770      	bx	lr

1000f660 <MXC_I2C_RevA_ClearRXFIFO>:
1000f660:	69c3      	ldr	r3, [r0, #28]
1000f662:	f043 0380 	orr.w	r3, r3, #128	@ 0x80
1000f666:	61c3      	str	r3, [r0, #28]
1000f668:	69c3      	ldr	r3, [r0, #28]
1000f66a:	061b      	lsls	r3, r3, #24
1000f66c:	d4fc      	bmi.n	1000f668 <MXC_I2C_RevA_ClearRXFIFO+0x8>
1000f66e:	4770      	bx	lr

1000f670 <MXC_I2C_RevA_ClearTXFIFO>:
1000f670:	6a43      	ldr	r3, [r0, #36]	@ 0x24
1000f672:	f043 0380 	orr.w	r3, r3, #128	@ 0x80
1000f676:	6243      	str	r3, [r0, #36]	@ 0x24
1000f678:	6a43      	ldr	r3, [r0, #36]	@ 0x24
1000f67a:	061b      	lsls	r3, r3, #24
1000f67c:	d4fc      	bmi.n	1000f678 <MXC_I2C_RevA_ClearTXFIFO+0x8>
1000f67e:	4770      	bx	lr

1000f680 <MXC_I2C_RevA_ClearFlags>:
1000f680:	6081      	str	r1, [r0, #8]
1000f682:	6102      	str	r2, [r0, #16]
1000f684:	4770      	bx	lr
1000f686:	bf00      	nop

1000f688 <MXC_I2C_RevA_EnableInt>:
1000f688:	b410      	push	{r4}
1000f68a:	68c4      	ldr	r4, [r0, #12]
1000f68c:	4321      	orrs	r1, r4
1000f68e:	60c1      	str	r1, [r0, #12]
1000f690:	6943      	ldr	r3, [r0, #20]
1000f692:	f85d 4b04 	ldr.w	r4, [sp], #4
1000f696:	431a      	orrs	r2, r3
1000f698:	6142      	str	r2, [r0, #20]
1000f69a:	4770      	bx	lr

1000f69c <MXC_I2C_RevA_DisableInt>:
1000f69c:	b410      	push	{r4}
1000f69e:	68c4      	ldr	r4, [r0, #12]
1000f6a0:	ea24 0101 	bic.w	r1, r4, r1
1000f6a4:	60c1      	str	r1, [r0, #12]
1000f6a6:	6943      	ldr	r3, [r0, #20]
1000f6a8:	f85d 4b04 	ldr.w	r4, [sp], #4
1000f6ac:	ea23 0202 	bic.w	r2, r3, r2
1000f6b0:	6142      	str	r2, [r0, #20]
1000f6b2:	4770      	bx	lr

1000f6b4 <MXC_I2C_RevA_Recover>:
1000f6b4:	2800      	cmp	r0, #0
1000f6b6:	d065      	beq.n	1000f784 <MXC_I2C_RevA_Recover+0xd0>
1000f6b8:	6803      	ldr	r3, [r0, #0]
1000f6ba:	f043 0301 	orr.w	r3, r3, #1
1000f6be:	e92d 41f0 	stmdb	sp!, {r4, r5, r6, r7, r8, lr}
1000f6c2:	6003      	str	r3, [r0, #0]
1000f6c4:	6807      	ldr	r7, [r0, #0]
1000f6c6:	6803      	ldr	r3, [r0, #0]
1000f6c8:	f443 6380 	orr.w	r3, r3, #1024	@ 0x400
1000f6cc:	460e      	mov	r6, r1
1000f6ce:	4604      	mov	r4, r0
1000f6d0:	f407 6780 	and.w	r7, r7, #1024	@ 0x400
1000f6d4:	6003      	str	r3, [r0, #0]
1000f6d6:	2900      	cmp	r1, #0
1000f6d8:	d043      	beq.n	1000f762 <MXC_I2C_RevA_Recover+0xae>
1000f6da:	2500      	movs	r5, #0
1000f6dc:	e02b      	b.n	1000f736 <MXC_I2C_RevA_Recover+0x82>
1000f6de:	f7ff fb05 	bl	1000ecec <MXC_Delay>
1000f6e2:	6823      	ldr	r3, [r4, #0]
1000f6e4:	f023 0380 	bic.w	r3, r3, #128	@ 0x80
1000f6e8:	6023      	str	r3, [r4, #0]
1000f6ea:	200a      	movs	r0, #10
1000f6ec:	f7ff fafe 	bl	1000ecec <MXC_Delay>
1000f6f0:	6823      	ldr	r3, [r4, #0]
1000f6f2:	f413 7800 	ands.w	r8, r3, #512	@ 0x200
1000f6f6:	f04f 000a 	mov.w	r0, #10
1000f6fa:	d12b      	bne.n	1000f754 <MXC_I2C_RevA_Recover+0xa0>
1000f6fc:	f7ff faf6 	bl	1000ecec <MXC_Delay>
1000f700:	6823      	ldr	r3, [r4, #0]
1000f702:	f043 0380 	orr.w	r3, r3, #128	@ 0x80
1000f706:	6023      	str	r3, [r4, #0]
1000f708:	200a      	movs	r0, #10
1000f70a:	f7ff faef 	bl	1000ecec <MXC_Delay>
1000f70e:	6823      	ldr	r3, [r4, #0]
1000f710:	059a      	lsls	r2, r3, #22
1000f712:	f04f 000a 	mov.w	r0, #10
1000f716:	d51d      	bpl.n	1000f754 <MXC_I2C_RevA_Recover+0xa0>
1000f718:	f7ff fae8 	bl	1000ecec <MXC_Delay>
1000f71c:	6823      	ldr	r3, [r4, #0]
1000f71e:	f043 0340 	orr.w	r3, r3, #64	@ 0x40
1000f722:	6023      	str	r3, [r4, #0]
1000f724:	200a      	movs	r0, #10
1000f726:	f7ff fae1 	bl	1000ecec <MXC_Delay>
1000f72a:	6823      	ldr	r3, [r4, #0]
1000f72c:	05db      	lsls	r3, r3, #23
1000f72e:	d425      	bmi.n	1000f77c <MXC_I2C_RevA_Recover+0xc8>
1000f730:	3501      	adds	r5, #1
1000f732:	42ae      	cmp	r6, r5
1000f734:	d015      	beq.n	1000f762 <MXC_I2C_RevA_Recover+0xae>
1000f736:	200a      	movs	r0, #10
1000f738:	f7ff fad8 	bl	1000ecec <MXC_Delay>
1000f73c:	6823      	ldr	r3, [r4, #0]
1000f73e:	f023 0340 	bic.w	r3, r3, #64	@ 0x40
1000f742:	6023      	str	r3, [r4, #0]
1000f744:	200a      	movs	r0, #10
1000f746:	f7ff fad1 	bl	1000ecec <MXC_Delay>
1000f74a:	6823      	ldr	r3, [r4, #0]
1000f74c:	05d9      	lsls	r1, r3, #23
1000f74e:	f04f 000a 	mov.w	r0, #10
1000f752:	d5c4      	bpl.n	1000f6de <MXC_I2C_RevA_Recover+0x2a>
1000f754:	6823      	ldr	r3, [r4, #0]
1000f756:	3501      	adds	r5, #1
1000f758:	f043 03c0 	orr.w	r3, r3, #192	@ 0xc0
1000f75c:	42ae      	cmp	r6, r5
1000f75e:	6023      	str	r3, [r4, #0]
1000f760:	d1e9      	bne.n	1000f736 <MXC_I2C_RevA_Recover+0x82>
1000f762:	f06f 0008 	mvn.w	r0, #8
1000f766:	b91f      	cbnz	r7, 1000f770 <MXC_I2C_RevA_Recover+0xbc>
1000f768:	6823      	ldr	r3, [r4, #0]
1000f76a:	f423 6380 	bic.w	r3, r3, #1024	@ 0x400
1000f76e:	6023      	str	r3, [r4, #0]
1000f770:	6823      	ldr	r3, [r4, #0]
1000f772:	f023 0301 	bic.w	r3, r3, #1
1000f776:	6023      	str	r3, [r4, #0]
1000f778:	e8bd 81f0 	ldmia.w	sp!, {r4, r5, r6, r7, r8, pc}
1000f77c:	4640      	mov	r0, r8
1000f77e:	2f00      	cmp	r7, #0
1000f780:	d1f6      	bne.n	1000f770 <MXC_I2C_RevA_Recover+0xbc>
1000f782:	e7f1      	b.n	1000f768 <MXC_I2C_RevA_Recover+0xb4>
1000f784:	f04f 30ff 	mov.w	r0, #4294967295	@ 0xffffffff
1000f788:	4770      	bx	lr
1000f78a:	bf00      	nop

1000f78c <MXC_I2C_RevA_SetRXThreshold>:
1000f78c:	6982      	ldr	r2, [r0, #24]
1000f78e:	b2d2      	uxtb	r2, r2
1000f790:	428a      	cmp	r2, r1
1000f792:	4603      	mov	r3, r0
1000f794:	d307      	bcc.n	1000f7a6 <MXC_I2C_RevA_SetRXThreshold+0x1a>
1000f796:	69c2      	ldr	r2, [r0, #28]
1000f798:	f422 6270 	bic.w	r2, r2, #3840	@ 0xf00
1000f79c:	ea42 2101 	orr.w	r1, r2, r1, lsl #8
1000f7a0:	2000      	movs	r0, #0
1000f7a2:	61d9      	str	r1, [r3, #28]
1000f7a4:	4770      	bx	lr
1000f7a6:	f06f 0002 	mvn.w	r0, #2
1000f7aa:	4770      	bx	lr

1000f7ac <MXC_I2C_RevA_SetTXThreshold>:
1000f7ac:	6982      	ldr	r2, [r0, #24]
1000f7ae:	f3c2 2207 	ubfx	r2, r2, #8, #8
1000f7b2:	428a      	cmp	r2, r1
1000f7b4:	4603      	mov	r3, r0
1000f7b6:	d307      	bcc.n	1000f7c8 <MXC_I2C_RevA_SetTXThreshold+0x1c>
1000f7b8:	6a42      	ldr	r2, [r0, #36]	@ 0x24
1000f7ba:	f422 6270 	bic.w	r2, r2, #3840	@ 0xf00
1000f7be:	ea42 2101 	orr.w	r1, r2, r1, lsl #8
1000f7c2:	2000      	movs	r0, #0
1000f7c4:	6259      	str	r1, [r3, #36]	@ 0x24
1000f7c6:	4770      	bx	lr
1000f7c8:	f06f 0002 	mvn.w	r0, #2
1000f7cc:	4770      	bx	lr
1000f7ce:	bf00      	nop

1000f7d0 <MXC_ICC_Enable>:
1000f7d0:	f000 b800 	b.w	1000f7d4 <MXC_ICC_RevA_Enable>

1000f7d4 <MXC_ICC_RevA_Enable>:
1000f7d4:	f8d0 3100 	ldr.w	r3, [r0, #256]	@ 0x100
1000f7d8:	2201      	movs	r2, #1
1000f7da:	f023 0301 	bic.w	r3, r3, #1
1000f7de:	f8c0 3100 	str.w	r3, [r0, #256]	@ 0x100
1000f7e2:	f8c0 2700 	str.w	r2, [r0, #1792]	@ 0x700
1000f7e6:	f8d0 3100 	ldr.w	r3, [r0, #256]	@ 0x100
1000f7ea:	03da      	lsls	r2, r3, #15
1000f7ec:	d5fb      	bpl.n	1000f7e6 <MXC_ICC_RevA_Enable+0x12>
1000f7ee:	f8d0 3100 	ldr.w	r3, [r0, #256]	@ 0x100
1000f7f2:	f043 0301 	orr.w	r3, r3, #1
1000f7f6:	f8c0 3100 	str.w	r3, [r0, #256]	@ 0x100
1000f7fa:	f8d0 3100 	ldr.w	r3, [r0, #256]	@ 0x100
1000f7fe:	03db      	lsls	r3, r3, #15
1000f800:	d5fb      	bpl.n	1000f7fa <MXC_ICC_RevA_Enable+0x26>
1000f802:	4770      	bx	lr

1000f804 <MXC_UART_Shutdown>:
1000f804:	b508      	push	{r3, lr}
1000f806:	4b17      	ldr	r3, [pc, #92]	@ (1000f864 <MXC_UART_Shutdown+0x60>)
1000f808:	4298      	cmp	r0, r3
1000f80a:	d010      	beq.n	1000f82e <MXC_UART_Shutdown+0x2a>
1000f80c:	4b16      	ldr	r3, [pc, #88]	@ (1000f868 <MXC_UART_Shutdown+0x64>)
1000f80e:	4298      	cmp	r0, r3
1000f810:	d015      	beq.n	1000f83e <MXC_UART_Shutdown+0x3a>
1000f812:	4b16      	ldr	r3, [pc, #88]	@ (1000f86c <MXC_UART_Shutdown+0x68>)
1000f814:	4298      	cmp	r0, r3
1000f816:	d01a      	beq.n	1000f84e <MXC_UART_Shutdown+0x4a>
1000f818:	4b15      	ldr	r3, [pc, #84]	@ (1000f870 <MXC_UART_Shutdown+0x6c>)
1000f81a:	4298      	cmp	r0, r3
1000f81c:	d11f      	bne.n	1000f85e <MXC_UART_Shutdown+0x5a>
1000f81e:	2044      	movs	r0, #68	@ 0x44
1000f820:	f7ff fb88 	bl	1000ef34 <MXC_SYS_Reset_Periph>
1000f824:	2044      	movs	r0, #68	@ 0x44
1000f826:	f7ff fac3 	bl	1000edb0 <MXC_SYS_ClockDisable>
1000f82a:	2000      	movs	r0, #0
1000f82c:	bd08      	pop	{r3, pc}
1000f82e:	200b      	movs	r0, #11
1000f830:	f7ff fb80 	bl	1000ef34 <MXC_SYS_Reset_Periph>
1000f834:	2009      	movs	r0, #9
1000f836:	f7ff fabb 	bl	1000edb0 <MXC_SYS_ClockDisable>
1000f83a:	2000      	movs	r0, #0
1000f83c:	bd08      	pop	{r3, pc}
1000f83e:	200c      	movs	r0, #12
1000f840:	f7ff fb78 	bl	1000ef34 <MXC_SYS_Reset_Periph>
1000f844:	200a      	movs	r0, #10
1000f846:	f7ff fab3 	bl	1000edb0 <MXC_SYS_ClockDisable>
1000f84a:	2000      	movs	r0, #0
1000f84c:	bd08      	pop	{r3, pc}
1000f84e:	201c      	movs	r0, #28
1000f850:	f7ff fb70 	bl	1000ef34 <MXC_SYS_Reset_Periph>
1000f854:	2021      	movs	r0, #33	@ 0x21
1000f856:	f7ff faab 	bl	1000edb0 <MXC_SYS_ClockDisable>
1000f85a:	2000      	movs	r0, #0
1000f85c:	bd08      	pop	{r3, pc}
1000f85e:	f06f 0002 	mvn.w	r0, #2
1000f862:	bd08      	pop	{r3, pc}
1000f864:	40042000 	.word	0x40042000
1000f868:	40043000 	.word	0x40043000
1000f86c:	40044000 	.word	0x40044000
1000f870:	40081400 	.word	0x40081400

1000f874 <MXC_UART_Init>:
1000f874:	b570      	push	{r4, r5, r6, lr}
1000f876:	4604      	mov	r4, r0
1000f878:	460e      	mov	r6, r1
1000f87a:	4615      	mov	r5, r2
1000f87c:	f7ff ffc2 	bl	1000f804 <MXC_UART_Shutdown>
1000f880:	bba8      	cbnz	r0, 1000f8ee <MXC_UART_Init+0x7a>
1000f882:	2d02      	cmp	r5, #2
1000f884:	d02d      	beq.n	1000f8e2 <MXC_UART_Init+0x6e>
1000f886:	2d04      	cmp	r5, #4
1000f888:	d018      	beq.n	1000f8bc <MXC_UART_Init+0x48>
1000f88a:	4b20      	ldr	r3, [pc, #128]	@ (1000f90c <MXC_UART_Init+0x98>)
1000f88c:	429c      	cmp	r4, r3
1000f88e:	d01b      	beq.n	1000f8c8 <MXC_UART_Init+0x54>
1000f890:	4b1f      	ldr	r3, [pc, #124]	@ (1000f910 <MXC_UART_Init+0x9c>)
1000f892:	429c      	cmp	r4, r3
1000f894:	d02c      	beq.n	1000f8f0 <MXC_UART_Init+0x7c>
1000f896:	4b1f      	ldr	r3, [pc, #124]	@ (1000f914 <MXC_UART_Init+0xa0>)
1000f898:	429c      	cmp	r4, r3
1000f89a:	d030      	beq.n	1000f8fe <MXC_UART_Init+0x8a>
1000f89c:	4b1e      	ldr	r3, [pc, #120]	@ (1000f918 <MXC_UART_Init+0xa4>)
1000f89e:	429c      	cmp	r4, r3
1000f8a0:	d123      	bne.n	1000f8ea <MXC_UART_Init+0x76>
1000f8a2:	481e      	ldr	r0, [pc, #120]	@ (1000f91c <MXC_UART_Init+0xa8>)
1000f8a4:	f7ff fb8e 	bl	1000efc4 <MXC_GPIO_Config>
1000f8a8:	2044      	movs	r0, #68	@ 0x44
1000f8aa:	f7ff faa3 	bl	1000edf4 <MXC_SYS_ClockEnable>
1000f8ae:	462a      	mov	r2, r5
1000f8b0:	4631      	mov	r1, r6
1000f8b2:	4620      	mov	r0, r4
1000f8b4:	e8bd 4070 	ldmia.w	sp!, {r4, r5, r6, lr}
1000f8b8:	f000 b8f6 	b.w	1000faa8 <MXC_UART_RevB_Init>
1000f8bc:	2006      	movs	r0, #6
1000f8be:	f7ff fabf 	bl	1000ee40 <MXC_SYS_ClockSourceEnable>
1000f8c2:	4b12      	ldr	r3, [pc, #72]	@ (1000f90c <MXC_UART_Init+0x98>)
1000f8c4:	429c      	cmp	r4, r3
1000f8c6:	d1e3      	bne.n	1000f890 <MXC_UART_Init+0x1c>
1000f8c8:	4815      	ldr	r0, [pc, #84]	@ (1000f920 <MXC_UART_Init+0xac>)
1000f8ca:	f7ff fb7b 	bl	1000efc4 <MXC_GPIO_Config>
1000f8ce:	2009      	movs	r0, #9
1000f8d0:	f7ff fa90 	bl	1000edf4 <MXC_SYS_ClockEnable>
1000f8d4:	462a      	mov	r2, r5
1000f8d6:	4631      	mov	r1, r6
1000f8d8:	4620      	mov	r0, r4
1000f8da:	e8bd 4070 	ldmia.w	sp!, {r4, r5, r6, lr}
1000f8de:	f000 b8e3 	b.w	1000faa8 <MXC_UART_RevB_Init>
1000f8e2:	2005      	movs	r0, #5
1000f8e4:	f7ff faac 	bl	1000ee40 <MXC_SYS_ClockSourceEnable>
1000f8e8:	e7cf      	b.n	1000f88a <MXC_UART_Init+0x16>
1000f8ea:	f06f 0002 	mvn.w	r0, #2
1000f8ee:	bd70      	pop	{r4, r5, r6, pc}
1000f8f0:	480c      	ldr	r0, [pc, #48]	@ (1000f924 <MXC_UART_Init+0xb0>)
1000f8f2:	f7ff fb67 	bl	1000efc4 <MXC_GPIO_Config>
1000f8f6:	200a      	movs	r0, #10
1000f8f8:	f7ff fa7c 	bl	1000edf4 <MXC_SYS_ClockEnable>
1000f8fc:	e7d7      	b.n	1000f8ae <MXC_UART_Init+0x3a>
1000f8fe:	480a      	ldr	r0, [pc, #40]	@ (1000f928 <MXC_UART_Init+0xb4>)
1000f900:	f7ff fb60 	bl	1000efc4 <MXC_GPIO_Config>
1000f904:	2021      	movs	r0, #33	@ 0x21
1000f906:	f7ff fa75 	bl	1000edf4 <MXC_SYS_ClockEnable>
1000f90a:	e7d0      	b.n	1000f8ae <MXC_UART_Init+0x3a>
1000f90c:	40042000 	.word	0x40042000
1000f910:	40043000 	.word	0x40043000
1000f914:	40044000 	.word	0x40044000
1000f918:	40081400 	.word	0x40081400
1000f91c:	100191d8 	.word	0x100191d8
1000f920:	100191b4 	.word	0x100191b4
1000f924:	100191c0 	.word	0x100191c0
1000f928:	100191cc 	.word	0x100191cc

1000f92c <MXC_UART_SetFrequency>:
1000f92c:	4b30      	ldr	r3, [pc, #192]	@ (1000f9f0 <MXC_UART_SetFrequency+0xc4>)
1000f92e:	4298      	cmp	r0, r3
1000f930:	b510      	push	{r4, lr}
1000f932:	4604      	mov	r4, r0
1000f934:	d016      	beq.n	1000f964 <MXC_UART_SetFrequency+0x38>
1000f936:	f503 5380 	add.w	r3, r3, #4096	@ 0x1000
1000f93a:	4298      	cmp	r0, r3
1000f93c:	d012      	beq.n	1000f964 <MXC_UART_SetFrequency+0x38>
1000f93e:	f503 5380 	add.w	r3, r3, #4096	@ 0x1000
1000f942:	4298      	cmp	r0, r3
1000f944:	d00e      	beq.n	1000f964 <MXC_UART_SetFrequency+0x38>
1000f946:	f503 3375 	add.w	r3, r3, #250880	@ 0x3d400
1000f94a:	4298      	cmp	r0, r3
1000f94c:	d107      	bne.n	1000f95e <MXC_UART_SetFrequency+0x32>
1000f94e:	2305      	movs	r3, #5
1000f950:	2a02      	cmp	r2, #2
1000f952:	6143      	str	r3, [r0, #20]
1000f954:	d043      	beq.n	1000f9de <MXC_UART_SetFrequency+0xb2>
1000f956:	2a04      	cmp	r2, #4
1000f958:	d013      	beq.n	1000f982 <MXC_UART_SetFrequency+0x56>
1000f95a:	2a00      	cmp	r2, #0
1000f95c:	d03f      	beq.n	1000f9de <MXC_UART_SetFrequency+0xb2>
1000f95e:	f06f 0002 	mvn.w	r0, #2
1000f962:	bd10      	pop	{r4, pc}
1000f964:	2a04      	cmp	r2, #4
1000f966:	d0fa      	beq.n	1000f95e <MXC_UART_SetFrequency+0x32>
1000f968:	4620      	mov	r0, r4
1000f96a:	f000 f8d5 	bl	1000fb18 <MXC_UART_RevB_SetFrequency>
1000f96e:	2800      	cmp	r0, #0
1000f970:	ddf7      	ble.n	1000f962 <MXC_UART_SetFrequency+0x36>
1000f972:	6823      	ldr	r3, [r4, #0]
1000f974:	f443 4300 	orr.w	r3, r3, #32768	@ 0x8000
1000f978:	6023      	str	r3, [r4, #0]
1000f97a:	6823      	ldr	r3, [r4, #0]
1000f97c:	031b      	lsls	r3, r3, #12
1000f97e:	d5fc      	bpl.n	1000f97a <MXC_UART_SetFrequency+0x4e>
1000f980:	bd10      	pop	{r4, pc}
1000f982:	6802      	ldr	r2, [r0, #0]
1000f984:	f44f 3380 	mov.w	r3, #65536	@ 0x10000
1000f988:	431a      	orrs	r2, r3
1000f98a:	6002      	str	r2, [r0, #0]
1000f98c:	6800      	ldr	r0, [r0, #0]
1000f98e:	fbb3 f3f1 	udiv	r3, r3, r1
1000f992:	f440 1000 	orr.w	r0, r0, #2097152	@ 0x200000
1000f996:	f5b1 6f16 	cmp.w	r1, #2400	@ 0x960
1000f99a:	6020      	str	r0, [r4, #0]
1000f99c:	fb01 f203 	mul.w	r2, r1, r3
1000f9a0:	bf8c      	ite	hi
1000f9a2:	2000      	movhi	r0, #0
1000f9a4:	2001      	movls	r0, #1
1000f9a6:	f5c2 3280 	rsb	r2, r2, #65536	@ 0x10000
1000f9aa:	6160      	str	r0, [r4, #20]
1000f9ac:	b1ab      	cbz	r3, 1000f9da <MXC_UART_SetFrequency+0xae>
1000f9ae:	ebb2 0f51 	cmp.w	r2, r1, lsr #1
1000f9b2:	d812      	bhi.n	1000f9da <MXC_UART_SetFrequency+0xae>
1000f9b4:	4a0f      	ldr	r2, [pc, #60]	@ (1000f9f4 <MXC_UART_SetFrequency+0xc8>)
1000f9b6:	6113      	str	r3, [r2, #16]
1000f9b8:	6810      	ldr	r0, [r2, #0]
1000f9ba:	f400 3040 	and.w	r0, r0, #196608	@ 0x30000
1000f9be:	f5b0 3f80 	cmp.w	r0, #65536	@ 0x10000
1000f9c2:	d005      	beq.n	1000f9d0 <MXC_UART_SetFrequency+0xa4>
1000f9c4:	6813      	ldr	r3, [r2, #0]
1000f9c6:	f413 3f40 	tst.w	r3, #196608	@ 0x30000
1000f9ca:	d1c8      	bne.n	1000f95e <MXC_UART_SetFrequency+0x32>
1000f9cc:	f44f 00e1 	mov.w	r0, #7372800	@ 0x708000
1000f9d0:	4b08      	ldr	r3, [pc, #32]	@ (1000f9f4 <MXC_UART_SetFrequency+0xc8>)
1000f9d2:	691b      	ldr	r3, [r3, #16]
1000f9d4:	fbb0 f0f3 	udiv	r0, r0, r3
1000f9d8:	e7c9      	b.n	1000f96e <MXC_UART_SetFrequency+0x42>
1000f9da:	3301      	adds	r3, #1
1000f9dc:	e7ea      	b.n	1000f9b4 <MXC_UART_SetFrequency+0x88>
1000f9de:	f44f 03e1 	mov.w	r3, #7372800	@ 0x708000
1000f9e2:	fbb3 f3f1 	udiv	r3, r3, r1
1000f9e6:	fb01 f203 	mul.w	r2, r1, r3
1000f9ea:	f5c2 02e1 	rsb	r2, r2, #7372800	@ 0x708000
1000f9ee:	e7dd      	b.n	1000f9ac <MXC_UART_SetFrequency+0x80>
1000f9f0:	40042000 	.word	0x40042000
1000f9f4:	40081400 	.word	0x40081400

1000f9f8 <MXC_UART_GetFrequency>:
1000f9f8:	4b12      	ldr	r3, [pc, #72]	@ (1000fa44 <MXC_UART_GetFrequency+0x4c>)
1000f9fa:	4298      	cmp	r0, r3
1000f9fc:	d01c      	beq.n	1000fa38 <MXC_UART_GetFrequency+0x40>
1000f9fe:	f503 5380 	add.w	r3, r3, #4096	@ 0x1000
1000fa02:	4298      	cmp	r0, r3
1000fa04:	d018      	beq.n	1000fa38 <MXC_UART_GetFrequency+0x40>
1000fa06:	f503 5380 	add.w	r3, r3, #4096	@ 0x1000
1000fa0a:	4298      	cmp	r0, r3
1000fa0c:	d014      	beq.n	1000fa38 <MXC_UART_GetFrequency+0x40>
1000fa0e:	f503 3375 	add.w	r3, r3, #250880	@ 0x3d400
1000fa12:	4298      	cmp	r0, r3
1000fa14:	d112      	bne.n	1000fa3c <MXC_UART_GetFrequency+0x44>
1000fa16:	6803      	ldr	r3, [r0, #0]
1000fa18:	f403 3340 	and.w	r3, r3, #196608	@ 0x30000
1000fa1c:	f5b3 3f80 	cmp.w	r3, #65536	@ 0x10000
1000fa20:	d005      	beq.n	1000fa2e <MXC_UART_GetFrequency+0x36>
1000fa22:	6803      	ldr	r3, [r0, #0]
1000fa24:	f413 3f40 	tst.w	r3, #196608	@ 0x30000
1000fa28:	d108      	bne.n	1000fa3c <MXC_UART_GetFrequency+0x44>
1000fa2a:	f44f 03e1 	mov.w	r3, #7372800	@ 0x708000
1000fa2e:	4a06      	ldr	r2, [pc, #24]	@ (1000fa48 <MXC_UART_GetFrequency+0x50>)
1000fa30:	6910      	ldr	r0, [r2, #16]
1000fa32:	fbb3 f0f0 	udiv	r0, r3, r0
1000fa36:	4770      	bx	lr
1000fa38:	f000 b8bc 	b.w	1000fbb4 <MXC_UART_RevB_GetFrequency>
1000fa3c:	f06f 0002 	mvn.w	r0, #2
1000fa40:	4770      	bx	lr
1000fa42:	bf00      	nop
1000fa44:	40042000 	.word	0x40042000
1000fa48:	40081400 	.word	0x40081400

1000fa4c <MXC_UART_SetDataSize>:
1000fa4c:	f000 b8f0 	b.w	1000fc30 <MXC_UART_RevB_SetDataSize>

1000fa50 <MXC_UART_SetStopBits>:
1000fa50:	f000 b90e 	b.w	1000fc70 <MXC_UART_RevB_SetStopBits>

1000fa54 <MXC_UART_SetParity>:
1000fa54:	f000 b932 	b.w	1000fcbc <MXC_UART_RevB_SetParity>

1000fa58 <MXC_UART_ReadCharacterRaw>:
1000fa58:	f000 b98a 	b.w	1000fd70 <MXC_UART_RevB_ReadCharacterRaw>

1000fa5c <MXC_UART_WriteCharacterRaw>:
1000fa5c:	f000 b9a4 	b.w	1000fda8 <MXC_UART_RevB_WriteCharacterRaw>

1000fa60 <MXC_UART_ReadCharacter>:
1000fa60:	f000 b808 	b.w	1000fa74 <MXC_UART_Common_ReadCharacter>

1000fa64 <MXC_UART_WriteCharacter>:
1000fa64:	f000 b812 	b.w	1000fa8c <MXC_UART_Common_WriteCharacter>

1000fa68 <MXC_UART_GetRXFIFOAvailable>:
1000fa68:	f000 b9bc 	b.w	1000fde4 <MXC_UART_RevB_GetRXFIFOAvailable>

1000fa6c <MXC_UART_GetTXFIFOAvailable>:
1000fa6c:	f000 b9be 	b.w	1000fdec <MXC_UART_RevB_GetTXFIFOAvailable>

1000fa70 <MXC_UART_SetRXThreshold>:
1000fa70:	f000 b9c2 	b.w	1000fdf8 <MXC_UART_RevB_SetRXThreshold>

1000fa74 <MXC_UART_Common_ReadCharacter>:
1000fa74:	b510      	push	{r4, lr}
1000fa76:	4604      	mov	r4, r0
1000fa78:	4620      	mov	r0, r4
1000fa7a:	f7ff fff5 	bl	1000fa68 <MXC_UART_GetRXFIFOAvailable>
1000fa7e:	2800      	cmp	r0, #0
1000fa80:	d0fa      	beq.n	1000fa78 <MXC_UART_Common_ReadCharacter+0x4>
1000fa82:	4620      	mov	r0, r4
1000fa84:	e8bd 4010 	ldmia.w	sp!, {r4, lr}
1000fa88:	f7ff bfe6 	b.w	1000fa58 <MXC_UART_ReadCharacterRaw>

1000fa8c <MXC_UART_Common_WriteCharacter>:
1000fa8c:	b538      	push	{r3, r4, r5, lr}
1000fa8e:	4604      	mov	r4, r0
1000fa90:	460d      	mov	r5, r1
1000fa92:	4620      	mov	r0, r4
1000fa94:	f7ff ffea 	bl	1000fa6c <MXC_UART_GetTXFIFOAvailable>
1000fa98:	2800      	cmp	r0, #0
1000fa9a:	d0fa      	beq.n	1000fa92 <MXC_UART_Common_WriteCharacter+0x6>
1000fa9c:	4629      	mov	r1, r5
1000fa9e:	4620      	mov	r0, r4
1000faa0:	e8bd 4038 	ldmia.w	sp!, {r3, r4, r5, lr}
1000faa4:	f7ff bfda 	b.w	1000fa5c <MXC_UART_WriteCharacterRaw>

1000faa8 <MXC_UART_RevB_Init>:
1000faa8:	4b1a      	ldr	r3, [pc, #104]	@ (1000fb14 <MXC_UART_RevB_Init+0x6c>)
1000faaa:	4298      	cmp	r0, r3
1000faac:	b570      	push	{r4, r5, r6, lr}
1000faae:	4604      	mov	r4, r0
1000fab0:	460d      	mov	r5, r1
1000fab2:	4616      	mov	r6, r2
1000fab4:	d00b      	beq.n	1000face <MXC_UART_RevB_Init+0x26>
1000fab6:	f503 5380 	add.w	r3, r3, #4096	@ 0x1000
1000faba:	4298      	cmp	r0, r3
1000fabc:	d007      	beq.n	1000face <MXC_UART_RevB_Init+0x26>
1000fabe:	f503 5380 	add.w	r3, r3, #4096	@ 0x1000
1000fac2:	4298      	cmp	r0, r3
1000fac4:	d003      	beq.n	1000face <MXC_UART_RevB_Init+0x26>
1000fac6:	f503 3375 	add.w	r3, r3, #250880	@ 0x3d400
1000faca:	4298      	cmp	r0, r3
1000facc:	d11f      	bne.n	1000fb0e <MXC_UART_RevB_Init+0x66>
1000face:	2101      	movs	r1, #1
1000fad0:	4620      	mov	r0, r4
1000fad2:	f7ff ffcd 	bl	1000fa70 <MXC_UART_SetRXThreshold>
1000fad6:	b100      	cbz	r0, 1000fada <MXC_UART_RevB_Init+0x32>
1000fad8:	bd70      	pop	{r4, r5, r6, pc}
1000fada:	2108      	movs	r1, #8
1000fadc:	4620      	mov	r0, r4
1000fade:	f7ff ffb5 	bl	1000fa4c <MXC_UART_SetDataSize>
1000fae2:	2800      	cmp	r0, #0
1000fae4:	d1f8      	bne.n	1000fad8 <MXC_UART_RevB_Init+0x30>
1000fae6:	4601      	mov	r1, r0
1000fae8:	4620      	mov	r0, r4
1000faea:	f7ff ffb3 	bl	1000fa54 <MXC_UART_SetParity>
1000faee:	2800      	cmp	r0, #0
1000faf0:	d1f2      	bne.n	1000fad8 <MXC_UART_RevB_Init+0x30>
1000faf2:	4601      	mov	r1, r0
1000faf4:	4620      	mov	r0, r4
1000faf6:	f7ff ffab 	bl	1000fa50 <MXC_UART_SetStopBits>
1000fafa:	2800      	cmp	r0, #0
1000fafc:	d1ec      	bne.n	1000fad8 <MXC_UART_RevB_Init+0x30>
1000fafe:	4632      	mov	r2, r6
1000fb00:	4629      	mov	r1, r5
1000fb02:	4620      	mov	r0, r4
1000fb04:	f7ff ff12 	bl	1000f92c <MXC_UART_SetFrequency>
1000fb08:	ea00 70e0 	and.w	r0, r0, r0, asr #31
1000fb0c:	bd70      	pop	{r4, r5, r6, pc}
1000fb0e:	f06f 0002 	mvn.w	r0, #2
1000fb12:	bd70      	pop	{r4, r5, r6, pc}
1000fb14:	40042000 	.word	0x40042000

1000fb18 <MXC_UART_RevB_SetFrequency>:
1000fb18:	4b23      	ldr	r3, [pc, #140]	@ (1000fba8 <MXC_UART_RevB_SetFrequency+0x90>)
1000fb1a:	4298      	cmp	r0, r3
1000fb1c:	d00b      	beq.n	1000fb36 <MXC_UART_RevB_SetFrequency+0x1e>
1000fb1e:	f503 5380 	add.w	r3, r3, #4096	@ 0x1000
1000fb22:	4298      	cmp	r0, r3
1000fb24:	d007      	beq.n	1000fb36 <MXC_UART_RevB_SetFrequency+0x1e>
1000fb26:	f503 5380 	add.w	r3, r3, #4096	@ 0x1000
1000fb2a:	4298      	cmp	r0, r3
1000fb2c:	d003      	beq.n	1000fb36 <MXC_UART_RevB_SetFrequency+0x1e>
1000fb2e:	f503 3375 	add.w	r3, r3, #250880	@ 0x3d400
1000fb32:	4298      	cmp	r0, r3
1000fb34:	d134      	bne.n	1000fba0 <MXC_UART_RevB_SetFrequency+0x88>
1000fb36:	2305      	movs	r3, #5
1000fb38:	2a01      	cmp	r2, #1
1000fb3a:	b410      	push	{r4}
1000fb3c:	6143      	str	r3, [r0, #20]
1000fb3e:	d025      	beq.n	1000fb8c <MXC_UART_RevB_SetFrequency+0x74>
1000fb40:	2a02      	cmp	r2, #2
1000fb42:	d016      	beq.n	1000fb72 <MXC_UART_RevB_SetFrequency+0x5a>
1000fb44:	b122      	cbz	r2, 1000fb50 <MXC_UART_RevB_SetFrequency+0x38>
1000fb46:	f06f 0002 	mvn.w	r0, #2
1000fb4a:	f85d 4b04 	ldr.w	r4, [sp], #4
1000fb4e:	4770      	bx	lr
1000fb50:	4b16      	ldr	r3, [pc, #88]	@ (1000fbac <MXC_UART_RevB_SetFrequency+0x94>)
1000fb52:	681a      	ldr	r2, [r3, #0]
1000fb54:	0852      	lsrs	r2, r2, #1
1000fb56:	fbb2 f3f1 	udiv	r3, r2, r1
1000fb5a:	fb01 2213 	mls	r2, r1, r3, r2
1000fb5e:	b113      	cbz	r3, 1000fb66 <MXC_UART_RevB_SetFrequency+0x4e>
1000fb60:	ebb2 0f51 	cmp.w	r2, r1, lsr #1
1000fb64:	d900      	bls.n	1000fb68 <MXC_UART_RevB_SetFrequency+0x50>
1000fb66:	3301      	adds	r3, #1
1000fb68:	f85d 4b04 	ldr.w	r4, [sp], #4
1000fb6c:	6103      	str	r3, [r0, #16]
1000fb6e:	f7ff bf43 	b.w	1000f9f8 <MXC_UART_GetFrequency>
1000fb72:	6804      	ldr	r4, [r0, #0]
1000fb74:	f44f 03e1 	mov.w	r3, #7372800	@ 0x708000
1000fb78:	f444 3400 	orr.w	r4, r4, #131072	@ 0x20000
1000fb7c:	fbb3 f3f1 	udiv	r3, r3, r1
1000fb80:	fb01 f203 	mul.w	r2, r1, r3
1000fb84:	f5c2 02e1 	rsb	r2, r2, #7372800	@ 0x708000
1000fb88:	6004      	str	r4, [r0, #0]
1000fb8a:	e7e8      	b.n	1000fb5e <MXC_UART_RevB_SetFrequency+0x46>
1000fb8c:	6804      	ldr	r4, [r0, #0]
1000fb8e:	4a08      	ldr	r2, [pc, #32]	@ (1000fbb0 <MXC_UART_RevB_SetFrequency+0x98>)
1000fb90:	fbb2 f3f1 	udiv	r3, r2, r1
1000fb94:	f444 3480 	orr.w	r4, r4, #65536	@ 0x10000
1000fb98:	6004      	str	r4, [r0, #0]
1000fb9a:	fb01 2213 	mls	r2, r1, r3, r2
1000fb9e:	e7de      	b.n	1000fb5e <MXC_UART_RevB_SetFrequency+0x46>
1000fba0:	f06f 0002 	mvn.w	r0, #2
1000fba4:	4770      	bx	lr
1000fba6:	bf00      	nop
1000fba8:	40042000 	.word	0x40042000
1000fbac:	20001340 	.word	0x20001340
1000fbb0:	047868c0 	.word	0x047868c0

1000fbb4 <MXC_UART_RevB_GetFrequency>:
1000fbb4:	4b1b      	ldr	r3, [pc, #108]	@ (1000fc24 <MXC_UART_RevB_GetFrequency+0x70>)
1000fbb6:	4298      	cmp	r0, r3
1000fbb8:	d00b      	beq.n	1000fbd2 <MXC_UART_RevB_GetFrequency+0x1e>
1000fbba:	f503 5380 	add.w	r3, r3, #4096	@ 0x1000
1000fbbe:	4298      	cmp	r0, r3
1000fbc0:	d007      	beq.n	1000fbd2 <MXC_UART_RevB_GetFrequency+0x1e>
1000fbc2:	f503 5380 	add.w	r3, r3, #4096	@ 0x1000
1000fbc6:	4298      	cmp	r0, r3
1000fbc8:	d003      	beq.n	1000fbd2 <MXC_UART_RevB_GetFrequency+0x1e>
1000fbca:	f503 3375 	add.w	r3, r3, #250880	@ 0x3d400
1000fbce:	4298      	cmp	r0, r3
1000fbd0:	d125      	bne.n	1000fc1e <MXC_UART_RevB_GetFrequency+0x6a>
1000fbd2:	6803      	ldr	r3, [r0, #0]
1000fbd4:	f403 3340 	and.w	r3, r3, #196608	@ 0x30000
1000fbd8:	f5b3 3f80 	cmp.w	r3, #65536	@ 0x10000
1000fbdc:	d014      	beq.n	1000fc08 <MXC_UART_RevB_GetFrequency+0x54>
1000fbde:	6803      	ldr	r3, [r0, #0]
1000fbe0:	f413 3f40 	tst.w	r3, #196608	@ 0x30000
1000fbe4:	d106      	bne.n	1000fbf4 <MXC_UART_RevB_GetFrequency+0x40>
1000fbe6:	4b10      	ldr	r3, [pc, #64]	@ (1000fc28 <MXC_UART_RevB_GetFrequency+0x74>)
1000fbe8:	6900      	ldr	r0, [r0, #16]
1000fbea:	681b      	ldr	r3, [r3, #0]
1000fbec:	085b      	lsrs	r3, r3, #1
1000fbee:	fbb3 f0f0 	udiv	r0, r3, r0
1000fbf2:	4770      	bx	lr
1000fbf4:	6803      	ldr	r3, [r0, #0]
1000fbf6:	f403 3340 	and.w	r3, r3, #196608	@ 0x30000
1000fbfa:	f5b3 3f00 	cmp.w	r3, #131072	@ 0x20000
1000fbfe:	d008      	beq.n	1000fc12 <MXC_UART_RevB_GetFrequency+0x5e>
1000fc00:	6803      	ldr	r3, [r0, #0]
1000fc02:	f06f 0002 	mvn.w	r0, #2
1000fc06:	4770      	bx	lr
1000fc08:	4b08      	ldr	r3, [pc, #32]	@ (1000fc2c <MXC_UART_RevB_GetFrequency+0x78>)
1000fc0a:	6900      	ldr	r0, [r0, #16]
1000fc0c:	fbb3 f0f0 	udiv	r0, r3, r0
1000fc10:	4770      	bx	lr
1000fc12:	6900      	ldr	r0, [r0, #16]
1000fc14:	f44f 03e1 	mov.w	r3, #7372800	@ 0x708000
1000fc18:	fbb3 f0f0 	udiv	r0, r3, r0
1000fc1c:	4770      	bx	lr
1000fc1e:	f06f 0002 	mvn.w	r0, #2
1000fc22:	4770      	bx	lr
1000fc24:	40042000 	.word	0x40042000
1000fc28:	20001340 	.word	0x20001340
1000fc2c:	047868c0 	.word	0x047868c0

1000fc30 <MXC_UART_RevB_SetDataSize>:
1000fc30:	4a0e      	ldr	r2, [pc, #56]	@ (1000fc6c <MXC_UART_RevB_SetDataSize+0x3c>)
1000fc32:	4290      	cmp	r0, r2
1000fc34:	4603      	mov	r3, r0
1000fc36:	d00b      	beq.n	1000fc50 <MXC_UART_RevB_SetDataSize+0x20>
1000fc38:	f502 5280 	add.w	r2, r2, #4096	@ 0x1000
1000fc3c:	4290      	cmp	r0, r2
1000fc3e:	d007      	beq.n	1000fc50 <MXC_UART_RevB_SetDataSize+0x20>
1000fc40:	f502 5280 	add.w	r2, r2, #4096	@ 0x1000
1000fc44:	4290      	cmp	r0, r2
1000fc46:	d003      	beq.n	1000fc50 <MXC_UART_RevB_SetDataSize+0x20>
1000fc48:	f502 3275 	add.w	r2, r2, #250880	@ 0x3d400
1000fc4c:	4290      	cmp	r0, r2
1000fc4e:	d10a      	bne.n	1000fc66 <MXC_UART_RevB_SetDataSize+0x36>
1000fc50:	3905      	subs	r1, #5
1000fc52:	2903      	cmp	r1, #3
1000fc54:	d807      	bhi.n	1000fc66 <MXC_UART_RevB_SetDataSize+0x36>
1000fc56:	681a      	ldr	r2, [r3, #0]
1000fc58:	f422 6240 	bic.w	r2, r2, #3072	@ 0xc00
1000fc5c:	ea42 2181 	orr.w	r1, r2, r1, lsl #10
1000fc60:	2000      	movs	r0, #0
1000fc62:	6019      	str	r1, [r3, #0]
1000fc64:	4770      	bx	lr
1000fc66:	f06f 0002 	mvn.w	r0, #2
1000fc6a:	4770      	bx	lr
1000fc6c:	40042000 	.word	0x40042000

1000fc70 <MXC_UART_RevB_SetStopBits>:
1000fc70:	4b11      	ldr	r3, [pc, #68]	@ (1000fcb8 <MXC_UART_RevB_SetStopBits+0x48>)
1000fc72:	4298      	cmp	r0, r3
1000fc74:	d00b      	beq.n	1000fc8e <MXC_UART_RevB_SetStopBits+0x1e>
1000fc76:	f503 5380 	add.w	r3, r3, #4096	@ 0x1000
1000fc7a:	4298      	cmp	r0, r3
1000fc7c:	d007      	beq.n	1000fc8e <MXC_UART_RevB_SetStopBits+0x1e>
1000fc7e:	f503 5380 	add.w	r3, r3, #4096	@ 0x1000
1000fc82:	4298      	cmp	r0, r3
1000fc84:	d003      	beq.n	1000fc8e <MXC_UART_RevB_SetStopBits+0x1e>
1000fc86:	f503 3375 	add.w	r3, r3, #250880	@ 0x3d400
1000fc8a:	4298      	cmp	r0, r3
1000fc8c:	d102      	bne.n	1000fc94 <MXC_UART_RevB_SetStopBits+0x24>
1000fc8e:	b161      	cbz	r1, 1000fcaa <MXC_UART_RevB_SetStopBits+0x3a>
1000fc90:	2901      	cmp	r1, #1
1000fc92:	d003      	beq.n	1000fc9c <MXC_UART_RevB_SetStopBits+0x2c>
1000fc94:	f06f 0102 	mvn.w	r1, #2
1000fc98:	4608      	mov	r0, r1
1000fc9a:	4770      	bx	lr
1000fc9c:	6803      	ldr	r3, [r0, #0]
1000fc9e:	2100      	movs	r1, #0
1000fca0:	f443 5380 	orr.w	r3, r3, #4096	@ 0x1000
1000fca4:	6003      	str	r3, [r0, #0]
1000fca6:	4608      	mov	r0, r1
1000fca8:	4770      	bx	lr
1000fcaa:	6803      	ldr	r3, [r0, #0]
1000fcac:	f423 5380 	bic.w	r3, r3, #4096	@ 0x1000
1000fcb0:	6003      	str	r3, [r0, #0]
1000fcb2:	4608      	mov	r0, r1
1000fcb4:	4770      	bx	lr
1000fcb6:	bf00      	nop
1000fcb8:	40042000 	.word	0x40042000

1000fcbc <MXC_UART_RevB_SetParity>:
1000fcbc:	4a2b      	ldr	r2, [pc, #172]	@ (1000fd6c <MXC_UART_RevB_SetParity+0xb0>)
1000fcbe:	4290      	cmp	r0, r2
1000fcc0:	4603      	mov	r3, r0
1000fcc2:	d00b      	beq.n	1000fcdc <MXC_UART_RevB_SetParity+0x20>
1000fcc4:	f502 5280 	add.w	r2, r2, #4096	@ 0x1000
1000fcc8:	4290      	cmp	r0, r2
1000fcca:	d007      	beq.n	1000fcdc <MXC_UART_RevB_SetParity+0x20>
1000fccc:	f502 5280 	add.w	r2, r2, #4096	@ 0x1000
1000fcd0:	4290      	cmp	r0, r2
1000fcd2:	d003      	beq.n	1000fcdc <MXC_UART_RevB_SetParity+0x20>
1000fcd4:	f502 3275 	add.w	r2, r2, #250880	@ 0x3d400
1000fcd8:	4290      	cmp	r0, r2
1000fcda:	d144      	bne.n	1000fd66 <MXC_UART_RevB_SetParity+0xaa>
1000fcdc:	2904      	cmp	r1, #4
1000fcde:	d842      	bhi.n	1000fd66 <MXC_UART_RevB_SetParity+0xaa>
1000fce0:	e8df f001 	tbb	[pc, r1]
1000fce4:	33251711 	.word	0x33251711
1000fce8:	03          	.byte	0x03
1000fce9:	00          	.byte	0x00
1000fcea:	681a      	ldr	r2, [r3, #0]
1000fcec:	f042 0210 	orr.w	r2, r2, #16
1000fcf0:	601a      	str	r2, [r3, #0]
1000fcf2:	681a      	ldr	r2, [r3, #0]
1000fcf4:	f042 0220 	orr.w	r2, r2, #32
1000fcf8:	601a      	str	r2, [r3, #0]
1000fcfa:	681a      	ldr	r2, [r3, #0]
1000fcfc:	f042 0240 	orr.w	r2, r2, #64	@ 0x40
1000fd00:	2000      	movs	r0, #0
1000fd02:	601a      	str	r2, [r3, #0]
1000fd04:	4770      	bx	lr
1000fd06:	681a      	ldr	r2, [r3, #0]
1000fd08:	f022 0210 	bic.w	r2, r2, #16
1000fd0c:	2000      	movs	r0, #0
1000fd0e:	601a      	str	r2, [r3, #0]
1000fd10:	4770      	bx	lr
1000fd12:	681a      	ldr	r2, [r3, #0]
1000fd14:	f042 0210 	orr.w	r2, r2, #16
1000fd18:	601a      	str	r2, [r3, #0]
1000fd1a:	681a      	ldr	r2, [r3, #0]
1000fd1c:	f022 0220 	bic.w	r2, r2, #32
1000fd20:	601a      	str	r2, [r3, #0]
1000fd22:	681a      	ldr	r2, [r3, #0]
1000fd24:	f022 0240 	bic.w	r2, r2, #64	@ 0x40
1000fd28:	2000      	movs	r0, #0
1000fd2a:	601a      	str	r2, [r3, #0]
1000fd2c:	4770      	bx	lr
1000fd2e:	681a      	ldr	r2, [r3, #0]
1000fd30:	f042 0210 	orr.w	r2, r2, #16
1000fd34:	601a      	str	r2, [r3, #0]
1000fd36:	681a      	ldr	r2, [r3, #0]
1000fd38:	f022 0220 	bic.w	r2, r2, #32
1000fd3c:	601a      	str	r2, [r3, #0]
1000fd3e:	681a      	ldr	r2, [r3, #0]
1000fd40:	f042 0240 	orr.w	r2, r2, #64	@ 0x40
1000fd44:	2000      	movs	r0, #0
1000fd46:	601a      	str	r2, [r3, #0]
1000fd48:	4770      	bx	lr
1000fd4a:	681a      	ldr	r2, [r3, #0]
1000fd4c:	f042 0210 	orr.w	r2, r2, #16
1000fd50:	601a      	str	r2, [r3, #0]
1000fd52:	681a      	ldr	r2, [r3, #0]
1000fd54:	f042 0220 	orr.w	r2, r2, #32
1000fd58:	601a      	str	r2, [r3, #0]
1000fd5a:	681a      	ldr	r2, [r3, #0]
1000fd5c:	f022 0240 	bic.w	r2, r2, #64	@ 0x40
1000fd60:	2000      	movs	r0, #0
1000fd62:	601a      	str	r2, [r3, #0]
1000fd64:	4770      	bx	lr
1000fd66:	f06f 0002 	mvn.w	r0, #2
1000fd6a:	4770      	bx	lr
1000fd6c:	40042000 	.word	0x40042000

1000fd70 <MXC_UART_RevB_ReadCharacterRaw>:
1000fd70:	4b0c      	ldr	r3, [pc, #48]	@ (1000fda4 <MXC_UART_RevB_ReadCharacterRaw+0x34>)
1000fd72:	4298      	cmp	r0, r3
1000fd74:	d00b      	beq.n	1000fd8e <MXC_UART_RevB_ReadCharacterRaw+0x1e>
1000fd76:	f503 5380 	add.w	r3, r3, #4096	@ 0x1000
1000fd7a:	4298      	cmp	r0, r3
1000fd7c:	d007      	beq.n	1000fd8e <MXC_UART_RevB_ReadCharacterRaw+0x1e>
1000fd7e:	f503 5380 	add.w	r3, r3, #4096	@ 0x1000
1000fd82:	4298      	cmp	r0, r3
1000fd84:	d003      	beq.n	1000fd8e <MXC_UART_RevB_ReadCharacterRaw+0x1e>
1000fd86:	f503 3375 	add.w	r3, r3, #250880	@ 0x3d400
1000fd8a:	4298      	cmp	r0, r3
1000fd8c:	d104      	bne.n	1000fd98 <MXC_UART_RevB_ReadCharacterRaw+0x28>
1000fd8e:	6843      	ldr	r3, [r0, #4]
1000fd90:	06db      	lsls	r3, r3, #27
1000fd92:	d404      	bmi.n	1000fd9e <MXC_UART_RevB_ReadCharacterRaw+0x2e>
1000fd94:	6a00      	ldr	r0, [r0, #32]
1000fd96:	4770      	bx	lr
1000fd98:	f06f 0002 	mvn.w	r0, #2
1000fd9c:	4770      	bx	lr
1000fd9e:	f06f 000c 	mvn.w	r0, #12
1000fda2:	4770      	bx	lr
1000fda4:	40042000 	.word	0x40042000

1000fda8 <MXC_UART_RevB_WriteCharacterRaw>:
1000fda8:	4b0d      	ldr	r3, [pc, #52]	@ (1000fde0 <MXC_UART_RevB_WriteCharacterRaw+0x38>)
1000fdaa:	4298      	cmp	r0, r3
1000fdac:	d00b      	beq.n	1000fdc6 <MXC_UART_RevB_WriteCharacterRaw+0x1e>
1000fdae:	f503 5380 	add.w	r3, r3, #4096	@ 0x1000
1000fdb2:	4298      	cmp	r0, r3
1000fdb4:	d007      	beq.n	1000fdc6 <MXC_UART_RevB_WriteCharacterRaw+0x1e>
1000fdb6:	f503 5380 	add.w	r3, r3, #4096	@ 0x1000
1000fdba:	4298      	cmp	r0, r3
1000fdbc:	d003      	beq.n	1000fdc6 <MXC_UART_RevB_WriteCharacterRaw+0x1e>
1000fdbe:	f503 3375 	add.w	r3, r3, #250880	@ 0x3d400
1000fdc2:	4298      	cmp	r0, r3
1000fdc4:	d106      	bne.n	1000fdd4 <MXC_UART_RevB_WriteCharacterRaw+0x2c>
1000fdc6:	6843      	ldr	r3, [r0, #4]
1000fdc8:	f013 0380 	ands.w	r3, r3, #128	@ 0x80
1000fdcc:	d105      	bne.n	1000fdda <MXC_UART_RevB_WriteCharacterRaw+0x32>
1000fdce:	6201      	str	r1, [r0, #32]
1000fdd0:	4618      	mov	r0, r3
1000fdd2:	4770      	bx	lr
1000fdd4:	f06f 0002 	mvn.w	r0, #2
1000fdd8:	4770      	bx	lr
1000fdda:	f06f 000b 	mvn.w	r0, #11
1000fdde:	4770      	bx	lr
1000fde0:	40042000 	.word	0x40042000

1000fde4 <MXC_UART_RevB_GetRXFIFOAvailable>:
1000fde4:	6840      	ldr	r0, [r0, #4]
1000fde6:	f3c0 2003 	ubfx	r0, r0, #8, #4
1000fdea:	4770      	bx	lr

1000fdec <MXC_UART_RevB_GetTXFIFOAvailable>:
1000fdec:	6840      	ldr	r0, [r0, #4]
1000fdee:	f3c0 3003 	ubfx	r0, r0, #12, #4
1000fdf2:	f1c0 0008 	rsb	r0, r0, #8
1000fdf6:	4770      	bx	lr

1000fdf8 <MXC_UART_RevB_SetRXThreshold>:
1000fdf8:	4a0e      	ldr	r2, [pc, #56]	@ (1000fe34 <MXC_UART_RevB_SetRXThreshold+0x3c>)
1000fdfa:	4290      	cmp	r0, r2
1000fdfc:	4603      	mov	r3, r0
1000fdfe:	d00b      	beq.n	1000fe18 <MXC_UART_RevB_SetRXThreshold+0x20>
1000fe00:	f502 5280 	add.w	r2, r2, #4096	@ 0x1000
1000fe04:	4290      	cmp	r0, r2
1000fe06:	d007      	beq.n	1000fe18 <MXC_UART_RevB_SetRXThreshold+0x20>
1000fe08:	f502 5280 	add.w	r2, r2, #4096	@ 0x1000
1000fe0c:	4290      	cmp	r0, r2
1000fe0e:	d003      	beq.n	1000fe18 <MXC_UART_RevB_SetRXThreshold+0x20>
1000fe10:	f502 3275 	add.w	r2, r2, #250880	@ 0x3d400
1000fe14:	4290      	cmp	r0, r2
1000fe16:	d109      	bne.n	1000fe2c <MXC_UART_RevB_SetRXThreshold+0x34>
1000fe18:	1e4a      	subs	r2, r1, #1
1000fe1a:	2a07      	cmp	r2, #7
1000fe1c:	d806      	bhi.n	1000fe2c <MXC_UART_RevB_SetRXThreshold+0x34>
1000fe1e:	681a      	ldr	r2, [r3, #0]
1000fe20:	f022 020f 	bic.w	r2, r2, #15
1000fe24:	4311      	orrs	r1, r2
1000fe26:	2000      	movs	r0, #0
1000fe28:	6019      	str	r1, [r3, #0]
1000fe2a:	4770      	bx	lr
1000fe2c:	f06f 0002 	mvn.w	r0, #2
1000fe30:	4770      	bx	lr
1000fe32:	bf00      	nop
1000fe34:	40042000 	.word	0x40042000

1000fe38 <MXC_GPIO_Common_Init>:
1000fe38:	b510      	push	{r4, lr}
1000fe3a:	4c06      	ldr	r4, [pc, #24]	@ (1000fe54 <MXC_GPIO_Common_Init+0x1c>)
1000fe3c:	7821      	ldrb	r1, [r4, #0]
1000fe3e:	b931      	cbnz	r1, 1000fe4e <MXC_GPIO_Common_Init+0x16>
1000fe40:	4805      	ldr	r0, [pc, #20]	@ (1000fe58 <MXC_GPIO_Common_Init+0x20>)
1000fe42:	f44f 7200 	mov.w	r2, #512	@ 0x200
1000fe46:	f004 f8e7 	bl	10014018 <memset>
1000fe4a:	2301      	movs	r3, #1
1000fe4c:	7023      	strb	r3, [r4, #0]
1000fe4e:	2000      	movs	r0, #0
1000fe50:	bd10      	pop	{r4, pc}
1000fe52:	bf00      	nop
1000fe54:	20001028 	.word	0x20001028
1000fe58:	20000c28 	.word	0x20000c28

1000fe5c <MXC_GPIO_Common_Handler>:
1000fe5c:	2803      	cmp	r0, #3
1000fe5e:	b570      	push	{r4, r5, r6, lr}
1000fe60:	4605      	mov	r5, r0
1000fe62:	d825      	bhi.n	1000feb0 <MXC_GPIO_Common_Handler+0x54>
1000fe64:	b9e0      	cbnz	r0, 1000fea0 <MXC_GPIO_Common_Handler+0x44>
1000fe66:	4e17      	ldr	r6, [pc, #92]	@ (1000fec4 <MXC_GPIO_Common_Handler+0x68>)
1000fe68:	4630      	mov	r0, r6
1000fe6a:	f7ff f9dd 	bl	1000f228 <MXC_GPIO_GetFlags>
1000fe6e:	4604      	mov	r4, r0
1000fe70:	4601      	mov	r1, r0
1000fe72:	4630      	mov	r0, r6
1000fe74:	f7ff f9d6 	bl	1000f224 <MXC_GPIO_ClearFlags>
1000fe78:	b18c      	cbz	r4, 1000fe9e <MXC_GPIO_Common_Handler+0x42>
1000fe7a:	4e13      	ldr	r6, [pc, #76]	@ (1000fec8 <MXC_GPIO_Common_Handler+0x6c>)
1000fe7c:	4b13      	ldr	r3, [pc, #76]	@ (1000fecc <MXC_GPIO_Common_Handler+0x70>)
1000fe7e:	eb06 16c5 	add.w	r6, r6, r5, lsl #7
1000fe82:	eb03 15c5 	add.w	r5, r3, r5, lsl #7
1000fe86:	07e3      	lsls	r3, r4, #31
1000fe88:	d503      	bpl.n	1000fe92 <MXC_GPIO_Common_Handler+0x36>
1000fe8a:	682b      	ldr	r3, [r5, #0]
1000fe8c:	b10b      	cbz	r3, 1000fe92 <MXC_GPIO_Common_Handler+0x36>
1000fe8e:	6830      	ldr	r0, [r6, #0]
1000fe90:	4798      	blx	r3
1000fe92:	0864      	lsrs	r4, r4, #1
1000fe94:	f106 0604 	add.w	r6, r6, #4
1000fe98:	f105 0504 	add.w	r5, r5, #4
1000fe9c:	d1f3      	bne.n	1000fe86 <MXC_GPIO_Common_Handler+0x2a>
1000fe9e:	bd70      	pop	{r4, r5, r6, pc}
1000fea0:	2801      	cmp	r0, #1
1000fea2:	d00c      	beq.n	1000febe <MXC_GPIO_Common_Handler+0x62>
1000fea4:	4e0a      	ldr	r6, [pc, #40]	@ (1000fed0 <MXC_GPIO_Common_Handler+0x74>)
1000fea6:	4b0b      	ldr	r3, [pc, #44]	@ (1000fed4 <MXC_GPIO_Common_Handler+0x78>)
1000fea8:	2802      	cmp	r0, #2
1000feaa:	bf18      	it	ne
1000feac:	461e      	movne	r6, r3
1000feae:	e7db      	b.n	1000fe68 <MXC_GPIO_Common_Handler+0xc>
1000feb0:	4909      	ldr	r1, [pc, #36]	@ (1000fed8 <MXC_GPIO_Common_Handler+0x7c>)
1000feb2:	480a      	ldr	r0, [pc, #40]	@ (1000fedc <MXC_GPIO_Common_Handler+0x80>)
1000feb4:	225a      	movs	r2, #90	@ 0x5a
1000feb6:	f7fe fc2b 	bl	1000e710 <mxc_assert>
1000feba:	2600      	movs	r6, #0
1000febc:	e7d4      	b.n	1000fe68 <MXC_GPIO_Common_Handler+0xc>
1000febe:	4e08      	ldr	r6, [pc, #32]	@ (1000fee0 <MXC_GPIO_Common_Handler+0x84>)
1000fec0:	e7d2      	b.n	1000fe68 <MXC_GPIO_Common_Handler+0xc>
1000fec2:	bf00      	nop
1000fec4:	40008000 	.word	0x40008000
1000fec8:	20000e28 	.word	0x20000e28
1000fecc:	20000c28 	.word	0x20000c28
1000fed0:	40080400 	.word	0x40080400
1000fed4:	40080600 	.word	0x40080600
1000fed8:	100191e4 	.word	0x100191e4
1000fedc:	10019244 	.word	0x10019244
1000fee0:	40009000 	.word	0x40009000

1000fee4 <_malloc_r>:
1000fee4:	e92d 4ff0 	stmdb	sp!, {r4, r5, r6, r7, r8, r9, sl, fp, lr}
1000fee8:	f101 050b 	add.w	r5, r1, #11
1000feec:	2d16      	cmp	r5, #22
1000feee:	b085      	sub	sp, #20
1000fef0:	4606      	mov	r6, r0
1000fef2:	d824      	bhi.n	1000ff3e <_malloc_r+0x5a>
1000fef4:	2910      	cmp	r1, #16
1000fef6:	f200 80b1 	bhi.w	1001005c <_malloc_r+0x178>
1000fefa:	f003 f985 	bl	10013208 <__malloc_lock>
1000fefe:	2510      	movs	r5, #16
1000ff00:	2318      	movs	r3, #24
1000ff02:	f04f 0c02 	mov.w	ip, #2
1000ff06:	4fba      	ldr	r7, [pc, #744]	@ (100101f0 <_malloc_r+0x30c>)
1000ff08:	443b      	add	r3, r7
1000ff0a:	f1a3 0208 	sub.w	r2, r3, #8
1000ff0e:	685c      	ldr	r4, [r3, #4]
1000ff10:	4294      	cmp	r4, r2
1000ff12:	f000 8122 	beq.w	1001015a <_malloc_r+0x276>
1000ff16:	6863      	ldr	r3, [r4, #4]
1000ff18:	68e2      	ldr	r2, [r4, #12]
1000ff1a:	68a1      	ldr	r1, [r4, #8]
1000ff1c:	f023 0303 	bic.w	r3, r3, #3
1000ff20:	60ca      	str	r2, [r1, #12]
1000ff22:	4423      	add	r3, r4
1000ff24:	4630      	mov	r0, r6
1000ff26:	6091      	str	r1, [r2, #8]
1000ff28:	685a      	ldr	r2, [r3, #4]
1000ff2a:	f042 0201 	orr.w	r2, r2, #1
1000ff2e:	605a      	str	r2, [r3, #4]
1000ff30:	3408      	adds	r4, #8
1000ff32:	f003 f96f 	bl	10013214 <__malloc_unlock>
1000ff36:	4620      	mov	r0, r4
1000ff38:	b005      	add	sp, #20
1000ff3a:	e8bd 8ff0 	ldmia.w	sp!, {r4, r5, r6, r7, r8, r9, sl, fp, pc}
1000ff3e:	f035 0507 	bics.w	r5, r5, #7
1000ff42:	f100 808b 	bmi.w	1001005c <_malloc_r+0x178>
1000ff46:	42a9      	cmp	r1, r5
1000ff48:	f200 8088 	bhi.w	1001005c <_malloc_r+0x178>
1000ff4c:	f003 f95c 	bl	10013208 <__malloc_lock>
1000ff50:	f5b5 7ffc 	cmp.w	r5, #504	@ 0x1f8
1000ff54:	f0c0 8173 	bcc.w	1001023e <_malloc_r+0x35a>
1000ff58:	0a6b      	lsrs	r3, r5, #9
1000ff5a:	f000 8083 	beq.w	10010064 <_malloc_r+0x180>
1000ff5e:	2b04      	cmp	r3, #4
1000ff60:	f200 8122 	bhi.w	100101a8 <_malloc_r+0x2c4>
1000ff64:	09ab      	lsrs	r3, r5, #6
1000ff66:	f103 0c39 	add.w	ip, r3, #57	@ 0x39
1000ff6a:	f103 0e38 	add.w	lr, r3, #56	@ 0x38
1000ff6e:	ea4f 03cc 	mov.w	r3, ip, lsl #3
1000ff72:	4f9f      	ldr	r7, [pc, #636]	@ (100101f0 <_malloc_r+0x30c>)
1000ff74:	443b      	add	r3, r7
1000ff76:	f1a3 0008 	sub.w	r0, r3, #8
1000ff7a:	685c      	ldr	r4, [r3, #4]
1000ff7c:	42a0      	cmp	r0, r4
1000ff7e:	d107      	bne.n	1000ff90 <_malloc_r+0xac>
1000ff80:	e00d      	b.n	1000ff9e <_malloc_r+0xba>
1000ff82:	2a00      	cmp	r2, #0
1000ff84:	68e1      	ldr	r1, [r4, #12]
1000ff86:	f280 80e2 	bge.w	1001014e <_malloc_r+0x26a>
1000ff8a:	4288      	cmp	r0, r1
1000ff8c:	d007      	beq.n	1000ff9e <_malloc_r+0xba>
1000ff8e:	460c      	mov	r4, r1
1000ff90:	6863      	ldr	r3, [r4, #4]
1000ff92:	f023 0303 	bic.w	r3, r3, #3
1000ff96:	1b5a      	subs	r2, r3, r5
1000ff98:	2a0f      	cmp	r2, #15
1000ff9a:	ddf2      	ble.n	1000ff82 <_malloc_r+0x9e>
1000ff9c:	46f4      	mov	ip, lr
1000ff9e:	f8df 8264 	ldr.w	r8, [pc, #612]	@ 10010204 <_malloc_r+0x320>
1000ffa2:	693c      	ldr	r4, [r7, #16]
1000ffa4:	4544      	cmp	r4, r8
1000ffa6:	f000 80bf 	beq.w	10010128 <_malloc_r+0x244>
1000ffaa:	6863      	ldr	r3, [r4, #4]
1000ffac:	f023 0903 	bic.w	r9, r3, #3
1000ffb0:	eba9 0305 	sub.w	r3, r9, r5
1000ffb4:	2b0f      	cmp	r3, #15
1000ffb6:	f300 8147 	bgt.w	10010248 <_malloc_r+0x364>
1000ffba:	2b00      	cmp	r3, #0
1000ffbc:	e9c7 8804 	strd	r8, r8, [r7, #16]
1000ffc0:	f280 8131 	bge.w	10010226 <_malloc_r+0x342>
1000ffc4:	f5b9 7f00 	cmp.w	r9, #512	@ 0x200
1000ffc8:	f8d7 e004 	ldr.w	lr, [r7, #4]
1000ffcc:	f080 80cc 	bcs.w	10010168 <_malloc_r+0x284>
1000ffd0:	ea4f 01d9 	mov.w	r1, r9, lsr #3
1000ffd4:	3101      	adds	r1, #1
1000ffd6:	ea4f 1959 	mov.w	r9, r9, lsr #5
1000ffda:	2301      	movs	r3, #1
1000ffdc:	fa03 f309 	lsl.w	r3, r3, r9
1000ffe0:	f857 2031 	ldr.w	r2, [r7, r1, lsl #3]
1000ffe4:	60a2      	str	r2, [r4, #8]
1000ffe6:	ea4e 0e03 	orr.w	lr, lr, r3
1000ffea:	eb07 03c1 	add.w	r3, r7, r1, lsl #3
1000ffee:	3b08      	subs	r3, #8
1000fff0:	60e3      	str	r3, [r4, #12]
1000fff2:	f8c7 e004 	str.w	lr, [r7, #4]
1000fff6:	f847 4031 	str.w	r4, [r7, r1, lsl #3]
1000fffa:	60d4      	str	r4, [r2, #12]
1000fffc:	ea4f 03ac 	mov.w	r3, ip, asr #2
10010000:	2001      	movs	r0, #1
10010002:	4098      	lsls	r0, r3
10010004:	4570      	cmp	r0, lr
10010006:	d834      	bhi.n	10010072 <_malloc_r+0x18e>
10010008:	ea10 0f0e 	tst.w	r0, lr
1001000c:	d107      	bne.n	1001001e <_malloc_r+0x13a>
1001000e:	f02c 0c03 	bic.w	ip, ip, #3
10010012:	0040      	lsls	r0, r0, #1
10010014:	ea10 0f0e 	tst.w	r0, lr
10010018:	f10c 0c04 	add.w	ip, ip, #4
1001001c:	d0f9      	beq.n	10010012 <_malloc_r+0x12e>
1001001e:	eb07 0acc 	add.w	sl, r7, ip, lsl #3
10010022:	4652      	mov	r2, sl
10010024:	46e1      	mov	r9, ip
10010026:	68d1      	ldr	r1, [r2, #12]
10010028:	e00e      	b.n	10010048 <_malloc_r+0x164>
1001002a:	684b      	ldr	r3, [r1, #4]
1001002c:	f023 0303 	bic.w	r3, r3, #3
10010030:	eba3 0e05 	sub.w	lr, r3, r5
10010034:	f1be 0f0f 	cmp.w	lr, #15
10010038:	460c      	mov	r4, r1
1001003a:	68c9      	ldr	r1, [r1, #12]
1001003c:	f300 80c1 	bgt.w	100101c2 <_malloc_r+0x2de>
10010040:	f1be 0f00 	cmp.w	lr, #0
10010044:	f280 80e2 	bge.w	1001020c <_malloc_r+0x328>
10010048:	428a      	cmp	r2, r1
1001004a:	d1ee      	bne.n	1001002a <_malloc_r+0x146>
1001004c:	f109 0901 	add.w	r9, r9, #1
10010050:	f019 0f03 	tst.w	r9, #3
10010054:	f102 0208 	add.w	r2, r2, #8
10010058:	d1e5      	bne.n	10010026 <_malloc_r+0x142>
1001005a:	e121      	b.n	100102a0 <_malloc_r+0x3bc>
1001005c:	230c      	movs	r3, #12
1001005e:	6033      	str	r3, [r6, #0]
10010060:	2400      	movs	r4, #0
10010062:	e768      	b.n	1000ff36 <_malloc_r+0x52>
10010064:	f44f 7300 	mov.w	r3, #512	@ 0x200
10010068:	f04f 0c40 	mov.w	ip, #64	@ 0x40
1001006c:	f04f 0e3f 	mov.w	lr, #63	@ 0x3f
10010070:	e77f      	b.n	1000ff72 <_malloc_r+0x8e>
10010072:	68bc      	ldr	r4, [r7, #8]
10010074:	6863      	ldr	r3, [r4, #4]
10010076:	f023 0903 	bic.w	r9, r3, #3
1001007a:	45a9      	cmp	r9, r5
1001007c:	d303      	bcc.n	10010086 <_malloc_r+0x1a2>
1001007e:	eba9 0305 	sub.w	r3, r9, r5
10010082:	2b0f      	cmp	r3, #15
10010084:	dc53      	bgt.n	1001012e <_malloc_r+0x24a>
10010086:	4b5b      	ldr	r3, [pc, #364]	@ (100101f4 <_malloc_r+0x310>)
10010088:	f8df b17c 	ldr.w	fp, [pc, #380]	@ 10010208 <_malloc_r+0x324>
1001008c:	681b      	ldr	r3, [r3, #0]
1001008e:	2008      	movs	r0, #8
10010090:	f103 0810 	add.w	r8, r3, #16
10010094:	f004 f87e 	bl	10014194 <sysconf>
10010098:	f8db 3000 	ldr.w	r3, [fp]
1001009c:	9001      	str	r0, [sp, #4]
1001009e:	3301      	adds	r3, #1
100100a0:	44a8      	add	r8, r5
100100a2:	eb04 0209 	add.w	r2, r4, r9
100100a6:	d005      	beq.n	100100b4 <_malloc_r+0x1d0>
100100a8:	f108 38ff 	add.w	r8, r8, #4294967295	@ 0xffffffff
100100ac:	4480      	add	r8, r0
100100ae:	4243      	negs	r3, r0
100100b0:	ea03 0808 	and.w	r8, r3, r8
100100b4:	4641      	mov	r1, r8
100100b6:	4630      	mov	r0, r6
100100b8:	9202      	str	r2, [sp, #8]
100100ba:	f004 f853 	bl	10014164 <_sbrk_r>
100100be:	f1b0 3fff 	cmp.w	r0, #4294967295	@ 0xffffffff
100100c2:	9a02      	ldr	r2, [sp, #8]
100100c4:	4682      	mov	sl, r0
100100c6:	f000 80dc 	beq.w	10010282 <_malloc_r+0x39e>
100100ca:	4282      	cmp	r2, r0
100100cc:	f200 80d7 	bhi.w	1001027e <_malloc_r+0x39a>
100100d0:	4b49      	ldr	r3, [pc, #292]	@ (100101f8 <_malloc_r+0x314>)
100100d2:	9901      	ldr	r1, [sp, #4]
100100d4:	6818      	ldr	r0, [r3, #0]
100100d6:	4440      	add	r0, r8
100100d8:	f101 31ff 	add.w	r1, r1, #4294967295	@ 0xffffffff
100100dc:	6018      	str	r0, [r3, #0]
100100de:	4684      	mov	ip, r0
100100e0:	f040 80fc 	bne.w	100102dc <_malloc_r+0x3f8>
100100e4:	ea1a 0f01 	tst.w	sl, r1
100100e8:	f040 80f8 	bne.w	100102dc <_malloc_r+0x3f8>
100100ec:	f8d7 a008 	ldr.w	sl, [r7, #8]
100100f0:	44c8      	add	r8, r9
100100f2:	f048 0201 	orr.w	r2, r8, #1
100100f6:	f8ca 2004 	str.w	r2, [sl, #4]
100100fa:	4b40      	ldr	r3, [pc, #256]	@ (100101fc <_malloc_r+0x318>)
100100fc:	6819      	ldr	r1, [r3, #0]
100100fe:	4281      	cmp	r1, r0
10010100:	bf38      	it	cc
10010102:	6018      	strcc	r0, [r3, #0]
10010104:	4b3e      	ldr	r3, [pc, #248]	@ (10010200 <_malloc_r+0x31c>)
10010106:	6819      	ldr	r1, [r3, #0]
10010108:	4281      	cmp	r1, r0
1001010a:	bf38      	it	cc
1001010c:	6018      	strcc	r0, [r3, #0]
1001010e:	4654      	mov	r4, sl
10010110:	f022 0803 	bic.w	r8, r2, #3
10010114:	45a8      	cmp	r8, r5
10010116:	eba8 0305 	sub.w	r3, r8, r5
1001011a:	d301      	bcc.n	10010120 <_malloc_r+0x23c>
1001011c:	2b0f      	cmp	r3, #15
1001011e:	dc06      	bgt.n	1001012e <_malloc_r+0x24a>
10010120:	4630      	mov	r0, r6
10010122:	f003 f877 	bl	10013214 <__malloc_unlock>
10010126:	e79b      	b.n	10010060 <_malloc_r+0x17c>
10010128:	f8d7 e004 	ldr.w	lr, [r7, #4]
1001012c:	e766      	b.n	1000fffc <_malloc_r+0x118>
1001012e:	1962      	adds	r2, r4, r5
10010130:	f043 0301 	orr.w	r3, r3, #1
10010134:	f045 0501 	orr.w	r5, r5, #1
10010138:	6065      	str	r5, [r4, #4]
1001013a:	4630      	mov	r0, r6
1001013c:	60ba      	str	r2, [r7, #8]
1001013e:	6053      	str	r3, [r2, #4]
10010140:	f003 f868 	bl	10013214 <__malloc_unlock>
10010144:	3408      	adds	r4, #8
10010146:	4620      	mov	r0, r4
10010148:	b005      	add	sp, #20
1001014a:	e8bd 8ff0 	ldmia.w	sp!, {r4, r5, r6, r7, r8, r9, sl, fp, pc}
1001014e:	68a2      	ldr	r2, [r4, #8]
10010150:	4423      	add	r3, r4
10010152:	60d1      	str	r1, [r2, #12]
10010154:	4630      	mov	r0, r6
10010156:	608a      	str	r2, [r1, #8]
10010158:	e6e6      	b.n	1000ff28 <_malloc_r+0x44>
1001015a:	68dc      	ldr	r4, [r3, #12]
1001015c:	42a3      	cmp	r3, r4
1001015e:	f47f aeda 	bne.w	1000ff16 <_malloc_r+0x32>
10010162:	f10c 0c02 	add.w	ip, ip, #2
10010166:	e71a      	b.n	1000ff9e <_malloc_r+0xba>
10010168:	f5b9 6f20 	cmp.w	r9, #2560	@ 0xa00
1001016c:	ea4f 2259 	mov.w	r2, r9, lsr #9
10010170:	d37e      	bcc.n	10010270 <_malloc_r+0x38c>
10010172:	2a14      	cmp	r2, #20
10010174:	f200 8115 	bhi.w	100103a2 <_malloc_r+0x4be>
10010178:	f102 035c 	add.w	r3, r2, #92	@ 0x5c
1001017c:	00db      	lsls	r3, r3, #3
1001017e:	325b      	adds	r2, #91	@ 0x5b
10010180:	18f9      	adds	r1, r7, r3
10010182:	58fb      	ldr	r3, [r7, r3]
10010184:	3908      	subs	r1, #8
10010186:	4299      	cmp	r1, r3
10010188:	d103      	bne.n	10010192 <_malloc_r+0x2ae>
1001018a:	e0f0      	b.n	1001036e <_malloc_r+0x48a>
1001018c:	689b      	ldr	r3, [r3, #8]
1001018e:	4299      	cmp	r1, r3
10010190:	d004      	beq.n	1001019c <_malloc_r+0x2b8>
10010192:	685a      	ldr	r2, [r3, #4]
10010194:	f022 0203 	bic.w	r2, r2, #3
10010198:	454a      	cmp	r2, r9
1001019a:	d8f7      	bhi.n	1001018c <_malloc_r+0x2a8>
1001019c:	68d9      	ldr	r1, [r3, #12]
1001019e:	e9c4 3102 	strd	r3, r1, [r4, #8]
100101a2:	608c      	str	r4, [r1, #8]
100101a4:	60dc      	str	r4, [r3, #12]
100101a6:	e729      	b.n	1000fffc <_malloc_r+0x118>
100101a8:	2b14      	cmp	r3, #20
100101aa:	d96d      	bls.n	10010288 <_malloc_r+0x3a4>
100101ac:	2b54      	cmp	r3, #84	@ 0x54
100101ae:	f200 8101 	bhi.w	100103b4 <_malloc_r+0x4d0>
100101b2:	0b2b      	lsrs	r3, r5, #12
100101b4:	f103 0c6f 	add.w	ip, r3, #111	@ 0x6f
100101b8:	f103 0e6e 	add.w	lr, r3, #110	@ 0x6e
100101bc:	ea4f 03cc 	mov.w	r3, ip, lsl #3
100101c0:	e6d7      	b.n	1000ff72 <_malloc_r+0x8e>
100101c2:	4630      	mov	r0, r6
100101c4:	68a6      	ldr	r6, [r4, #8]
100101c6:	1962      	adds	r2, r4, r5
100101c8:	f045 0501 	orr.w	r5, r5, #1
100101cc:	6065      	str	r5, [r4, #4]
100101ce:	60f1      	str	r1, [r6, #12]
100101d0:	608e      	str	r6, [r1, #8]
100101d2:	f04e 0101 	orr.w	r1, lr, #1
100101d6:	e9c7 2204 	strd	r2, r2, [r7, #16]
100101da:	f8c2 8008 	str.w	r8, [r2, #8]
100101de:	f8c2 800c 	str.w	r8, [r2, #12]
100101e2:	6051      	str	r1, [r2, #4]
100101e4:	f844 e003 	str.w	lr, [r4, r3]
100101e8:	f003 f814 	bl	10013214 <__malloc_unlock>
100101ec:	3408      	adds	r4, #8
100101ee:	e6a2      	b.n	1000ff36 <_malloc_r+0x52>
100101f0:	20000040 	.word	0x20000040
100101f4:	2000105c 	.word	0x2000105c
100101f8:	2000102c 	.word	0x2000102c
100101fc:	20001058 	.word	0x20001058
10010200:	20001054 	.word	0x20001054
10010204:	20000048 	.word	0x20000048
10010208:	20000038 	.word	0x20000038
1001020c:	4423      	add	r3, r4
1001020e:	4630      	mov	r0, r6
10010210:	685a      	ldr	r2, [r3, #4]
10010212:	f042 0201 	orr.w	r2, r2, #1
10010216:	605a      	str	r2, [r3, #4]
10010218:	f854 3f08 	ldr.w	r3, [r4, #8]!
1001021c:	60d9      	str	r1, [r3, #12]
1001021e:	608b      	str	r3, [r1, #8]
10010220:	f002 fff8 	bl	10013214 <__malloc_unlock>
10010224:	e687      	b.n	1000ff36 <_malloc_r+0x52>
10010226:	44a1      	add	r9, r4
10010228:	4630      	mov	r0, r6
1001022a:	f8d9 3004 	ldr.w	r3, [r9, #4]
1001022e:	f043 0301 	orr.w	r3, r3, #1
10010232:	f8c9 3004 	str.w	r3, [r9, #4]
10010236:	3408      	adds	r4, #8
10010238:	f002 ffec 	bl	10013214 <__malloc_unlock>
1001023c:	e67b      	b.n	1000ff36 <_malloc_r+0x52>
1001023e:	ea4f 0cd5 	mov.w	ip, r5, lsr #3
10010242:	f105 0308 	add.w	r3, r5, #8
10010246:	e65e      	b.n	1000ff06 <_malloc_r+0x22>
10010248:	1962      	adds	r2, r4, r5
1001024a:	f043 0101 	orr.w	r1, r3, #1
1001024e:	f045 0501 	orr.w	r5, r5, #1
10010252:	6065      	str	r5, [r4, #4]
10010254:	4630      	mov	r0, r6
10010256:	e9c7 2204 	strd	r2, r2, [r7, #16]
1001025a:	f8c2 8008 	str.w	r8, [r2, #8]
1001025e:	f8c2 800c 	str.w	r8, [r2, #12]
10010262:	6051      	str	r1, [r2, #4]
10010264:	f844 3009 	str.w	r3, [r4, r9]
10010268:	f002 ffd4 	bl	10013214 <__malloc_unlock>
1001026c:	3408      	adds	r4, #8
1001026e:	e662      	b.n	1000ff36 <_malloc_r+0x52>
10010270:	ea4f 1299 	mov.w	r2, r9, lsr #6
10010274:	f102 0339 	add.w	r3, r2, #57	@ 0x39
10010278:	00db      	lsls	r3, r3, #3
1001027a:	3238      	adds	r2, #56	@ 0x38
1001027c:	e780      	b.n	10010180 <_malloc_r+0x29c>
1001027e:	42bc      	cmp	r4, r7
10010280:	d024      	beq.n	100102cc <_malloc_r+0x3e8>
10010282:	68bc      	ldr	r4, [r7, #8]
10010284:	6862      	ldr	r2, [r4, #4]
10010286:	e743      	b.n	10010110 <_malloc_r+0x22c>
10010288:	f103 0c5c 	add.w	ip, r3, #92	@ 0x5c
1001028c:	f103 0e5b 	add.w	lr, r3, #91	@ 0x5b
10010290:	ea4f 03cc 	mov.w	r3, ip, lsl #3
10010294:	e66d      	b.n	1000ff72 <_malloc_r+0x8e>
10010296:	f85a 3908 	ldr.w	r3, [sl], #-8
1001029a:	4553      	cmp	r3, sl
1001029c:	f040 80d8 	bne.w	10010450 <_malloc_r+0x56c>
100102a0:	f01c 0f03 	tst.w	ip, #3
100102a4:	f10c 3cff 	add.w	ip, ip, #4294967295	@ 0xffffffff
100102a8:	d1f5      	bne.n	10010296 <_malloc_r+0x3b2>
100102aa:	687b      	ldr	r3, [r7, #4]
100102ac:	ea23 0300 	bic.w	r3, r3, r0
100102b0:	607b      	str	r3, [r7, #4]
100102b2:	0040      	lsls	r0, r0, #1
100102b4:	4298      	cmp	r0, r3
100102b6:	f63f aedc 	bhi.w	10010072 <_malloc_r+0x18e>
100102ba:	b918      	cbnz	r0, 100102c4 <_malloc_r+0x3e0>
100102bc:	e6d9      	b.n	10010072 <_malloc_r+0x18e>
100102be:	0040      	lsls	r0, r0, #1
100102c0:	f109 0904 	add.w	r9, r9, #4
100102c4:	4218      	tst	r0, r3
100102c6:	d0fa      	beq.n	100102be <_malloc_r+0x3da>
100102c8:	46cc      	mov	ip, r9
100102ca:	e6a8      	b.n	1001001e <_malloc_r+0x13a>
100102cc:	4b61      	ldr	r3, [pc, #388]	@ (10010454 <_malloc_r+0x570>)
100102ce:	9901      	ldr	r1, [sp, #4]
100102d0:	6818      	ldr	r0, [r3, #0]
100102d2:	eb08 0c00 	add.w	ip, r8, r0
100102d6:	3901      	subs	r1, #1
100102d8:	f8c3 c000 	str.w	ip, [r3]
100102dc:	f8db 0000 	ldr.w	r0, [fp]
100102e0:	3001      	adds	r0, #1
100102e2:	bf1b      	ittet	ne
100102e4:	ebaa 0202 	subne.w	r2, sl, r2
100102e8:	4462      	addne	r2, ip
100102ea:	f8cb a000 	streq.w	sl, [fp]
100102ee:	601a      	strne	r2, [r3, #0]
100102f0:	f01a 0207 	ands.w	r2, sl, #7
100102f4:	e9cd 2302 	strd	r2, r3, [sp, #8]
100102f8:	d042      	beq.n	10010380 <_malloc_r+0x49c>
100102fa:	f1c2 0208 	rsb	r2, r2, #8
100102fe:	9b01      	ldr	r3, [sp, #4]
10010300:	4492      	add	sl, r2
10010302:	44d0      	add	r8, sl
10010304:	4413      	add	r3, r2
10010306:	ea08 0001 	and.w	r0, r8, r1
1001030a:	1a1a      	subs	r2, r3, r0
1001030c:	ea02 0b01 	and.w	fp, r2, r1
10010310:	4659      	mov	r1, fp
10010312:	4630      	mov	r0, r6
10010314:	f003 ff26 	bl	10014164 <_sbrk_r>
10010318:	1c42      	adds	r2, r0, #1
1001031a:	9b03      	ldr	r3, [sp, #12]
1001031c:	d07a      	beq.n	10010414 <_malloc_r+0x530>
1001031e:	eba0 000a 	sub.w	r0, r0, sl
10010322:	eb00 080b 	add.w	r8, r0, fp
10010326:	6818      	ldr	r0, [r3, #0]
10010328:	f8c7 a008 	str.w	sl, [r7, #8]
1001032c:	f048 0201 	orr.w	r2, r8, #1
10010330:	4458      	add	r0, fp
10010332:	42bc      	cmp	r4, r7
10010334:	f8ca 2004 	str.w	r2, [sl, #4]
10010338:	6018      	str	r0, [r3, #0]
1001033a:	f43f aede 	beq.w	100100fa <_malloc_r+0x216>
1001033e:	f1b9 0f0f 	cmp.w	r9, #15
10010342:	d942      	bls.n	100103ca <_malloc_r+0x4e6>
10010344:	6861      	ldr	r1, [r4, #4]
10010346:	f1a9 020c 	sub.w	r2, r9, #12
1001034a:	f022 0207 	bic.w	r2, r2, #7
1001034e:	f001 0101 	and.w	r1, r1, #1
10010352:	4311      	orrs	r1, r2
10010354:	6061      	str	r1, [r4, #4]
10010356:	18a1      	adds	r1, r4, r2
10010358:	f04f 0c05 	mov.w	ip, #5
1001035c:	2a0f      	cmp	r2, #15
1001035e:	f8c1 c004 	str.w	ip, [r1, #4]
10010362:	f8c1 c008 	str.w	ip, [r1, #8]
10010366:	d84a      	bhi.n	100103fe <_malloc_r+0x51a>
10010368:	f8da 2004 	ldr.w	r2, [sl, #4]
1001036c:	e6c5      	b.n	100100fa <_malloc_r+0x216>
1001036e:	1092      	asrs	r2, r2, #2
10010370:	2001      	movs	r0, #1
10010372:	fa00 f202 	lsl.w	r2, r0, r2
10010376:	ea4e 0e02 	orr.w	lr, lr, r2
1001037a:	f8c7 e004 	str.w	lr, [r7, #4]
1001037e:	e70e      	b.n	1001019e <_malloc_r+0x2ba>
10010380:	9b01      	ldr	r3, [sp, #4]
10010382:	eb0a 0208 	add.w	r2, sl, r8
10010386:	400a      	ands	r2, r1
10010388:	1a9a      	subs	r2, r3, r2
1001038a:	ea02 0b01 	and.w	fp, r2, r1
1001038e:	4659      	mov	r1, fp
10010390:	4630      	mov	r0, r6
10010392:	f003 fee7 	bl	10014164 <_sbrk_r>
10010396:	1c43      	adds	r3, r0, #1
10010398:	9b03      	ldr	r3, [sp, #12]
1001039a:	d1c0      	bne.n	1001031e <_malloc_r+0x43a>
1001039c:	f8dd b008 	ldr.w	fp, [sp, #8]
100103a0:	e7c1      	b.n	10010326 <_malloc_r+0x442>
100103a2:	2a54      	cmp	r2, #84	@ 0x54
100103a4:	d815      	bhi.n	100103d2 <_malloc_r+0x4ee>
100103a6:	ea4f 3219 	mov.w	r2, r9, lsr #12
100103aa:	f102 036f 	add.w	r3, r2, #111	@ 0x6f
100103ae:	00db      	lsls	r3, r3, #3
100103b0:	326e      	adds	r2, #110	@ 0x6e
100103b2:	e6e5      	b.n	10010180 <_malloc_r+0x29c>
100103b4:	f5b3 7faa 	cmp.w	r3, #340	@ 0x154
100103b8:	d815      	bhi.n	100103e6 <_malloc_r+0x502>
100103ba:	0beb      	lsrs	r3, r5, #15
100103bc:	f103 0c78 	add.w	ip, r3, #120	@ 0x78
100103c0:	f103 0e77 	add.w	lr, r3, #119	@ 0x77
100103c4:	ea4f 03cc 	mov.w	r3, ip, lsl #3
100103c8:	e5d3      	b.n	1000ff72 <_malloc_r+0x8e>
100103ca:	2301      	movs	r3, #1
100103cc:	f8ca 3004 	str.w	r3, [sl, #4]
100103d0:	e6a6      	b.n	10010120 <_malloc_r+0x23c>
100103d2:	f5b2 7faa 	cmp.w	r2, #340	@ 0x154
100103d6:	d825      	bhi.n	10010424 <_malloc_r+0x540>
100103d8:	ea4f 32d9 	mov.w	r2, r9, lsr #15
100103dc:	f102 0378 	add.w	r3, r2, #120	@ 0x78
100103e0:	00db      	lsls	r3, r3, #3
100103e2:	3277      	adds	r2, #119	@ 0x77
100103e4:	e6cc      	b.n	10010180 <_malloc_r+0x29c>
100103e6:	f240 5254 	movw	r2, #1364	@ 0x554
100103ea:	4293      	cmp	r3, r2
100103ec:	d825      	bhi.n	1001043a <_malloc_r+0x556>
100103ee:	0cab      	lsrs	r3, r5, #18
100103f0:	f103 0c7d 	add.w	ip, r3, #125	@ 0x7d
100103f4:	f103 0e7c 	add.w	lr, r3, #124	@ 0x7c
100103f8:	ea4f 03cc 	mov.w	r3, ip, lsl #3
100103fc:	e5b9      	b.n	1000ff72 <_malloc_r+0x8e>
100103fe:	4630      	mov	r0, r6
10010400:	f104 0108 	add.w	r1, r4, #8
10010404:	9301      	str	r3, [sp, #4]
10010406:	f005 f8f5 	bl	100155f4 <_free_r>
1001040a:	9b01      	ldr	r3, [sp, #4]
1001040c:	f8d7 a008 	ldr.w	sl, [r7, #8]
10010410:	6818      	ldr	r0, [r3, #0]
10010412:	e7a9      	b.n	10010368 <_malloc_r+0x484>
10010414:	9a02      	ldr	r2, [sp, #8]
10010416:	3a08      	subs	r2, #8
10010418:	4490      	add	r8, r2
1001041a:	eba8 080a 	sub.w	r8, r8, sl
1001041e:	f04f 0b00 	mov.w	fp, #0
10010422:	e780      	b.n	10010326 <_malloc_r+0x442>
10010424:	f240 5354 	movw	r3, #1364	@ 0x554
10010428:	429a      	cmp	r2, r3
1001042a:	d80d      	bhi.n	10010448 <_malloc_r+0x564>
1001042c:	ea4f 4299 	mov.w	r2, r9, lsr #18
10010430:	f102 037d 	add.w	r3, r2, #125	@ 0x7d
10010434:	00db      	lsls	r3, r3, #3
10010436:	327c      	adds	r2, #124	@ 0x7c
10010438:	e6a2      	b.n	10010180 <_malloc_r+0x29c>
1001043a:	f44f 737e 	mov.w	r3, #1016	@ 0x3f8
1001043e:	f04f 0c7f 	mov.w	ip, #127	@ 0x7f
10010442:	f04f 0e7e 	mov.w	lr, #126	@ 0x7e
10010446:	e594      	b.n	1000ff72 <_malloc_r+0x8e>
10010448:	f44f 737e 	mov.w	r3, #1016	@ 0x3f8
1001044c:	227e      	movs	r2, #126	@ 0x7e
1001044e:	e697      	b.n	10010180 <_malloc_r+0x29c>
10010450:	687b      	ldr	r3, [r7, #4]
10010452:	e72e      	b.n	100102b2 <_malloc_r+0x3ce>
10010454:	2000102c 	.word	0x2000102c

10010458 <printf>:
10010458:	b40f      	push	{r0, r1, r2, r3}
1001045a:	b500      	push	{lr}
1001045c:	4907      	ldr	r1, [pc, #28]	@ (1001047c <printf+0x24>)
1001045e:	b083      	sub	sp, #12
10010460:	ab04      	add	r3, sp, #16
10010462:	6808      	ldr	r0, [r1, #0]
10010464:	f853 2b04 	ldr.w	r2, [r3], #4
10010468:	6881      	ldr	r1, [r0, #8]
1001046a:	9301      	str	r3, [sp, #4]
1001046c:	f000 f808 	bl	10010480 <_vfprintf_r>
10010470:	b003      	add	sp, #12
10010472:	f85d eb04 	ldr.w	lr, [sp], #4
10010476:	b004      	add	sp, #16
10010478:	4770      	bx	lr
1001047a:	bf00      	nop
1001047c:	200005c0 	.word	0x200005c0

10010480 <_vfprintf_r>:
10010480:	e92d 4ff0 	stmdb	sp!, {r4, r5, r6, r7, r8, r9, sl, fp, lr}
10010484:	b0df      	sub	sp, #380	@ 0x17c
10010486:	461c      	mov	r4, r3
10010488:	9107      	str	r1, [sp, #28]
1001048a:	4691      	mov	r9, r2
1001048c:	4683      	mov	fp, r0
1001048e:	f003 fe4f 	bl	10014130 <_localeconv_r>
10010492:	6803      	ldr	r3, [r0, #0]
10010494:	9319      	str	r3, [sp, #100]	@ 0x64
10010496:	4618      	mov	r0, r3
10010498:	f003 ffb2 	bl	10014400 <strlen>
1001049c:	2208      	movs	r2, #8
1001049e:	9018      	str	r0, [sp, #96]	@ 0x60
100104a0:	2100      	movs	r1, #0
100104a2:	a82e      	add	r0, sp, #184	@ 0xb8
100104a4:	940d      	str	r4, [sp, #52]	@ 0x34
100104a6:	f003 fdb7 	bl	10014018 <memset>
100104aa:	f1bb 0f00 	cmp.w	fp, #0
100104ae:	d004      	beq.n	100104ba <_vfprintf_r+0x3a>
100104b0:	f8db 3034 	ldr.w	r3, [fp, #52]	@ 0x34
100104b4:	2b00      	cmp	r3, #0
100104b6:	f001 8087 	beq.w	100115c8 <_vfprintf_r+0x1148>
100104ba:	9b07      	ldr	r3, [sp, #28]
100104bc:	6e5a      	ldr	r2, [r3, #100]	@ 0x64
100104be:	f9b3 300c 	ldrsh.w	r3, [r3, #12]
100104c2:	07d1      	lsls	r1, r2, #31
100104c4:	d402      	bmi.n	100104cc <_vfprintf_r+0x4c>
100104c6:	059a      	lsls	r2, r3, #22
100104c8:	f140 86a7 	bpl.w	1001121a <_vfprintf_r+0xd9a>
100104cc:	049f      	lsls	r7, r3, #18
100104ce:	d407      	bmi.n	100104e0 <_vfprintf_r+0x60>
100104d0:	9907      	ldr	r1, [sp, #28]
100104d2:	6e4a      	ldr	r2, [r1, #100]	@ 0x64
100104d4:	f443 5300 	orr.w	r3, r3, #8192	@ 0x2000
100104d8:	f422 5200 	bic.w	r2, r2, #8192	@ 0x2000
100104dc:	818b      	strh	r3, [r1, #12]
100104de:	664a      	str	r2, [r1, #100]	@ 0x64
100104e0:	071e      	lsls	r6, r3, #28
100104e2:	f140 80cc 	bpl.w	1001067e <_vfprintf_r+0x1fe>
100104e6:	9a07      	ldr	r2, [sp, #28]
100104e8:	6912      	ldr	r2, [r2, #16]
100104ea:	2a00      	cmp	r2, #0
100104ec:	f000 80c7 	beq.w	1001067e <_vfprintf_r+0x1fe>
100104f0:	f003 021a 	and.w	r2, r3, #26
100104f4:	2a0a      	cmp	r2, #10
100104f6:	f000 80d1 	beq.w	1001069c <_vfprintf_r+0x21c>
100104fa:	ed9f 7b99 	vldr	d7, [pc, #612]	@ 10010760 <_vfprintf_r+0x2e0>
100104fe:	2300      	movs	r3, #0
10010500:	e9cd 3333 	strd	r3, r3, [sp, #204]	@ 0xcc
10010504:	e9cd 331b 	strd	r3, r3, [sp, #108]	@ 0x6c
10010508:	e9cd 331d 	strd	r3, r3, [sp, #116]	@ 0x74
1001050c:	ed8d 7b16 	vstr	d7, [sp, #88]	@ 0x58
10010510:	aa35      	add	r2, sp, #212	@ 0xd4
10010512:	9313      	str	r3, [sp, #76]	@ 0x4c
10010514:	9232      	str	r2, [sp, #200]	@ 0xc8
10010516:	4690      	mov	r8, r2
10010518:	931a      	str	r3, [sp, #104]	@ 0x68
1001051a:	930a      	str	r3, [sp, #40]	@ 0x28
1001051c:	f8cd b020 	str.w	fp, [sp, #32]
10010520:	464d      	mov	r5, r9
10010522:	9f08      	ldr	r7, [sp, #32]
10010524:	462e      	mov	r6, r5
10010526:	4b90      	ldr	r3, [pc, #576]	@ (10010768 <_vfprintf_r+0x2e8>)
10010528:	f8d3 40e4 	ldr.w	r4, [r3, #228]	@ 0xe4
1001052c:	f003 fdfa 	bl	10014124 <__locale_mb_cur_max>
10010530:	4603      	mov	r3, r0
10010532:	a82e      	add	r0, sp, #184	@ 0xb8
10010534:	9000      	str	r0, [sp, #0]
10010536:	4632      	mov	r2, r6
10010538:	a92a      	add	r1, sp, #168	@ 0xa8
1001053a:	4638      	mov	r0, r7
1001053c:	47a0      	blx	r4
1001053e:	2800      	cmp	r0, #0
10010540:	f000 80cb 	beq.w	100106da <_vfprintf_r+0x25a>
10010544:	f2c0 80c1 	blt.w	100106ca <_vfprintf_r+0x24a>
10010548:	9a2a      	ldr	r2, [sp, #168]	@ 0xa8
1001054a:	2a25      	cmp	r2, #37	@ 0x25
1001054c:	4603      	mov	r3, r0
1001054e:	d001      	beq.n	10010554 <_vfprintf_r+0xd4>
10010550:	441e      	add	r6, r3
10010552:	e7e8      	b.n	10010526 <_vfprintf_r+0xa6>
10010554:	1b77      	subs	r7, r6, r5
10010556:	4604      	mov	r4, r0
10010558:	f040 80c2 	bne.w	100106e0 <_vfprintf_r+0x260>
1001055c:	2300      	movs	r3, #0
1001055e:	f88d 309f 	strb.w	r3, [sp, #159]	@ 0x9f
10010562:	4699      	mov	r9, r3
10010564:	930b      	str	r3, [sp, #44]	@ 0x2c
10010566:	f04f 32ff 	mov.w	r2, #4294967295	@ 0xffffffff
1001056a:	7873      	ldrb	r3, [r6, #1]
1001056c:	9209      	str	r2, [sp, #36]	@ 0x24
1001056e:	1c74      	adds	r4, r6, #1
10010570:	3401      	adds	r4, #1
10010572:	f1a3 0220 	sub.w	r2, r3, #32
10010576:	2a5a      	cmp	r2, #90	@ 0x5a
10010578:	f200 80f8 	bhi.w	1001076c <_vfprintf_r+0x2ec>
1001057c:	e8df f012 	tbh	[pc, r2, lsl #1]
10010580:	00f602d0 	.word	0x00f602d0
10010584:	02cc00f6 	.word	0x02cc00f6
10010588:	00f600f6 	.word	0x00f600f6
1001058c:	006a00f6 	.word	0x006a00f6
10010590:	00f600f6 	.word	0x00f600f6
10010594:	02a90286 	.word	0x02a90286
10010598:	029100f6 	.word	0x029100f6
1001059c:	00f602b2 	.word	0x00f602b2
100105a0:	005b02ae 	.word	0x005b02ae
100105a4:	005b005b 	.word	0x005b005b
100105a8:	005b005b 	.word	0x005b005b
100105ac:	005b005b 	.word	0x005b005b
100105b0:	005b005b 	.word	0x005b005b
100105b4:	00f600f6 	.word	0x00f600f6
100105b8:	00f600f6 	.word	0x00f600f6
100105bc:	00f600f6 	.word	0x00f600f6
100105c0:	017700f6 	.word	0x017700f6
100105c4:	021100f6 	.word	0x021100f6
100105c8:	0177032a 	.word	0x0177032a
100105cc:	01770177 	.word	0x01770177
100105d0:	00f600f6 	.word	0x00f600f6
100105d4:	00f600f6 	.word	0x00f600f6
100105d8:	00f60326 	.word	0x00f60326
100105dc:	02e200f6 	.word	0x02e200f6
100105e0:	00f600f6 	.word	0x00f600f6
100105e4:	022f00f6 	.word	0x022f00f6
100105e8:	031300f6 	.word	0x031300f6
100105ec:	00f600f6 	.word	0x00f600f6
100105f0:	00f6071f 	.word	0x00f6071f
100105f4:	00f600f6 	.word	0x00f600f6
100105f8:	00f600f6 	.word	0x00f600f6
100105fc:	00f600f6 	.word	0x00f600f6
10010600:	017700f6 	.word	0x017700f6
10010604:	021100f6 	.word	0x021100f6
10010608:	01770261 	.word	0x01770261
1001060c:	01770177 	.word	0x01770177
10010610:	0261029f 	.word	0x0261029f
10010614:	00f6020d 	.word	0x00f6020d
10010618:	00f60295 	.word	0x00f60295
1001061c:	07470355 	.word	0x07470355
10010620:	020d0343 	.word	0x020d0343
10010624:	022f00f6 	.word	0x022f00f6
10010628:	0742007d 	.word	0x0742007d
1001062c:	00f600f6 	.word	0x00f600f6
10010630:	00f6074b 	.word	0x00f6074b
10010634:	007d      	.short	0x007d
10010636:	f1a3 0230 	sub.w	r2, r3, #48	@ 0x30
1001063a:	2100      	movs	r1, #0
1001063c:	f814 3b01 	ldrb.w	r3, [r4], #1
10010640:	eb01 0181 	add.w	r1, r1, r1, lsl #2
10010644:	eb02 0141 	add.w	r1, r2, r1, lsl #1
10010648:	f1a3 0230 	sub.w	r2, r3, #48	@ 0x30
1001064c:	2a09      	cmp	r2, #9
1001064e:	d9f5      	bls.n	1001063c <_vfprintf_r+0x1bc>
10010650:	910b      	str	r1, [sp, #44]	@ 0x2c
10010652:	e78e      	b.n	10010572 <_vfprintf_r+0xf2>
10010654:	9f08      	ldr	r7, [sp, #32]
10010656:	4638      	mov	r0, r7
10010658:	f003 fd6a 	bl	10014130 <_localeconv_r>
1001065c:	6843      	ldr	r3, [r0, #4]
1001065e:	931d      	str	r3, [sp, #116]	@ 0x74
10010660:	4618      	mov	r0, r3
10010662:	f003 fecd 	bl	10014400 <strlen>
10010666:	901e      	str	r0, [sp, #120]	@ 0x78
10010668:	4606      	mov	r6, r0
1001066a:	4638      	mov	r0, r7
1001066c:	f003 fd60 	bl	10014130 <_localeconv_r>
10010670:	6883      	ldr	r3, [r0, #8]
10010672:	931b      	str	r3, [sp, #108]	@ 0x6c
10010674:	2e00      	cmp	r6, #0
10010676:	f040 8629 	bne.w	100112cc <_vfprintf_r+0xe4c>
1001067a:	7823      	ldrb	r3, [r4, #0]
1001067c:	e778      	b.n	10010570 <_vfprintf_r+0xf0>
1001067e:	9d07      	ldr	r5, [sp, #28]
10010680:	4658      	mov	r0, fp
10010682:	4629      	mov	r1, r5
10010684:	f003 fb7a 	bl	10013d7c <__swsetup_r>
10010688:	2800      	cmp	r0, #0
1001068a:	f041 83ac 	bne.w	10011de6 <_vfprintf_r+0x1966>
1001068e:	f9b5 300c 	ldrsh.w	r3, [r5, #12]
10010692:	f003 021a 	and.w	r2, r3, #26
10010696:	2a0a      	cmp	r2, #10
10010698:	f47f af2f 	bne.w	100104fa <_vfprintf_r+0x7a>
1001069c:	9907      	ldr	r1, [sp, #28]
1001069e:	f9b1 200e 	ldrsh.w	r2, [r1, #14]
100106a2:	2a00      	cmp	r2, #0
100106a4:	f6ff af29 	blt.w	100104fa <_vfprintf_r+0x7a>
100106a8:	6e4a      	ldr	r2, [r1, #100]	@ 0x64
100106aa:	07d0      	lsls	r0, r2, #31
100106ac:	d402      	bmi.n	100106b4 <_vfprintf_r+0x234>
100106ae:	059a      	lsls	r2, r3, #22
100106b0:	f141 81c5 	bpl.w	10011a3e <_vfprintf_r+0x15be>
100106b4:	9907      	ldr	r1, [sp, #28]
100106b6:	4623      	mov	r3, r4
100106b8:	464a      	mov	r2, r9
100106ba:	4658      	mov	r0, fp
100106bc:	f001 fd08 	bl	100120d0 <__sbprintf>
100106c0:	900a      	str	r0, [sp, #40]	@ 0x28
100106c2:	980a      	ldr	r0, [sp, #40]	@ 0x28
100106c4:	b05f      	add	sp, #380	@ 0x17c
100106c6:	e8bd 8ff0 	ldmia.w	sp!, {r4, r5, r6, r7, r8, r9, sl, fp, pc}
100106ca:	2208      	movs	r2, #8
100106cc:	2100      	movs	r1, #0
100106ce:	a82e      	add	r0, sp, #184	@ 0xb8
100106d0:	f003 fca2 	bl	10014018 <memset>
100106d4:	2301      	movs	r3, #1
100106d6:	441e      	add	r6, r3
100106d8:	e725      	b.n	10010526 <_vfprintf_r+0xa6>
100106da:	1b77      	subs	r7, r6, r5
100106dc:	4604      	mov	r4, r0
100106de:	d011      	beq.n	10010704 <_vfprintf_r+0x284>
100106e0:	9b34      	ldr	r3, [sp, #208]	@ 0xd0
100106e2:	443b      	add	r3, r7
100106e4:	9334      	str	r3, [sp, #208]	@ 0xd0
100106e6:	9b33      	ldr	r3, [sp, #204]	@ 0xcc
100106e8:	3301      	adds	r3, #1
100106ea:	2b07      	cmp	r3, #7
100106ec:	e9c8 5700 	strd	r5, r7, [r8]
100106f0:	9333      	str	r3, [sp, #204]	@ 0xcc
100106f2:	dc13      	bgt.n	1001071c <_vfprintf_r+0x29c>
100106f4:	f108 0808 	add.w	r8, r8, #8
100106f8:	9b0a      	ldr	r3, [sp, #40]	@ 0x28
100106fa:	443b      	add	r3, r7
100106fc:	930a      	str	r3, [sp, #40]	@ 0x28
100106fe:	2c00      	cmp	r4, #0
10010700:	f47f af2c 	bne.w	1001055c <_vfprintf_r+0xdc>
10010704:	9b34      	ldr	r3, [sp, #208]	@ 0xd0
10010706:	f8dd b020 	ldr.w	fp, [sp, #32]
1001070a:	2b00      	cmp	r3, #0
1001070c:	f041 80dc 	bne.w	100118c8 <_vfprintf_r+0x1448>
10010710:	9b07      	ldr	r3, [sp, #28]
10010712:	2200      	movs	r2, #0
10010714:	f9b3 300c 	ldrsh.w	r3, [r3, #12]
10010718:	9233      	str	r2, [sp, #204]	@ 0xcc
1001071a:	e012      	b.n	10010742 <_vfprintf_r+0x2c2>
1001071c:	e9dd 1007 	ldrd	r1, r0, [sp, #28]
10010720:	aa32      	add	r2, sp, #200	@ 0xc8
10010722:	f001 fd51 	bl	100121c8 <__sprint_r>
10010726:	b948      	cbnz	r0, 1001073c <_vfprintf_r+0x2bc>
10010728:	f10d 08d4 	add.w	r8, sp, #212	@ 0xd4
1001072c:	e7e4      	b.n	100106f8 <_vfprintf_r+0x278>
1001072e:	46bb      	mov	fp, r7
10010730:	9b0c      	ldr	r3, [sp, #48]	@ 0x30
10010732:	b11b      	cbz	r3, 1001073c <_vfprintf_r+0x2bc>
10010734:	990c      	ldr	r1, [sp, #48]	@ 0x30
10010736:	4658      	mov	r0, fp
10010738:	f004 ff5c 	bl	100155f4 <_free_r>
1001073c:	9b07      	ldr	r3, [sp, #28]
1001073e:	f9b3 300c 	ldrsh.w	r3, [r3, #12]
10010742:	9a07      	ldr	r2, [sp, #28]
10010744:	6e52      	ldr	r2, [r2, #100]	@ 0x64
10010746:	07d4      	lsls	r4, r2, #31
10010748:	f140 811d 	bpl.w	10010986 <_vfprintf_r+0x506>
1001074c:	0659      	lsls	r1, r3, #25
1001074e:	f101 8356 	bmi.w	10011dfe <_vfprintf_r+0x197e>
10010752:	980a      	ldr	r0, [sp, #40]	@ 0x28
10010754:	b05f      	add	sp, #380	@ 0x17c
10010756:	e8bd 8ff0 	ldmia.w	sp!, {r4, r5, r6, r7, r8, r9, sl, fp, pc}
1001075a:	bf00      	nop
1001075c:	f3af 8000 	nop.w
	...
10010768:	20000454 	.word	0x20000454
1001076c:	e9cd 340e 	strd	r3, r4, [sp, #56]	@ 0x38
10010770:	2b00      	cmp	r3, #0
10010772:	d0c7      	beq.n	10010704 <_vfprintf_r+0x284>
10010774:	2200      	movs	r2, #0
10010776:	f88d 3114 	strb.w	r3, [sp, #276]	@ 0x114
1001077a:	2301      	movs	r3, #1
1001077c:	f88d 209f 	strb.w	r2, [sp, #159]	@ 0x9f
10010780:	9306      	str	r3, [sp, #24]
10010782:	920c      	str	r2, [sp, #48]	@ 0x30
10010784:	469b      	mov	fp, r3
10010786:	9209      	str	r2, [sp, #36]	@ 0x24
10010788:	9214      	str	r2, [sp, #80]	@ 0x50
1001078a:	9210      	str	r2, [sp, #64]	@ 0x40
1001078c:	9212      	str	r2, [sp, #72]	@ 0x48
1001078e:	ad45      	add	r5, sp, #276	@ 0x114
10010790:	f019 0302 	ands.w	r3, r9, #2
10010794:	d002      	beq.n	1001079c <_vfprintf_r+0x31c>
10010796:	9906      	ldr	r1, [sp, #24]
10010798:	3102      	adds	r1, #2
1001079a:	9106      	str	r1, [sp, #24]
1001079c:	f019 0784 	ands.w	r7, r9, #132	@ 0x84
100107a0:	9c34      	ldr	r4, [sp, #208]	@ 0xd0
100107a2:	d105      	bne.n	100107b0 <_vfprintf_r+0x330>
100107a4:	990b      	ldr	r1, [sp, #44]	@ 0x2c
100107a6:	9806      	ldr	r0, [sp, #24]
100107a8:	1a0e      	subs	r6, r1, r0
100107aa:	2e00      	cmp	r6, #0
100107ac:	f300 80aa 	bgt.w	10010904 <_vfprintf_r+0x484>
100107b0:	b182      	cbz	r2, 100107d4 <_vfprintf_r+0x354>
100107b2:	2201      	movs	r2, #1
100107b4:	f8c8 2004 	str.w	r2, [r8, #4]
100107b8:	9a33      	ldr	r2, [sp, #204]	@ 0xcc
100107ba:	3201      	adds	r2, #1
100107bc:	3401      	adds	r4, #1
100107be:	f10d 019f 	add.w	r1, sp, #159	@ 0x9f
100107c2:	2a07      	cmp	r2, #7
100107c4:	9434      	str	r4, [sp, #208]	@ 0xd0
100107c6:	9233      	str	r2, [sp, #204]	@ 0xcc
100107c8:	f8c8 1000 	str.w	r1, [r8]
100107cc:	f300 83e3 	bgt.w	10010f96 <_vfprintf_r+0xb16>
100107d0:	f108 0808 	add.w	r8, r8, #8
100107d4:	b183      	cbz	r3, 100107f8 <_vfprintf_r+0x378>
100107d6:	9b33      	ldr	r3, [sp, #204]	@ 0xcc
100107d8:	aa28      	add	r2, sp, #160	@ 0xa0
100107da:	3301      	adds	r3, #1
100107dc:	3402      	adds	r4, #2
100107de:	f8c8 2000 	str.w	r2, [r8]
100107e2:	2b07      	cmp	r3, #7
100107e4:	f04f 0202 	mov.w	r2, #2
100107e8:	9434      	str	r4, [sp, #208]	@ 0xd0
100107ea:	9333      	str	r3, [sp, #204]	@ 0xcc
100107ec:	f8c8 2004 	str.w	r2, [r8, #4]
100107f0:	f300 83df 	bgt.w	10010fb2 <_vfprintf_r+0xb32>
100107f4:	f108 0808 	add.w	r8, r8, #8
100107f8:	2f80      	cmp	r7, #128	@ 0x80
100107fa:	f000 82c0 	beq.w	10010d7e <_vfprintf_r+0x8fe>
100107fe:	9b09      	ldr	r3, [sp, #36]	@ 0x24
10010800:	eba3 060b 	sub.w	r6, r3, fp
10010804:	2e00      	cmp	r6, #0
10010806:	f300 82ff 	bgt.w	10010e08 <_vfprintf_r+0x988>
1001080a:	f419 7f80 	tst.w	r9, #256	@ 0x100
1001080e:	f040 821b 	bne.w	10010c48 <_vfprintf_r+0x7c8>
10010812:	9b33      	ldr	r3, [sp, #204]	@ 0xcc
10010814:	f8c8 5000 	str.w	r5, [r8]
10010818:	3301      	adds	r3, #1
1001081a:	445c      	add	r4, fp
1001081c:	2b07      	cmp	r3, #7
1001081e:	f8c8 b004 	str.w	fp, [r8, #4]
10010822:	9434      	str	r4, [sp, #208]	@ 0xd0
10010824:	9333      	str	r3, [sp, #204]	@ 0xcc
10010826:	f300 834f 	bgt.w	10010ec8 <_vfprintf_r+0xa48>
1001082a:	f108 0808 	add.w	r8, r8, #8
1001082e:	f019 0f04 	tst.w	r9, #4
10010832:	d005      	beq.n	10010840 <_vfprintf_r+0x3c0>
10010834:	9b0b      	ldr	r3, [sp, #44]	@ 0x2c
10010836:	9a06      	ldr	r2, [sp, #24]
10010838:	1a9d      	subs	r5, r3, r2
1001083a:	2d00      	cmp	r5, #0
1001083c:	f300 83c5 	bgt.w	10010fca <_vfprintf_r+0xb4a>
10010840:	e9dd 320a 	ldrd	r3, r2, [sp, #40]	@ 0x28
10010844:	9906      	ldr	r1, [sp, #24]
10010846:	428a      	cmp	r2, r1
10010848:	bfac      	ite	ge
1001084a:	189b      	addge	r3, r3, r2
1001084c:	185b      	addlt	r3, r3, r1
1001084e:	930a      	str	r3, [sp, #40]	@ 0x28
10010850:	2c00      	cmp	r4, #0
10010852:	f040 8311 	bne.w	10010e78 <_vfprintf_r+0x9f8>
10010856:	2300      	movs	r3, #0
10010858:	9333      	str	r3, [sp, #204]	@ 0xcc
1001085a:	9b0c      	ldr	r3, [sp, #48]	@ 0x30
1001085c:	b11b      	cbz	r3, 10010866 <_vfprintf_r+0x3e6>
1001085e:	990c      	ldr	r1, [sp, #48]	@ 0x30
10010860:	9808      	ldr	r0, [sp, #32]
10010862:	f004 fec7 	bl	100155f4 <_free_r>
10010866:	f10d 08d4 	add.w	r8, sp, #212	@ 0xd4
1001086a:	9d0f      	ldr	r5, [sp, #60]	@ 0x3c
1001086c:	e659      	b.n	10010522 <_vfprintf_r+0xa2>
1001086e:	e9cd 340e 	strd	r3, r4, [sp, #56]	@ 0x38
10010872:	9b0d      	ldr	r3, [sp, #52]	@ 0x34
10010874:	3307      	adds	r3, #7
10010876:	f023 0307 	bic.w	r3, r3, #7
1001087a:	ecb3 7b02 	vldmia	r3!, {d7}
1001087e:	ec57 6b17 	vmov	r6, r7, d7
10010882:	930d      	str	r3, [sp, #52]	@ 0x34
10010884:	f027 4300 	bic.w	r3, r7, #2147483648	@ 0x80000000
10010888:	9323      	str	r3, [sp, #140]	@ 0x8c
1001088a:	ed8d 7a22 	vstr	s14, [sp, #136]	@ 0x88
1001088e:	e9dd ab22 	ldrd	sl, fp, [sp, #136]	@ 0x88
10010892:	4ba8      	ldr	r3, [pc, #672]	@ (10010b34 <_vfprintf_r+0x6b4>)
10010894:	f04f 32ff 	mov.w	r2, #4294967295	@ 0xffffffff
10010898:	4650      	mov	r0, sl
1001089a:	4659      	mov	r1, fp
1001089c:	ed8d 7b16 	vstr	d7, [sp, #88]	@ 0x58
100108a0:	f008 f94e 	bl	10018b40 <__aeabi_dcmpun>
100108a4:	2800      	cmp	r0, #0
100108a6:	f040 852f 	bne.w	10011308 <_vfprintf_r+0xe88>
100108aa:	4ba2      	ldr	r3, [pc, #648]	@ (10010b34 <_vfprintf_r+0x6b4>)
100108ac:	f04f 32ff 	mov.w	r2, #4294967295	@ 0xffffffff
100108b0:	4650      	mov	r0, sl
100108b2:	4659      	mov	r1, fp
100108b4:	f008 f926 	bl	10018b04 <__aeabi_dcmple>
100108b8:	2800      	cmp	r0, #0
100108ba:	f040 8525 	bne.w	10011308 <_vfprintf_r+0xe88>
100108be:	2200      	movs	r2, #0
100108c0:	2300      	movs	r3, #0
100108c2:	4630      	mov	r0, r6
100108c4:	4639      	mov	r1, r7
100108c6:	f008 f913 	bl	10018af0 <__aeabi_dcmplt>
100108ca:	2800      	cmp	r0, #0
100108cc:	f041 810c 	bne.w	10011ae8 <_vfprintf_r+0x1668>
100108d0:	f89d 209f 	ldrb.w	r2, [sp, #159]	@ 0x9f
100108d4:	4d98      	ldr	r5, [pc, #608]	@ (10010b38 <_vfprintf_r+0x6b8>)
100108d6:	4b99      	ldr	r3, [pc, #612]	@ (10010b3c <_vfprintf_r+0x6bc>)
100108d8:	f029 0980 	bic.w	r9, r9, #128	@ 0x80
100108dc:	990e      	ldr	r1, [sp, #56]	@ 0x38
100108de:	2947      	cmp	r1, #71	@ 0x47
100108e0:	bfc8      	it	gt
100108e2:	461d      	movgt	r5, r3
100108e4:	2300      	movs	r3, #0
100108e6:	2103      	movs	r1, #3
100108e8:	930c      	str	r3, [sp, #48]	@ 0x30
100108ea:	9106      	str	r1, [sp, #24]
100108ec:	468b      	mov	fp, r1
100108ee:	9309      	str	r3, [sp, #36]	@ 0x24
100108f0:	9314      	str	r3, [sp, #80]	@ 0x50
100108f2:	9310      	str	r3, [sp, #64]	@ 0x40
100108f4:	9312      	str	r3, [sp, #72]	@ 0x48
100108f6:	2a00      	cmp	r2, #0
100108f8:	f43f af4a 	beq.w	10010790 <_vfprintf_r+0x310>
100108fc:	9b06      	ldr	r3, [sp, #24]
100108fe:	3301      	adds	r3, #1
10010900:	9306      	str	r3, [sp, #24]
10010902:	e745      	b.n	10010790 <_vfprintf_r+0x310>
10010904:	2e10      	cmp	r6, #16
10010906:	9a33      	ldr	r2, [sp, #204]	@ 0xcc
10010908:	f341 823a 	ble.w	10011d80 <_vfprintf_r+0x1900>
1001090c:	488c      	ldr	r0, [pc, #560]	@ (10010b40 <_vfprintf_r+0x6c0>)
1001090e:	9521      	str	r5, [sp, #132]	@ 0x84
10010910:	e9cd 371f 	strd	r3, r7, [sp, #124]	@ 0x7c
10010914:	4621      	mov	r1, r4
10010916:	9d07      	ldr	r5, [sp, #28]
10010918:	9c08      	ldr	r4, [sp, #32]
1001091a:	9015      	str	r0, [sp, #84]	@ 0x54
1001091c:	f04f 0a10 	mov.w	sl, #16
10010920:	4607      	mov	r7, r0
10010922:	e004      	b.n	1001092e <_vfprintf_r+0x4ae>
10010924:	3e10      	subs	r6, #16
10010926:	2e10      	cmp	r6, #16
10010928:	f108 0808 	add.w	r8, r8, #8
1001092c:	dd16      	ble.n	1001095c <_vfprintf_r+0x4dc>
1001092e:	3201      	adds	r2, #1
10010930:	3110      	adds	r1, #16
10010932:	2a07      	cmp	r2, #7
10010934:	e9c8 7a00 	strd	r7, sl, [r8]
10010938:	e9cd 2133 	strd	r2, r1, [sp, #204]	@ 0xcc
1001093c:	ddf2      	ble.n	10010924 <_vfprintf_r+0x4a4>
1001093e:	aa32      	add	r2, sp, #200	@ 0xc8
10010940:	4629      	mov	r1, r5
10010942:	4620      	mov	r0, r4
10010944:	f10d 08d4 	add.w	r8, sp, #212	@ 0xd4
10010948:	f001 fc3e 	bl	100121c8 <__sprint_r>
1001094c:	2800      	cmp	r0, #0
1001094e:	f040 8635 	bne.w	100115bc <_vfprintf_r+0x113c>
10010952:	3e10      	subs	r6, #16
10010954:	2e10      	cmp	r6, #16
10010956:	e9dd 2133 	ldrd	r2, r1, [sp, #204]	@ 0xcc
1001095a:	dce8      	bgt.n	1001092e <_vfprintf_r+0x4ae>
1001095c:	e9dd 371f 	ldrd	r3, r7, [sp, #124]	@ 0x7c
10010960:	9d21      	ldr	r5, [sp, #132]	@ 0x84
10010962:	460c      	mov	r4, r1
10010964:	3201      	adds	r2, #1
10010966:	9915      	ldr	r1, [sp, #84]	@ 0x54
10010968:	f8c8 1000 	str.w	r1, [r8]
1001096c:	4434      	add	r4, r6
1001096e:	2a07      	cmp	r2, #7
10010970:	e9cd 2433 	strd	r2, r4, [sp, #204]	@ 0xcc
10010974:	f8c8 6004 	str.w	r6, [r8, #4]
10010978:	f300 860f 	bgt.w	1001159a <_vfprintf_r+0x111a>
1001097c:	f89d 209f 	ldrb.w	r2, [sp, #159]	@ 0x9f
10010980:	f108 0808 	add.w	r8, r8, #8
10010984:	e714      	b.n	100107b0 <_vfprintf_r+0x330>
10010986:	0598      	lsls	r0, r3, #22
10010988:	f53f aee0 	bmi.w	1001074c <_vfprintf_r+0x2cc>
1001098c:	9c07      	ldr	r4, [sp, #28]
1001098e:	6da0      	ldr	r0, [r4, #88]	@ 0x58
10010990:	f003 fc3c 	bl	1001420c <__retarget_lock_release_recursive>
10010994:	f9b4 300c 	ldrsh.w	r3, [r4, #12]
10010998:	e6d8      	b.n	1001074c <_vfprintf_r+0x2cc>
1001099a:	7823      	ldrb	r3, [r4, #0]
1001099c:	f049 0920 	orr.w	r9, r9, #32
100109a0:	e5e6      	b.n	10010570 <_vfprintf_r+0xf0>
100109a2:	9a0d      	ldr	r2, [sp, #52]	@ 0x34
100109a4:	2b43      	cmp	r3, #67	@ 0x43
100109a6:	e9cd 340e 	strd	r3, r4, [sp, #56]	@ 0x38
100109aa:	f102 0404 	add.w	r4, r2, #4
100109ae:	f000 8561 	beq.w	10011474 <_vfprintf_r+0xff4>
100109b2:	f019 0f10 	tst.w	r9, #16
100109b6:	f040 855d 	bne.w	10011474 <_vfprintf_r+0xff4>
100109ba:	9b0d      	ldr	r3, [sp, #52]	@ 0x34
100109bc:	681b      	ldr	r3, [r3, #0]
100109be:	f88d 3114 	strb.w	r3, [sp, #276]	@ 0x114
100109c2:	2301      	movs	r3, #1
100109c4:	9306      	str	r3, [sp, #24]
100109c6:	469b      	mov	fp, r3
100109c8:	ad45      	add	r5, sp, #276	@ 0x114
100109ca:	2200      	movs	r2, #0
100109cc:	940d      	str	r4, [sp, #52]	@ 0x34
100109ce:	f88d 209f 	strb.w	r2, [sp, #159]	@ 0x9f
100109d2:	920c      	str	r2, [sp, #48]	@ 0x30
100109d4:	9209      	str	r2, [sp, #36]	@ 0x24
100109d6:	9214      	str	r2, [sp, #80]	@ 0x50
100109d8:	9210      	str	r2, [sp, #64]	@ 0x40
100109da:	9212      	str	r2, [sp, #72]	@ 0x48
100109dc:	e6d8      	b.n	10010790 <_vfprintf_r+0x310>
100109de:	9e0d      	ldr	r6, [sp, #52]	@ 0x34
100109e0:	f856 5b04 	ldr.w	r5, [r6], #4
100109e4:	e9cd 340e 	strd	r3, r4, [sp, #56]	@ 0x38
100109e8:	2300      	movs	r3, #0
100109ea:	f88d 309f 	strb.w	r3, [sp, #159]	@ 0x9f
100109ee:	2d00      	cmp	r5, #0
100109f0:	f000 852f 	beq.w	10011452 <_vfprintf_r+0xfd2>
100109f4:	9b0e      	ldr	r3, [sp, #56]	@ 0x38
100109f6:	2b53      	cmp	r3, #83	@ 0x53
100109f8:	f000 8600 	beq.w	100115fc <_vfprintf_r+0x117c>
100109fc:	f019 0310 	ands.w	r3, r9, #16
10010a00:	9312      	str	r3, [sp, #72]	@ 0x48
10010a02:	f040 85fb 	bne.w	100115fc <_vfprintf_r+0x117c>
10010a06:	9b09      	ldr	r3, [sp, #36]	@ 0x24
10010a08:	1c5a      	adds	r2, r3, #1
10010a0a:	f000 8767 	beq.w	100118dc <_vfprintf_r+0x145c>
10010a0e:	9912      	ldr	r1, [sp, #72]	@ 0x48
10010a10:	461a      	mov	r2, r3
10010a12:	4628      	mov	r0, r5
10010a14:	f003 fbfc 	bl	10014210 <memchr>
10010a18:	900c      	str	r0, [sp, #48]	@ 0x30
10010a1a:	2800      	cmp	r0, #0
10010a1c:	f001 82c2 	beq.w	10011fa4 <_vfprintf_r+0x1b24>
10010a20:	9b0c      	ldr	r3, [sp, #48]	@ 0x30
10010a22:	960d      	str	r6, [sp, #52]	@ 0x34
10010a24:	eba3 0b05 	sub.w	fp, r3, r5
10010a28:	9b12      	ldr	r3, [sp, #72]	@ 0x48
10010a2a:	9309      	str	r3, [sp, #36]	@ 0x24
10010a2c:	ea2b 71eb 	bic.w	r1, fp, fp, asr #31
10010a30:	9314      	str	r3, [sp, #80]	@ 0x50
10010a32:	9310      	str	r3, [sp, #64]	@ 0x40
10010a34:	930c      	str	r3, [sp, #48]	@ 0x30
10010a36:	2373      	movs	r3, #115	@ 0x73
10010a38:	f89d 209f 	ldrb.w	r2, [sp, #159]	@ 0x9f
10010a3c:	9106      	str	r1, [sp, #24]
10010a3e:	930e      	str	r3, [sp, #56]	@ 0x38
10010a40:	e759      	b.n	100108f6 <_vfprintf_r+0x476>
10010a42:	f019 0f20 	tst.w	r9, #32
10010a46:	e9cd 340e 	strd	r3, r4, [sp, #56]	@ 0x38
10010a4a:	f000 80cb 	beq.w	10010be4 <_vfprintf_r+0x764>
10010a4e:	9b0d      	ldr	r3, [sp, #52]	@ 0x34
10010a50:	3307      	adds	r3, #7
10010a52:	f023 0307 	bic.w	r3, r3, #7
10010a56:	461a      	mov	r2, r3
10010a58:	6859      	ldr	r1, [r3, #4]
10010a5a:	f852 3b08 	ldr.w	r3, [r2], #8
10010a5e:	920d      	str	r2, [sp, #52]	@ 0x34
10010a60:	460a      	mov	r2, r1
10010a62:	2900      	cmp	r1, #0
10010a64:	f2c0 8424 	blt.w	100112b0 <_vfprintf_r+0xe30>
10010a68:	9909      	ldr	r1, [sp, #36]	@ 0x24
10010a6a:	3101      	adds	r1, #1
10010a6c:	f000 8284 	beq.w	10010f78 <_vfprintf_r+0xaf8>
10010a70:	ea53 0102 	orrs.w	r1, r3, r2
10010a74:	f029 0480 	bic.w	r4, r9, #128	@ 0x80
10010a78:	f040 827f 	bne.w	10010f7a <_vfprintf_r+0xafa>
10010a7c:	9a09      	ldr	r2, [sp, #36]	@ 0x24
10010a7e:	2a00      	cmp	r2, #0
10010a80:	f040 8280 	bne.w	10010f84 <_vfprintf_r+0xb04>
10010a84:	46a1      	mov	r9, r4
10010a86:	4693      	mov	fp, r2
10010a88:	ad5e      	add	r5, sp, #376	@ 0x178
10010a8a:	e14f      	b.n	10010d2c <_vfprintf_r+0x8ac>
10010a8c:	9b0d      	ldr	r3, [sp, #52]	@ 0x34
10010a8e:	f853 2b04 	ldr.w	r2, [r3], #4
10010a92:	920b      	str	r2, [sp, #44]	@ 0x2c
10010a94:	2a00      	cmp	r2, #0
10010a96:	f280 83cd 	bge.w	10011234 <_vfprintf_r+0xdb4>
10010a9a:	9a0b      	ldr	r2, [sp, #44]	@ 0x2c
10010a9c:	930d      	str	r3, [sp, #52]	@ 0x34
10010a9e:	4252      	negs	r2, r2
10010aa0:	920b      	str	r2, [sp, #44]	@ 0x2c
10010aa2:	7823      	ldrb	r3, [r4, #0]
10010aa4:	f049 0904 	orr.w	r9, r9, #4
10010aa8:	e562      	b.n	10010570 <_vfprintf_r+0xf0>
10010aaa:	7823      	ldrb	r3, [r4, #0]
10010aac:	2b6c      	cmp	r3, #108	@ 0x6c
10010aae:	bf03      	ittte	eq
10010ab0:	7863      	ldrbeq	r3, [r4, #1]
10010ab2:	f049 0920 	orreq.w	r9, r9, #32
10010ab6:	3401      	addeq	r4, #1
10010ab8:	f049 0910 	orrne.w	r9, r9, #16
10010abc:	e558      	b.n	10010570 <_vfprintf_r+0xf0>
10010abe:	7823      	ldrb	r3, [r4, #0]
10010ac0:	2b68      	cmp	r3, #104	@ 0x68
10010ac2:	bf03      	ittte	eq
10010ac4:	7863      	ldrbeq	r3, [r4, #1]
10010ac6:	f449 7900 	orreq.w	r9, r9, #512	@ 0x200
10010aca:	3401      	addeq	r4, #1
10010acc:	f049 0940 	orrne.w	r9, r9, #64	@ 0x40
10010ad0:	e54e      	b.n	10010570 <_vfprintf_r+0xf0>
10010ad2:	232b      	movs	r3, #43	@ 0x2b
10010ad4:	f88d 309f 	strb.w	r3, [sp, #159]	@ 0x9f
10010ad8:	7823      	ldrb	r3, [r4, #0]
10010ada:	e549      	b.n	10010570 <_vfprintf_r+0xf0>
10010adc:	7823      	ldrb	r3, [r4, #0]
10010ade:	f049 0980 	orr.w	r9, r9, #128	@ 0x80
10010ae2:	e545      	b.n	10010570 <_vfprintf_r+0xf0>
10010ae4:	4621      	mov	r1, r4
10010ae6:	f811 3b01 	ldrb.w	r3, [r1], #1
10010aea:	2b2a      	cmp	r3, #42	@ 0x2a
10010aec:	f001 82d7 	beq.w	1001209e <_vfprintf_r+0x1c1e>
10010af0:	f1a3 0230 	sub.w	r2, r3, #48	@ 0x30
10010af4:	2a09      	cmp	r2, #9
10010af6:	460c      	mov	r4, r1
10010af8:	bf98      	it	ls
10010afa:	2100      	movls	r1, #0
10010afc:	f201 816f 	bhi.w	10011dde <_vfprintf_r+0x195e>
10010b00:	f814 3b01 	ldrb.w	r3, [r4], #1
10010b04:	eb01 0181 	add.w	r1, r1, r1, lsl #2
10010b08:	eb02 0141 	add.w	r1, r2, r1, lsl #1
10010b0c:	f1a3 0230 	sub.w	r2, r3, #48	@ 0x30
10010b10:	2a09      	cmp	r2, #9
10010b12:	d9f5      	bls.n	10010b00 <_vfprintf_r+0x680>
10010b14:	9109      	str	r1, [sp, #36]	@ 0x24
10010b16:	e52c      	b.n	10010572 <_vfprintf_r+0xf2>
10010b18:	7823      	ldrb	r3, [r4, #0]
10010b1a:	f049 0901 	orr.w	r9, r9, #1
10010b1e:	e527      	b.n	10010570 <_vfprintf_r+0xf0>
10010b20:	f89d 209f 	ldrb.w	r2, [sp, #159]	@ 0x9f
10010b24:	7823      	ldrb	r3, [r4, #0]
10010b26:	2a00      	cmp	r2, #0
10010b28:	f47f ad22 	bne.w	10010570 <_vfprintf_r+0xf0>
10010b2c:	2220      	movs	r2, #32
10010b2e:	f88d 209f 	strb.w	r2, [sp, #159]	@ 0x9f
10010b32:	e51d      	b.n	10010570 <_vfprintf_r+0xf0>
10010b34:	7fefffff 	.word	0x7fefffff
10010b38:	10019264 	.word	0x10019264
10010b3c:	10019268 	.word	0x10019268
10010b40:	100192b8 	.word	0x100192b8
10010b44:	e9cd 340e 	strd	r3, r4, [sp, #56]	@ 0x38
10010b48:	f049 0910 	orr.w	r9, r9, #16
10010b4c:	f019 0220 	ands.w	r2, r9, #32
10010b50:	f000 8354 	beq.w	100111fc <_vfprintf_r+0xd7c>
10010b54:	9b0d      	ldr	r3, [sp, #52]	@ 0x34
10010b56:	3307      	adds	r3, #7
10010b58:	f023 0307 	bic.w	r3, r3, #7
10010b5c:	4619      	mov	r1, r3
10010b5e:	685a      	ldr	r2, [r3, #4]
10010b60:	f851 3b08 	ldr.w	r3, [r1], #8
10010b64:	910d      	str	r1, [sp, #52]	@ 0x34
10010b66:	f429 6480 	bic.w	r4, r9, #1024	@ 0x400
10010b6a:	2100      	movs	r1, #0
10010b6c:	2000      	movs	r0, #0
10010b6e:	9d09      	ldr	r5, [sp, #36]	@ 0x24
10010b70:	f88d 009f 	strb.w	r0, [sp, #159]	@ 0x9f
10010b74:	1c6f      	adds	r7, r5, #1
10010b76:	f000 80c2 	beq.w	10010cfe <_vfprintf_r+0x87e>
10010b7a:	ea53 0002 	orrs.w	r0, r3, r2
10010b7e:	f024 0980 	bic.w	r9, r4, #128	@ 0x80
10010b82:	f040 80bb 	bne.w	10010cfc <_vfprintf_r+0x87c>
10010b86:	2d00      	cmp	r5, #0
10010b88:	f040 8523 	bne.w	100115d2 <_vfprintf_r+0x1152>
10010b8c:	2900      	cmp	r1, #0
10010b8e:	f040 8496 	bne.w	100114be <_vfprintf_r+0x103e>
10010b92:	f014 0b01 	ands.w	fp, r4, #1
10010b96:	f000 8351 	beq.w	1001123c <_vfprintf_r+0xdbc>
10010b9a:	2330      	movs	r3, #48	@ 0x30
10010b9c:	f88d 3177 	strb.w	r3, [sp, #375]	@ 0x177
10010ba0:	f20d 1577 	addw	r5, sp, #375	@ 0x177
10010ba4:	e0c2      	b.n	10010d2c <_vfprintf_r+0x8ac>
10010ba6:	e9cd 340e 	strd	r3, r4, [sp, #56]	@ 0x38
10010baa:	f049 0410 	orr.w	r4, r9, #16
10010bae:	f014 0220 	ands.w	r2, r4, #32
10010bb2:	f000 8315 	beq.w	100111e0 <_vfprintf_r+0xd60>
10010bb6:	9b0d      	ldr	r3, [sp, #52]	@ 0x34
10010bb8:	3307      	adds	r3, #7
10010bba:	f023 0307 	bic.w	r3, r3, #7
10010bbe:	4619      	mov	r1, r3
10010bc0:	685a      	ldr	r2, [r3, #4]
10010bc2:	f851 3b08 	ldr.w	r3, [r1], #8
10010bc6:	910d      	str	r1, [sp, #52]	@ 0x34
10010bc8:	2101      	movs	r1, #1
10010bca:	e7cf      	b.n	10010b6c <_vfprintf_r+0x6ec>
10010bcc:	7823      	ldrb	r3, [r4, #0]
10010bce:	f049 0908 	orr.w	r9, r9, #8
10010bd2:	e4cd      	b.n	10010570 <_vfprintf_r+0xf0>
10010bd4:	f049 0910 	orr.w	r9, r9, #16
10010bd8:	f019 0f20 	tst.w	r9, #32
10010bdc:	e9cd 340e 	strd	r3, r4, [sp, #56]	@ 0x38
10010be0:	f47f af35 	bne.w	10010a4e <_vfprintf_r+0x5ce>
10010be4:	9a0d      	ldr	r2, [sp, #52]	@ 0x34
10010be6:	f019 0f10 	tst.w	r9, #16
10010bea:	f852 3b04 	ldr.w	r3, [r2], #4
10010bee:	920d      	str	r2, [sp, #52]	@ 0x34
10010bf0:	f040 8359 	bne.w	100112a6 <_vfprintf_r+0xe26>
10010bf4:	f019 0f40 	tst.w	r9, #64	@ 0x40
10010bf8:	f000 8351 	beq.w	1001129e <_vfprintf_r+0xe1e>
10010bfc:	f343 32c0 	sbfx	r2, r3, #15, #1
10010c00:	4611      	mov	r1, r2
10010c02:	b21b      	sxth	r3, r3
10010c04:	e72d      	b.n	10010a62 <_vfprintf_r+0x5e2>
10010c06:	9a0d      	ldr	r2, [sp, #52]	@ 0x34
10010c08:	940f      	str	r4, [sp, #60]	@ 0x3c
10010c0a:	f852 3b04 	ldr.w	r3, [r2], #4
10010c0e:	920d      	str	r2, [sp, #52]	@ 0x34
10010c10:	f647 0230 	movw	r2, #30768	@ 0x7830
10010c14:	f8ad 20a0 	strh.w	r2, [sp, #160]	@ 0xa0
10010c18:	2078      	movs	r0, #120	@ 0x78
10010c1a:	4ab1      	ldr	r2, [pc, #708]	@ (10010ee0 <_vfprintf_r+0xa60>)
10010c1c:	921a      	str	r2, [sp, #104]	@ 0x68
10010c1e:	f049 0402 	orr.w	r4, r9, #2
10010c22:	2200      	movs	r2, #0
10010c24:	2102      	movs	r1, #2
10010c26:	900e      	str	r0, [sp, #56]	@ 0x38
10010c28:	e7a0      	b.n	10010b6c <_vfprintf_r+0x6ec>
10010c2a:	f019 0f20 	tst.w	r9, #32
10010c2e:	940f      	str	r4, [sp, #60]	@ 0x3c
10010c30:	f000 8359 	beq.w	100112e6 <_vfprintf_r+0xe66>
10010c34:	9b0d      	ldr	r3, [sp, #52]	@ 0x34
10010c36:	9a0a      	ldr	r2, [sp, #40]	@ 0x28
10010c38:	681b      	ldr	r3, [r3, #0]
10010c3a:	601a      	str	r2, [r3, #0]
10010c3c:	17d2      	asrs	r2, r2, #31
10010c3e:	605a      	str	r2, [r3, #4]
10010c40:	9b0d      	ldr	r3, [sp, #52]	@ 0x34
10010c42:	3304      	adds	r3, #4
10010c44:	930d      	str	r3, [sp, #52]	@ 0x34
10010c46:	e610      	b.n	1001086a <_vfprintf_r+0x3ea>
10010c48:	9b0e      	ldr	r3, [sp, #56]	@ 0x38
10010c4a:	2b65      	cmp	r3, #101	@ 0x65
10010c4c:	f340 814e 	ble.w	10010eec <_vfprintf_r+0xa6c>
10010c50:	e9dd 0116 	ldrd	r0, r1, [sp, #88]	@ 0x58
10010c54:	2200      	movs	r2, #0
10010c56:	2300      	movs	r3, #0
10010c58:	f007 ff40 	bl	10018adc <__aeabi_dcmpeq>
10010c5c:	2800      	cmp	r0, #0
10010c5e:	f000 81ee 	beq.w	1001103e <_vfprintf_r+0xbbe>
10010c62:	9b33      	ldr	r3, [sp, #204]	@ 0xcc
10010c64:	4a9f      	ldr	r2, [pc, #636]	@ (10010ee4 <_vfprintf_r+0xa64>)
10010c66:	f8c8 2000 	str.w	r2, [r8]
10010c6a:	3301      	adds	r3, #1
10010c6c:	3401      	adds	r4, #1
10010c6e:	2201      	movs	r2, #1
10010c70:	2b07      	cmp	r3, #7
10010c72:	9434      	str	r4, [sp, #208]	@ 0xd0
10010c74:	9333      	str	r3, [sp, #204]	@ 0xcc
10010c76:	f8c8 2004 	str.w	r2, [r8, #4]
10010c7a:	f300 84af 	bgt.w	100115dc <_vfprintf_r+0x115c>
10010c7e:	f108 0808 	add.w	r8, r8, #8
10010c82:	9b29      	ldr	r3, [sp, #164]	@ 0xa4
10010c84:	9a13      	ldr	r2, [sp, #76]	@ 0x4c
10010c86:	4293      	cmp	r3, r2
10010c88:	f280 82cf 	bge.w	1001122a <_vfprintf_r+0xdaa>
10010c8c:	9b18      	ldr	r3, [sp, #96]	@ 0x60
10010c8e:	9a19      	ldr	r2, [sp, #100]	@ 0x64
10010c90:	441c      	add	r4, r3
10010c92:	e9c8 2300 	strd	r2, r3, [r8]
10010c96:	9b33      	ldr	r3, [sp, #204]	@ 0xcc
10010c98:	9434      	str	r4, [sp, #208]	@ 0xd0
10010c9a:	3301      	adds	r3, #1
10010c9c:	2b07      	cmp	r3, #7
10010c9e:	9333      	str	r3, [sp, #204]	@ 0xcc
10010ca0:	f300 83cb 	bgt.w	1001143a <_vfprintf_r+0xfba>
10010ca4:	f108 0808 	add.w	r8, r8, #8
10010ca8:	9b13      	ldr	r3, [sp, #76]	@ 0x4c
10010caa:	1e5d      	subs	r5, r3, #1
10010cac:	2d00      	cmp	r5, #0
10010cae:	f77f adbe 	ble.w	1001082e <_vfprintf_r+0x3ae>
10010cb2:	2d10      	cmp	r5, #16
10010cb4:	9b33      	ldr	r3, [sp, #204]	@ 0xcc
10010cb6:	f340 84f9 	ble.w	100116ac <_vfprintf_r+0x122c>
10010cba:	4f8b      	ldr	r7, [pc, #556]	@ (10010ee8 <_vfprintf_r+0xa68>)
10010cbc:	9715      	str	r7, [sp, #84]	@ 0x54
10010cbe:	e9dd ab07 	ldrd	sl, fp, [sp, #28]
10010cc2:	2610      	movs	r6, #16
10010cc4:	e005      	b.n	10010cd2 <_vfprintf_r+0x852>
10010cc6:	f108 0808 	add.w	r8, r8, #8
10010cca:	3d10      	subs	r5, #16
10010ccc:	2d10      	cmp	r5, #16
10010cce:	f340 84ef 	ble.w	100116b0 <_vfprintf_r+0x1230>
10010cd2:	3301      	adds	r3, #1
10010cd4:	3410      	adds	r4, #16
10010cd6:	2b07      	cmp	r3, #7
10010cd8:	e9c8 7600 	strd	r7, r6, [r8]
10010cdc:	e9cd 3433 	strd	r3, r4, [sp, #204]	@ 0xcc
10010ce0:	ddf1      	ble.n	10010cc6 <_vfprintf_r+0x846>
10010ce2:	aa32      	add	r2, sp, #200	@ 0xc8
10010ce4:	4651      	mov	r1, sl
10010ce6:	4658      	mov	r0, fp
10010ce8:	f001 fa6e 	bl	100121c8 <__sprint_r>
10010cec:	2800      	cmp	r0, #0
10010cee:	f47f ad1f 	bne.w	10010730 <_vfprintf_r+0x2b0>
10010cf2:	e9dd 3433 	ldrd	r3, r4, [sp, #204]	@ 0xcc
10010cf6:	f10d 08d4 	add.w	r8, sp, #212	@ 0xd4
10010cfa:	e7e6      	b.n	10010cca <_vfprintf_r+0x84a>
10010cfc:	464c      	mov	r4, r9
10010cfe:	2901      	cmp	r1, #1
10010d00:	f000 813b 	beq.w	10010f7a <_vfprintf_r+0xafa>
10010d04:	2902      	cmp	r1, #2
10010d06:	ad5e      	add	r5, sp, #376	@ 0x178
10010d08:	d11e      	bne.n	10010d48 <_vfprintf_r+0x8c8>
10010d0a:	981a      	ldr	r0, [sp, #104]	@ 0x68
10010d0c:	f003 010f 	and.w	r1, r3, #15
10010d10:	091b      	lsrs	r3, r3, #4
10010d12:	5c41      	ldrb	r1, [r0, r1]
10010d14:	f805 1d01 	strb.w	r1, [r5, #-1]!
10010d18:	ea43 7302 	orr.w	r3, r3, r2, lsl #28
10010d1c:	0912      	lsrs	r2, r2, #4
10010d1e:	ea53 0102 	orrs.w	r1, r3, r2
10010d22:	d1f3      	bne.n	10010d0c <_vfprintf_r+0x88c>
10010d24:	ab5e      	add	r3, sp, #376	@ 0x178
10010d26:	46a1      	mov	r9, r4
10010d28:	eba3 0b05 	sub.w	fp, r3, r5
10010d2c:	9909      	ldr	r1, [sp, #36]	@ 0x24
10010d2e:	f89d 209f 	ldrb.w	r2, [sp, #159]	@ 0x9f
10010d32:	4559      	cmp	r1, fp
10010d34:	f04f 0300 	mov.w	r3, #0
10010d38:	bfb8      	it	lt
10010d3a:	4659      	movlt	r1, fp
10010d3c:	930c      	str	r3, [sp, #48]	@ 0x30
10010d3e:	9106      	str	r1, [sp, #24]
10010d40:	9314      	str	r3, [sp, #80]	@ 0x50
10010d42:	9310      	str	r3, [sp, #64]	@ 0x40
10010d44:	9312      	str	r3, [sp, #72]	@ 0x48
10010d46:	e5d6      	b.n	100108f6 <_vfprintf_r+0x476>
10010d48:	f003 0107 	and.w	r1, r3, #7
10010d4c:	08db      	lsrs	r3, r3, #3
10010d4e:	ea43 7342 	orr.w	r3, r3, r2, lsl #29
10010d52:	08d2      	lsrs	r2, r2, #3
10010d54:	3130      	adds	r1, #48	@ 0x30
10010d56:	ea53 0602 	orrs.w	r6, r3, r2
10010d5a:	4628      	mov	r0, r5
10010d5c:	f805 1d01 	strb.w	r1, [r5, #-1]!
10010d60:	d1f2      	bne.n	10010d48 <_vfprintf_r+0x8c8>
10010d62:	07e6      	lsls	r6, r4, #31
10010d64:	d5de      	bpl.n	10010d24 <_vfprintf_r+0x8a4>
10010d66:	2930      	cmp	r1, #48	@ 0x30
10010d68:	d0dc      	beq.n	10010d24 <_vfprintf_r+0x8a4>
10010d6a:	2330      	movs	r3, #48	@ 0x30
10010d6c:	3802      	subs	r0, #2
10010d6e:	f805 3c01 	strb.w	r3, [r5, #-1]
10010d72:	ab5e      	add	r3, sp, #376	@ 0x178
10010d74:	46a1      	mov	r9, r4
10010d76:	eba3 0b00 	sub.w	fp, r3, r0
10010d7a:	4605      	mov	r5, r0
10010d7c:	e7d6      	b.n	10010d2c <_vfprintf_r+0x8ac>
10010d7e:	9b0b      	ldr	r3, [sp, #44]	@ 0x2c
10010d80:	9a06      	ldr	r2, [sp, #24]
10010d82:	1a9e      	subs	r6, r3, r2
10010d84:	2e00      	cmp	r6, #0
10010d86:	f77f ad3a 	ble.w	100107fe <_vfprintf_r+0x37e>
10010d8a:	2e10      	cmp	r6, #16
10010d8c:	9b33      	ldr	r3, [sp, #204]	@ 0xcc
10010d8e:	f341 80ab 	ble.w	10011ee8 <_vfprintf_r+0x1a68>
10010d92:	4855      	ldr	r0, [pc, #340]	@ (10010ee8 <_vfprintf_r+0xa68>)
10010d94:	f8dd a020 	ldr.w	sl, [sp, #32]
10010d98:	9015      	str	r0, [sp, #84]	@ 0x54
10010d9a:	4621      	mov	r1, r4
10010d9c:	2710      	movs	r7, #16
10010d9e:	461a      	mov	r2, r3
10010da0:	4604      	mov	r4, r0
10010da2:	e004      	b.n	10010dae <_vfprintf_r+0x92e>
10010da4:	3e10      	subs	r6, #16
10010da6:	2e10      	cmp	r6, #16
10010da8:	f108 0808 	add.w	r8, r8, #8
10010dac:	dd16      	ble.n	10010ddc <_vfprintf_r+0x95c>
10010dae:	3201      	adds	r2, #1
10010db0:	3110      	adds	r1, #16
10010db2:	2a07      	cmp	r2, #7
10010db4:	e9c8 4700 	strd	r4, r7, [r8]
10010db8:	e9cd 2133 	strd	r2, r1, [sp, #204]	@ 0xcc
10010dbc:	ddf2      	ble.n	10010da4 <_vfprintf_r+0x924>
10010dbe:	9907      	ldr	r1, [sp, #28]
10010dc0:	aa32      	add	r2, sp, #200	@ 0xc8
10010dc2:	4650      	mov	r0, sl
10010dc4:	f10d 08d4 	add.w	r8, sp, #212	@ 0xd4
10010dc8:	f001 f9fe 	bl	100121c8 <__sprint_r>
10010dcc:	2800      	cmp	r0, #0
10010dce:	f040 83f8 	bne.w	100115c2 <_vfprintf_r+0x1142>
10010dd2:	3e10      	subs	r6, #16
10010dd4:	2e10      	cmp	r6, #16
10010dd6:	e9dd 2133 	ldrd	r2, r1, [sp, #204]	@ 0xcc
10010dda:	dce8      	bgt.n	10010dae <_vfprintf_r+0x92e>
10010ddc:	460c      	mov	r4, r1
10010dde:	4613      	mov	r3, r2
10010de0:	3301      	adds	r3, #1
10010de2:	9a15      	ldr	r2, [sp, #84]	@ 0x54
10010de4:	f8c8 2000 	str.w	r2, [r8]
10010de8:	4434      	add	r4, r6
10010dea:	2b07      	cmp	r3, #7
10010dec:	e9cd 3433 	strd	r3, r4, [sp, #204]	@ 0xcc
10010df0:	f8c8 6004 	str.w	r6, [r8, #4]
10010df4:	f300 8314 	bgt.w	10011420 <_vfprintf_r+0xfa0>
10010df8:	9b09      	ldr	r3, [sp, #36]	@ 0x24
10010dfa:	eba3 060b 	sub.w	r6, r3, fp
10010dfe:	2e00      	cmp	r6, #0
10010e00:	f108 0808 	add.w	r8, r8, #8
10010e04:	f77f ad01 	ble.w	1001080a <_vfprintf_r+0x38a>
10010e08:	4a37      	ldr	r2, [pc, #220]	@ (10010ee8 <_vfprintf_r+0xa68>)
10010e0a:	9b33      	ldr	r3, [sp, #204]	@ 0xcc
10010e0c:	9215      	str	r2, [sp, #84]	@ 0x54
10010e0e:	2e10      	cmp	r6, #16
10010e10:	dd23      	ble.n	10010e5a <_vfprintf_r+0x9da>
10010e12:	4622      	mov	r2, r4
10010e14:	f04f 0a10 	mov.w	sl, #16
10010e18:	e9dd 4707 	ldrd	r4, r7, [sp, #28]
10010e1c:	e004      	b.n	10010e28 <_vfprintf_r+0x9a8>
10010e1e:	3e10      	subs	r6, #16
10010e20:	2e10      	cmp	r6, #16
10010e22:	f108 0808 	add.w	r8, r8, #8
10010e26:	dd17      	ble.n	10010e58 <_vfprintf_r+0x9d8>
10010e28:	3301      	adds	r3, #1
10010e2a:	492f      	ldr	r1, [pc, #188]	@ (10010ee8 <_vfprintf_r+0xa68>)
10010e2c:	3210      	adds	r2, #16
10010e2e:	2b07      	cmp	r3, #7
10010e30:	e9c8 1a00 	strd	r1, sl, [r8]
10010e34:	e9cd 3233 	strd	r3, r2, [sp, #204]	@ 0xcc
10010e38:	ddf1      	ble.n	10010e1e <_vfprintf_r+0x99e>
10010e3a:	aa32      	add	r2, sp, #200	@ 0xc8
10010e3c:	4621      	mov	r1, r4
10010e3e:	4638      	mov	r0, r7
10010e40:	f001 f9c2 	bl	100121c8 <__sprint_r>
10010e44:	2800      	cmp	r0, #0
10010e46:	f47f ac72 	bne.w	1001072e <_vfprintf_r+0x2ae>
10010e4a:	3e10      	subs	r6, #16
10010e4c:	2e10      	cmp	r6, #16
10010e4e:	e9dd 3233 	ldrd	r3, r2, [sp, #204]	@ 0xcc
10010e52:	f10d 08d4 	add.w	r8, sp, #212	@ 0xd4
10010e56:	dce7      	bgt.n	10010e28 <_vfprintf_r+0x9a8>
10010e58:	4614      	mov	r4, r2
10010e5a:	3301      	adds	r3, #1
10010e5c:	9a15      	ldr	r2, [sp, #84]	@ 0x54
10010e5e:	f8c8 2000 	str.w	r2, [r8]
10010e62:	4434      	add	r4, r6
10010e64:	2b07      	cmp	r3, #7
10010e66:	e9cd 3433 	strd	r3, r4, [sp, #204]	@ 0xcc
10010e6a:	f8c8 6004 	str.w	r6, [r8, #4]
10010e6e:	f300 81aa 	bgt.w	100111c6 <_vfprintf_r+0xd46>
10010e72:	f108 0808 	add.w	r8, r8, #8
10010e76:	e4c8      	b.n	1001080a <_vfprintf_r+0x38a>
10010e78:	e9dd 1007 	ldrd	r1, r0, [sp, #28]
10010e7c:	aa32      	add	r2, sp, #200	@ 0xc8
10010e7e:	f001 f9a3 	bl	100121c8 <__sprint_r>
10010e82:	2800      	cmp	r0, #0
10010e84:	f43f ace7 	beq.w	10010856 <_vfprintf_r+0x3d6>
10010e88:	f8dd b020 	ldr.w	fp, [sp, #32]
10010e8c:	e450      	b.n	10010730 <_vfprintf_r+0x2b0>
10010e8e:	9b18      	ldr	r3, [sp, #96]	@ 0x60
10010e90:	9919      	ldr	r1, [sp, #100]	@ 0x64
10010e92:	441c      	add	r4, r3
10010e94:	e9c8 1300 	strd	r1, r3, [r8]
10010e98:	9b33      	ldr	r3, [sp, #204]	@ 0xcc
10010e9a:	9434      	str	r4, [sp, #208]	@ 0xd0
10010e9c:	3301      	adds	r3, #1
10010e9e:	2b07      	cmp	r3, #7
10010ea0:	9333      	str	r3, [sp, #204]	@ 0xcc
10010ea2:	f300 85bd 	bgt.w	10011a20 <_vfprintf_r+0x15a0>
10010ea6:	f108 0808 	add.w	r8, r8, #8
10010eaa:	2a00      	cmp	r2, #0
10010eac:	f2c0 87ac 	blt.w	10011e08 <_vfprintf_r+0x1988>
10010eb0:	9a13      	ldr	r2, [sp, #76]	@ 0x4c
10010eb2:	f8c8 5000 	str.w	r5, [r8]
10010eb6:	3301      	adds	r3, #1
10010eb8:	4414      	add	r4, r2
10010eba:	2b07      	cmp	r3, #7
10010ebc:	e9cd 3433 	strd	r3, r4, [sp, #204]	@ 0xcc
10010ec0:	f8c8 2004 	str.w	r2, [r8, #4]
10010ec4:	f77f acb1 	ble.w	1001082a <_vfprintf_r+0x3aa>
10010ec8:	e9dd 1007 	ldrd	r1, r0, [sp, #28]
10010ecc:	aa32      	add	r2, sp, #200	@ 0xc8
10010ece:	f001 f97b 	bl	100121c8 <__sprint_r>
10010ed2:	2800      	cmp	r0, #0
10010ed4:	d1d8      	bne.n	10010e88 <_vfprintf_r+0xa08>
10010ed6:	9c34      	ldr	r4, [sp, #208]	@ 0xd0
10010ed8:	f10d 08d4 	add.w	r8, sp, #212	@ 0xd4
10010edc:	e4a7      	b.n	1001082e <_vfprintf_r+0x3ae>
10010ede:	bf00      	nop
10010ee0:	10019274 	.word	0x10019274
10010ee4:	100192a4 	.word	0x100192a4
10010ee8:	100192a8 	.word	0x100192a8
10010eec:	9b13      	ldr	r3, [sp, #76]	@ 0x4c
10010eee:	9e33      	ldr	r6, [sp, #204]	@ 0xcc
10010ef0:	2b01      	cmp	r3, #1
10010ef2:	f104 0401 	add.w	r4, r4, #1
10010ef6:	f106 0601 	add.w	r6, r6, #1
10010efa:	f108 0708 	add.w	r7, r8, #8
10010efe:	f340 811d 	ble.w	1001113c <_vfprintf_r+0xcbc>
10010f02:	2301      	movs	r3, #1
10010f04:	2e07      	cmp	r6, #7
10010f06:	e9cd 6433 	strd	r6, r4, [sp, #204]	@ 0xcc
10010f0a:	f8c8 5000 	str.w	r5, [r8]
10010f0e:	f8c8 3004 	str.w	r3, [r8, #4]
10010f12:	f300 82e4 	bgt.w	100114de <_vfprintf_r+0x105e>
10010f16:	9b18      	ldr	r3, [sp, #96]	@ 0x60
10010f18:	9a19      	ldr	r2, [sp, #100]	@ 0x64
10010f1a:	3601      	adds	r6, #1
10010f1c:	441c      	add	r4, r3
10010f1e:	2e07      	cmp	r6, #7
10010f20:	e9c7 2300 	strd	r2, r3, [r7]
10010f24:	e9cd 6433 	strd	r6, r4, [sp, #204]	@ 0xcc
10010f28:	f300 82cd 	bgt.w	100114c6 <_vfprintf_r+0x1046>
10010f2c:	3708      	adds	r7, #8
10010f2e:	9b13      	ldr	r3, [sp, #76]	@ 0x4c
10010f30:	e9dd 0116 	ldrd	r0, r1, [sp, #88]	@ 0x58
10010f34:	f103 38ff 	add.w	r8, r3, #4294967295	@ 0xffffffff
10010f38:	2200      	movs	r2, #0
10010f3a:	2300      	movs	r3, #0
10010f3c:	f007 fdce 	bl	10018adc <__aeabi_dcmpeq>
10010f40:	2800      	cmp	r0, #0
10010f42:	f040 8115 	bne.w	10011170 <_vfprintf_r+0xcf0>
10010f46:	3601      	adds	r6, #1
10010f48:	3501      	adds	r5, #1
10010f4a:	4444      	add	r4, r8
10010f4c:	2e07      	cmp	r6, #7
10010f4e:	e9cd 6433 	strd	r6, r4, [sp, #204]	@ 0xcc
10010f52:	603d      	str	r5, [r7, #0]
10010f54:	f8c7 8004 	str.w	r8, [r7, #4]
10010f58:	f300 80fe 	bgt.w	10011158 <_vfprintf_r+0xcd8>
10010f5c:	3708      	adds	r7, #8
10010f5e:	9b1c      	ldr	r3, [sp, #112]	@ 0x70
10010f60:	607b      	str	r3, [r7, #4]
10010f62:	3601      	adds	r6, #1
10010f64:	441c      	add	r4, r3
10010f66:	2e07      	cmp	r6, #7
10010f68:	ab2c      	add	r3, sp, #176	@ 0xb0
10010f6a:	e9cd 6433 	strd	r6, r4, [sp, #204]	@ 0xcc
10010f6e:	603b      	str	r3, [r7, #0]
10010f70:	dcaa      	bgt.n	10010ec8 <_vfprintf_r+0xa48>
10010f72:	f107 0808 	add.w	r8, r7, #8
10010f76:	e45a      	b.n	1001082e <_vfprintf_r+0x3ae>
10010f78:	464c      	mov	r4, r9
10010f7a:	2b0a      	cmp	r3, #10
10010f7c:	f172 0100 	sbcs.w	r1, r2, #0
10010f80:	f080 82b9 	bcs.w	100114f6 <_vfprintf_r+0x1076>
10010f84:	3330      	adds	r3, #48	@ 0x30
10010f86:	f88d 3177 	strb.w	r3, [sp, #375]	@ 0x177
10010f8a:	46a1      	mov	r9, r4
10010f8c:	f04f 0b01 	mov.w	fp, #1
10010f90:	f20d 1577 	addw	r5, sp, #375	@ 0x177
10010f94:	e6ca      	b.n	10010d2c <_vfprintf_r+0x8ac>
10010f96:	e9dd 1007 	ldrd	r1, r0, [sp, #28]
10010f9a:	aa32      	add	r2, sp, #200	@ 0xc8
10010f9c:	9315      	str	r3, [sp, #84]	@ 0x54
10010f9e:	f001 f913 	bl	100121c8 <__sprint_r>
10010fa2:	2800      	cmp	r0, #0
10010fa4:	f47f af70 	bne.w	10010e88 <_vfprintf_r+0xa08>
10010fa8:	9c34      	ldr	r4, [sp, #208]	@ 0xd0
10010faa:	9b15      	ldr	r3, [sp, #84]	@ 0x54
10010fac:	f10d 08d4 	add.w	r8, sp, #212	@ 0xd4
10010fb0:	e410      	b.n	100107d4 <_vfprintf_r+0x354>
10010fb2:	e9dd 1007 	ldrd	r1, r0, [sp, #28]
10010fb6:	aa32      	add	r2, sp, #200	@ 0xc8
10010fb8:	f001 f906 	bl	100121c8 <__sprint_r>
10010fbc:	2800      	cmp	r0, #0
10010fbe:	f47f af63 	bne.w	10010e88 <_vfprintf_r+0xa08>
10010fc2:	9c34      	ldr	r4, [sp, #208]	@ 0xd0
10010fc4:	f10d 08d4 	add.w	r8, sp, #212	@ 0xd4
10010fc8:	e416      	b.n	100107f8 <_vfprintf_r+0x378>
10010fca:	2d10      	cmp	r5, #16
10010fcc:	9b33      	ldr	r3, [sp, #204]	@ 0xcc
10010fce:	f340 8750 	ble.w	10011e72 <_vfprintf_r+0x19f2>
10010fd2:	4fbb      	ldr	r7, [pc, #748]	@ (100112c0 <_vfprintf_r+0xe40>)
10010fd4:	9715      	str	r7, [sp, #84]	@ 0x54
10010fd6:	e9dd a907 	ldrd	sl, r9, [sp, #28]
10010fda:	2610      	movs	r6, #16
10010fdc:	e004      	b.n	10010fe8 <_vfprintf_r+0xb68>
10010fde:	3d10      	subs	r5, #16
10010fe0:	2d10      	cmp	r5, #16
10010fe2:	f108 0808 	add.w	r8, r8, #8
10010fe6:	dd16      	ble.n	10011016 <_vfprintf_r+0xb96>
10010fe8:	3301      	adds	r3, #1
10010fea:	3410      	adds	r4, #16
10010fec:	2b07      	cmp	r3, #7
10010fee:	e9c8 7600 	strd	r7, r6, [r8]
10010ff2:	e9cd 3433 	strd	r3, r4, [sp, #204]	@ 0xcc
10010ff6:	ddf2      	ble.n	10010fde <_vfprintf_r+0xb5e>
10010ff8:	aa32      	add	r2, sp, #200	@ 0xc8
10010ffa:	4651      	mov	r1, sl
10010ffc:	4648      	mov	r0, r9
10010ffe:	f10d 08d4 	add.w	r8, sp, #212	@ 0xd4
10011002:	f001 f8e1 	bl	100121c8 <__sprint_r>
10011006:	2800      	cmp	r0, #0
10011008:	f040 82f5 	bne.w	100115f6 <_vfprintf_r+0x1176>
1001100c:	3d10      	subs	r5, #16
1001100e:	2d10      	cmp	r5, #16
10011010:	e9dd 3433 	ldrd	r3, r4, [sp, #204]	@ 0xcc
10011014:	dce8      	bgt.n	10010fe8 <_vfprintf_r+0xb68>
10011016:	3301      	adds	r3, #1
10011018:	9a15      	ldr	r2, [sp, #84]	@ 0x54
1001101a:	442c      	add	r4, r5
1001101c:	2b07      	cmp	r3, #7
1001101e:	e9c8 2500 	strd	r2, r5, [r8]
10011022:	e9cd 3433 	strd	r3, r4, [sp, #204]	@ 0xcc
10011026:	f77f ac0b 	ble.w	10010840 <_vfprintf_r+0x3c0>
1001102a:	e9dd 1007 	ldrd	r1, r0, [sp, #28]
1001102e:	aa32      	add	r2, sp, #200	@ 0xc8
10011030:	f001 f8ca 	bl	100121c8 <__sprint_r>
10011034:	2800      	cmp	r0, #0
10011036:	f47f af27 	bne.w	10010e88 <_vfprintf_r+0xa08>
1001103a:	9c34      	ldr	r4, [sp, #208]	@ 0xd0
1001103c:	e400      	b.n	10010840 <_vfprintf_r+0x3c0>
1001103e:	9a29      	ldr	r2, [sp, #164]	@ 0xa4
10011040:	2a00      	cmp	r2, #0
10011042:	f340 80fd 	ble.w	10011240 <_vfprintf_r+0xdc0>
10011046:	e9dd 7312 	ldrd	r7, r3, [sp, #72]	@ 0x48
1001104a:	429f      	cmp	r7, r3
1001104c:	bfa8      	it	ge
1001104e:	461f      	movge	r7, r3
10011050:	2f00      	cmp	r7, #0
10011052:	eb05 0b03 	add.w	fp, r5, r3
10011056:	dd0b      	ble.n	10011070 <_vfprintf_r+0xbf0>
10011058:	9b33      	ldr	r3, [sp, #204]	@ 0xcc
1001105a:	3301      	adds	r3, #1
1001105c:	443c      	add	r4, r7
1001105e:	2b07      	cmp	r3, #7
10011060:	e9c8 5700 	strd	r5, r7, [r8]
10011064:	9434      	str	r4, [sp, #208]	@ 0xd0
10011066:	9333      	str	r3, [sp, #204]	@ 0xcc
10011068:	f300 866d 	bgt.w	10011d46 <_vfprintf_r+0x18c6>
1001106c:	f108 0808 	add.w	r8, r8, #8
10011070:	9e12      	ldr	r6, [sp, #72]	@ 0x48
10011072:	2f00      	cmp	r7, #0
10011074:	bfa8      	it	ge
10011076:	1bf6      	subge	r6, r6, r7
10011078:	2e00      	cmp	r6, #0
1001107a:	f300 8345 	bgt.w	10011708 <_vfprintf_r+0x1288>
1001107e:	9b12      	ldr	r3, [sp, #72]	@ 0x48
10011080:	f419 6f80 	tst.w	r9, #1024	@ 0x400
10011084:	442b      	add	r3, r5
10011086:	469a      	mov	sl, r3
10011088:	f040 8578 	bne.w	10011b7c <_vfprintf_r+0x16fc>
1001108c:	9d29      	ldr	r5, [sp, #164]	@ 0xa4
1001108e:	9b13      	ldr	r3, [sp, #76]	@ 0x4c
10011090:	429d      	cmp	r5, r3
10011092:	db03      	blt.n	1001109c <_vfprintf_r+0xc1c>
10011094:	f019 0f01 	tst.w	r9, #1
10011098:	f000 8402 	beq.w	100118a0 <_vfprintf_r+0x1420>
1001109c:	9b18      	ldr	r3, [sp, #96]	@ 0x60
1001109e:	9a19      	ldr	r2, [sp, #100]	@ 0x64
100110a0:	441c      	add	r4, r3
100110a2:	e9c8 2300 	strd	r2, r3, [r8]
100110a6:	9b33      	ldr	r3, [sp, #204]	@ 0xcc
100110a8:	9434      	str	r4, [sp, #208]	@ 0xd0
100110aa:	3301      	adds	r3, #1
100110ac:	2b07      	cmp	r3, #7
100110ae:	9333      	str	r3, [sp, #204]	@ 0xcc
100110b0:	f300 8658 	bgt.w	10011d64 <_vfprintf_r+0x18e4>
100110b4:	f108 0808 	add.w	r8, r8, #8
100110b8:	9b13      	ldr	r3, [sp, #76]	@ 0x4c
100110ba:	ebab 060a 	sub.w	r6, fp, sl
100110be:	1b5d      	subs	r5, r3, r5
100110c0:	42ae      	cmp	r6, r5
100110c2:	bfa8      	it	ge
100110c4:	462e      	movge	r6, r5
100110c6:	2e00      	cmp	r6, #0
100110c8:	dd0d      	ble.n	100110e6 <_vfprintf_r+0xc66>
100110ca:	9b33      	ldr	r3, [sp, #204]	@ 0xcc
100110cc:	f8c8 a000 	str.w	sl, [r8]
100110d0:	3301      	adds	r3, #1
100110d2:	4434      	add	r4, r6
100110d4:	2b07      	cmp	r3, #7
100110d6:	f8c8 6004 	str.w	r6, [r8, #4]
100110da:	9434      	str	r4, [sp, #208]	@ 0xd0
100110dc:	9333      	str	r3, [sp, #204]	@ 0xcc
100110de:	f300 8653 	bgt.w	10011d88 <_vfprintf_r+0x1908>
100110e2:	f108 0808 	add.w	r8, r8, #8
100110e6:	2e00      	cmp	r6, #0
100110e8:	bfa8      	it	ge
100110ea:	1bad      	subge	r5, r5, r6
100110ec:	2d00      	cmp	r5, #0
100110ee:	f77f ab9e 	ble.w	1001082e <_vfprintf_r+0x3ae>
100110f2:	2d10      	cmp	r5, #16
100110f4:	9b33      	ldr	r3, [sp, #204]	@ 0xcc
100110f6:	f340 82d9 	ble.w	100116ac <_vfprintf_r+0x122c>
100110fa:	4f72      	ldr	r7, [pc, #456]	@ (100112c4 <_vfprintf_r+0xe44>)
100110fc:	9715      	str	r7, [sp, #84]	@ 0x54
100110fe:	e9dd ab07 	ldrd	sl, fp, [sp, #28]
10011102:	2610      	movs	r6, #16
10011104:	e005      	b.n	10011112 <_vfprintf_r+0xc92>
10011106:	f108 0808 	add.w	r8, r8, #8
1001110a:	3d10      	subs	r5, #16
1001110c:	2d10      	cmp	r5, #16
1001110e:	f340 82cf 	ble.w	100116b0 <_vfprintf_r+0x1230>
10011112:	3301      	adds	r3, #1
10011114:	3410      	adds	r4, #16
10011116:	2b07      	cmp	r3, #7
10011118:	e9c8 7600 	strd	r7, r6, [r8]
1001111c:	e9cd 3433 	strd	r3, r4, [sp, #204]	@ 0xcc
10011120:	ddf1      	ble.n	10011106 <_vfprintf_r+0xc86>
10011122:	aa32      	add	r2, sp, #200	@ 0xc8
10011124:	4651      	mov	r1, sl
10011126:	4658      	mov	r0, fp
10011128:	f001 f84e 	bl	100121c8 <__sprint_r>
1001112c:	2800      	cmp	r0, #0
1001112e:	f47f aaff 	bne.w	10010730 <_vfprintf_r+0x2b0>
10011132:	e9dd 3433 	ldrd	r3, r4, [sp, #204]	@ 0xcc
10011136:	f10d 08d4 	add.w	r8, sp, #212	@ 0xd4
1001113a:	e7e6      	b.n	1001110a <_vfprintf_r+0xc8a>
1001113c:	f019 0f01 	tst.w	r9, #1
10011140:	f47f aedf 	bne.w	10010f02 <_vfprintf_r+0xa82>
10011144:	2301      	movs	r3, #1
10011146:	2e07      	cmp	r6, #7
10011148:	e9cd 6433 	strd	r6, r4, [sp, #204]	@ 0xcc
1001114c:	f8c8 5000 	str.w	r5, [r8]
10011150:	f8c8 3004 	str.w	r3, [r8, #4]
10011154:	f77f af03 	ble.w	10010f5e <_vfprintf_r+0xade>
10011158:	e9dd 1007 	ldrd	r1, r0, [sp, #28]
1001115c:	aa32      	add	r2, sp, #200	@ 0xc8
1001115e:	f001 f833 	bl	100121c8 <__sprint_r>
10011162:	2800      	cmp	r0, #0
10011164:	f47f ae90 	bne.w	10010e88 <_vfprintf_r+0xa08>
10011168:	e9dd 6433 	ldrd	r6, r4, [sp, #204]	@ 0xcc
1001116c:	af35      	add	r7, sp, #212	@ 0xd4
1001116e:	e6f6      	b.n	10010f5e <_vfprintf_r+0xade>
10011170:	9b13      	ldr	r3, [sp, #76]	@ 0x4c
10011172:	2b01      	cmp	r3, #1
10011174:	f77f aef3 	ble.w	10010f5e <_vfprintf_r+0xade>
10011178:	2b11      	cmp	r3, #17
1001117a:	4b52      	ldr	r3, [pc, #328]	@ (100112c4 <_vfprintf_r+0xe44>)
1001117c:	9315      	str	r3, [sp, #84]	@ 0x54
1001117e:	f340 82b7 	ble.w	100116f0 <_vfprintf_r+0x1270>
10011182:	f8cd 9024 	str.w	r9, [sp, #36]	@ 0x24
10011186:	e9dd ba07 	ldrd	fp, sl, [sp, #28]
1001118a:	2510      	movs	r5, #16
1001118c:	4699      	mov	r9, r3
1001118e:	e006      	b.n	1001119e <_vfprintf_r+0xd1e>
10011190:	3708      	adds	r7, #8
10011192:	f1a8 0810 	sub.w	r8, r8, #16
10011196:	f1b8 0f10 	cmp.w	r8, #16
1001119a:	f340 82a7 	ble.w	100116ec <_vfprintf_r+0x126c>
1001119e:	3601      	adds	r6, #1
100111a0:	3410      	adds	r4, #16
100111a2:	2e07      	cmp	r6, #7
100111a4:	e9c7 9500 	strd	r9, r5, [r7]
100111a8:	e9cd 6433 	strd	r6, r4, [sp, #204]	@ 0xcc
100111ac:	ddf0      	ble.n	10011190 <_vfprintf_r+0xd10>
100111ae:	aa32      	add	r2, sp, #200	@ 0xc8
100111b0:	4659      	mov	r1, fp
100111b2:	4650      	mov	r0, sl
100111b4:	f001 f808 	bl	100121c8 <__sprint_r>
100111b8:	2800      	cmp	r0, #0
100111ba:	f040 8202 	bne.w	100115c2 <_vfprintf_r+0x1142>
100111be:	e9dd 6433 	ldrd	r6, r4, [sp, #204]	@ 0xcc
100111c2:	af35      	add	r7, sp, #212	@ 0xd4
100111c4:	e7e5      	b.n	10011192 <_vfprintf_r+0xd12>
100111c6:	e9dd 1007 	ldrd	r1, r0, [sp, #28]
100111ca:	aa32      	add	r2, sp, #200	@ 0xc8
100111cc:	f000 fffc 	bl	100121c8 <__sprint_r>
100111d0:	2800      	cmp	r0, #0
100111d2:	f47f ae59 	bne.w	10010e88 <_vfprintf_r+0xa08>
100111d6:	9c34      	ldr	r4, [sp, #208]	@ 0xd0
100111d8:	f10d 08d4 	add.w	r8, sp, #212	@ 0xd4
100111dc:	f7ff bb15 	b.w	1001080a <_vfprintf_r+0x38a>
100111e0:	990d      	ldr	r1, [sp, #52]	@ 0x34
100111e2:	f851 3b04 	ldr.w	r3, [r1], #4
100111e6:	910d      	str	r1, [sp, #52]	@ 0x34
100111e8:	f014 0110 	ands.w	r1, r4, #16
100111ec:	d155      	bne.n	1001129a <_vfprintf_r+0xe1a>
100111ee:	f014 0040 	ands.w	r0, r4, #64	@ 0x40
100111f2:	d04d      	beq.n	10011290 <_vfprintf_r+0xe10>
100111f4:	460a      	mov	r2, r1
100111f6:	b29b      	uxth	r3, r3
100111f8:	2101      	movs	r1, #1
100111fa:	e4b7      	b.n	10010b6c <_vfprintf_r+0x6ec>
100111fc:	990d      	ldr	r1, [sp, #52]	@ 0x34
100111fe:	f851 3b04 	ldr.w	r3, [r1], #4
10011202:	910d      	str	r1, [sp, #52]	@ 0x34
10011204:	f019 0110 	ands.w	r1, r9, #16
10011208:	f47f acad 	bne.w	10010b66 <_vfprintf_r+0x6e6>
1001120c:	f019 0040 	ands.w	r0, r9, #64	@ 0x40
10011210:	f000 82a7 	beq.w	10011762 <_vfprintf_r+0x12e2>
10011214:	b29b      	uxth	r3, r3
10011216:	460a      	mov	r2, r1
10011218:	e4a5      	b.n	10010b66 <_vfprintf_r+0x6e6>
1001121a:	9d07      	ldr	r5, [sp, #28]
1001121c:	6da8      	ldr	r0, [r5, #88]	@ 0x58
1001121e:	f002 fff3 	bl	10014208 <__retarget_lock_acquire_recursive>
10011222:	f9b5 300c 	ldrsh.w	r3, [r5, #12]
10011226:	f7ff b951 	b.w	100104cc <_vfprintf_r+0x4c>
1001122a:	f019 0f01 	tst.w	r9, #1
1001122e:	f43f aafe 	beq.w	1001082e <_vfprintf_r+0x3ae>
10011232:	e52b      	b.n	10010c8c <_vfprintf_r+0x80c>
10011234:	930d      	str	r3, [sp, #52]	@ 0x34
10011236:	7823      	ldrb	r3, [r4, #0]
10011238:	f7ff b99a 	b.w	10010570 <_vfprintf_r+0xf0>
1001123c:	ad5e      	add	r5, sp, #376	@ 0x178
1001123e:	e575      	b.n	10010d2c <_vfprintf_r+0x8ac>
10011240:	9b33      	ldr	r3, [sp, #204]	@ 0xcc
10011242:	4921      	ldr	r1, [pc, #132]	@ (100112c8 <_vfprintf_r+0xe48>)
10011244:	f8c8 1000 	str.w	r1, [r8]
10011248:	3301      	adds	r3, #1
1001124a:	3401      	adds	r4, #1
1001124c:	2101      	movs	r1, #1
1001124e:	2b07      	cmp	r3, #7
10011250:	9434      	str	r4, [sp, #208]	@ 0xd0
10011252:	9333      	str	r3, [sp, #204]	@ 0xcc
10011254:	f8c8 1004 	str.w	r1, [r8, #4]
10011258:	f300 854f 	bgt.w	10011cfa <_vfprintf_r+0x187a>
1001125c:	f108 0808 	add.w	r8, r8, #8
10011260:	2a00      	cmp	r2, #0
10011262:	f47f ae14 	bne.w	10010e8e <_vfprintf_r+0xa0e>
10011266:	9a13      	ldr	r2, [sp, #76]	@ 0x4c
10011268:	f009 0301 	and.w	r3, r9, #1
1001126c:	4313      	orrs	r3, r2
1001126e:	f43f aade 	beq.w	1001082e <_vfprintf_r+0x3ae>
10011272:	9b18      	ldr	r3, [sp, #96]	@ 0x60
10011274:	9a19      	ldr	r2, [sp, #100]	@ 0x64
10011276:	441c      	add	r4, r3
10011278:	e9c8 2300 	strd	r2, r3, [r8]
1001127c:	9b33      	ldr	r3, [sp, #204]	@ 0xcc
1001127e:	9434      	str	r4, [sp, #208]	@ 0xd0
10011280:	3301      	adds	r3, #1
10011282:	2b07      	cmp	r3, #7
10011284:	9333      	str	r3, [sp, #204]	@ 0xcc
10011286:	f300 83cb 	bgt.w	10011a20 <_vfprintf_r+0x15a0>
1001128a:	f108 0808 	add.w	r8, r8, #8
1001128e:	e60f      	b.n	10010eb0 <_vfprintf_r+0xa30>
10011290:	f414 7200 	ands.w	r2, r4, #512	@ 0x200
10011294:	bf1c      	itt	ne
10011296:	b2db      	uxtbne	r3, r3
10011298:	4602      	movne	r2, r0
1001129a:	2101      	movs	r1, #1
1001129c:	e466      	b.n	10010b6c <_vfprintf_r+0x6ec>
1001129e:	f419 7f00 	tst.w	r9, #512	@ 0x200
100112a2:	f040 8305 	bne.w	100118b0 <_vfprintf_r+0x1430>
100112a6:	17da      	asrs	r2, r3, #31
100112a8:	4611      	mov	r1, r2
100112aa:	2900      	cmp	r1, #0
100112ac:	f6bf abdc 	bge.w	10010a68 <_vfprintf_r+0x5e8>
100112b0:	425b      	negs	r3, r3
100112b2:	eb62 0242 	sbc.w	r2, r2, r2, lsl #1
100112b6:	464c      	mov	r4, r9
100112b8:	202d      	movs	r0, #45	@ 0x2d
100112ba:	2101      	movs	r1, #1
100112bc:	e457      	b.n	10010b6e <_vfprintf_r+0x6ee>
100112be:	bf00      	nop
100112c0:	100192b8 	.word	0x100192b8
100112c4:	100192a8 	.word	0x100192a8
100112c8:	100192a4 	.word	0x100192a4
100112cc:	9a1b      	ldr	r2, [sp, #108]	@ 0x6c
100112ce:	7823      	ldrb	r3, [r4, #0]
100112d0:	2a00      	cmp	r2, #0
100112d2:	f43f a94d 	beq.w	10010570 <_vfprintf_r+0xf0>
100112d6:	7812      	ldrb	r2, [r2, #0]
100112d8:	2a00      	cmp	r2, #0
100112da:	f43f a949 	beq.w	10010570 <_vfprintf_r+0xf0>
100112de:	f449 6980 	orr.w	r9, r9, #1024	@ 0x400
100112e2:	f7ff b945 	b.w	10010570 <_vfprintf_r+0xf0>
100112e6:	f019 0f10 	tst.w	r9, #16
100112ea:	f040 81f9 	bne.w	100116e0 <_vfprintf_r+0x1260>
100112ee:	f019 0f40 	tst.w	r9, #64	@ 0x40
100112f2:	f040 82e3 	bne.w	100118bc <_vfprintf_r+0x143c>
100112f6:	f419 7f00 	tst.w	r9, #512	@ 0x200
100112fa:	f000 81f1 	beq.w	100116e0 <_vfprintf_r+0x1260>
100112fe:	9b0d      	ldr	r3, [sp, #52]	@ 0x34
10011300:	9a0a      	ldr	r2, [sp, #40]	@ 0x28
10011302:	681b      	ldr	r3, [r3, #0]
10011304:	701a      	strb	r2, [r3, #0]
10011306:	e49b      	b.n	10010c40 <_vfprintf_r+0x7c0>
10011308:	e9dd 0116 	ldrd	r0, r1, [sp, #88]	@ 0x58
1001130c:	4602      	mov	r2, r0
1001130e:	460b      	mov	r3, r1
10011310:	f007 fc16 	bl	10018b40 <__aeabi_dcmpun>
10011314:	2800      	cmp	r0, #0
10011316:	f040 8636 	bne.w	10011f86 <_vfprintf_r+0x1b06>
1001131a:	9b0e      	ldr	r3, [sp, #56]	@ 0x38
1001131c:	2b61      	cmp	r3, #97	@ 0x61
1001131e:	f000 851f 	beq.w	10011d60 <_vfprintf_r+0x18e0>
10011322:	2b41      	cmp	r3, #65	@ 0x41
10011324:	f000 82e1 	beq.w	100118ea <_vfprintf_r+0x146a>
10011328:	9b09      	ldr	r3, [sp, #36]	@ 0x24
1001132a:	3301      	adds	r3, #1
1001132c:	f000 8615 	beq.w	10011f5a <_vfprintf_r+0x1ada>
10011330:	9b0e      	ldr	r3, [sp, #56]	@ 0x38
10011332:	f023 0320 	bic.w	r3, r3, #32
10011336:	2b47      	cmp	r3, #71	@ 0x47
10011338:	d104      	bne.n	10011344 <_vfprintf_r+0xec4>
1001133a:	9b09      	ldr	r3, [sp, #36]	@ 0x24
1001133c:	2b00      	cmp	r3, #0
1001133e:	bf08      	it	eq
10011340:	2301      	moveq	r3, #1
10011342:	9309      	str	r3, [sp, #36]	@ 0x24
10011344:	e9dd 0116 	ldrd	r0, r1, [sp, #88]	@ 0x58
10011348:	f449 7280 	orr.w	r2, r9, #256	@ 0x100
1001134c:	2900      	cmp	r1, #0
1001134e:	9215      	str	r2, [sp, #84]	@ 0x54
10011350:	f8cd 9018 	str.w	r9, [sp, #24]
10011354:	f04f 0300 	mov.w	r3, #0
10011358:	f2c0 84dd 	blt.w	10011d16 <_vfprintf_r+0x1896>
1001135c:	e9cd 0124 	strd	r0, r1, [sp, #144]	@ 0x90
10011360:	931f      	str	r3, [sp, #124]	@ 0x7c
10011362:	930c      	str	r3, [sp, #48]	@ 0x30
10011364:	9b0e      	ldr	r3, [sp, #56]	@ 0x38
10011366:	3b41      	subs	r3, #65	@ 0x41
10011368:	2b25      	cmp	r3, #37	@ 0x25
1001136a:	f200 8201 	bhi.w	10011770 <_vfprintf_r+0x12f0>
1001136e:	e8df f013 	tbh	[pc, r3, lsl #1]
10011372:	0372      	.short	0x0372
10011374:	01ff01ff 	.word	0x01ff01ff
10011378:	036b01ff 	.word	0x036b01ff
1001137c:	01ff036f 	.word	0x01ff036f
10011380:	01ff01ff 	.word	0x01ff01ff
10011384:	01ff01ff 	.word	0x01ff01ff
10011388:	01ff01ff 	.word	0x01ff01ff
1001138c:	01ff01ff 	.word	0x01ff01ff
10011390:	01ff01ff 	.word	0x01ff01ff
10011394:	01ff01ff 	.word	0x01ff01ff
10011398:	01ff01ff 	.word	0x01ff01ff
1001139c:	01ff01ff 	.word	0x01ff01ff
100113a0:	01ff01ff 	.word	0x01ff01ff
100113a4:	01ff01ff 	.word	0x01ff01ff
100113a8:	01ff01ff 	.word	0x01ff01ff
100113ac:	01ff01ff 	.word	0x01ff01ff
100113b0:	01ff01ff 	.word	0x01ff01ff
100113b4:	01ff01ff 	.word	0x01ff01ff
100113b8:	036b01ff 	.word	0x036b01ff
100113bc:	036f      	.short	0x036f
100113be:	e9cd 340e 	strd	r3, r4, [sp, #56]	@ 0x38
100113c2:	4bc2      	ldr	r3, [pc, #776]	@ (100116cc <_vfprintf_r+0x124c>)
100113c4:	931a      	str	r3, [sp, #104]	@ 0x68
100113c6:	f019 0220 	ands.w	r2, r9, #32
100113ca:	d06a      	beq.n	100114a2 <_vfprintf_r+0x1022>
100113cc:	9b0d      	ldr	r3, [sp, #52]	@ 0x34
100113ce:	3307      	adds	r3, #7
100113d0:	f023 0307 	bic.w	r3, r3, #7
100113d4:	4619      	mov	r1, r3
100113d6:	685a      	ldr	r2, [r3, #4]
100113d8:	f851 3b08 	ldr.w	r3, [r1], #8
100113dc:	910d      	str	r1, [sp, #52]	@ 0x34
100113de:	f019 0f01 	tst.w	r9, #1
100113e2:	d00a      	beq.n	100113fa <_vfprintf_r+0xf7a>
100113e4:	ea53 0102 	orrs.w	r1, r3, r2
100113e8:	d007      	beq.n	100113fa <_vfprintf_r+0xf7a>
100113ea:	990e      	ldr	r1, [sp, #56]	@ 0x38
100113ec:	f88d 10a1 	strb.w	r1, [sp, #161]	@ 0xa1
100113f0:	2130      	movs	r1, #48	@ 0x30
100113f2:	f049 0902 	orr.w	r9, r9, #2
100113f6:	f88d 10a0 	strb.w	r1, [sp, #160]	@ 0xa0
100113fa:	f429 6480 	bic.w	r4, r9, #1024	@ 0x400
100113fe:	2102      	movs	r1, #2
10011400:	f7ff bbb4 	b.w	10010b6c <_vfprintf_r+0x6ec>
10011404:	e9cd 340e 	strd	r3, r4, [sp, #56]	@ 0x38
10011408:	464c      	mov	r4, r9
1001140a:	f7ff bbd0 	b.w	10010bae <_vfprintf_r+0x72e>
1001140e:	e9cd 340e 	strd	r3, r4, [sp, #56]	@ 0x38
10011412:	f7ff bb9b 	b.w	10010b4c <_vfprintf_r+0x6cc>
10011416:	e9cd 340e 	strd	r3, r4, [sp, #56]	@ 0x38
1001141a:	4bad      	ldr	r3, [pc, #692]	@ (100116d0 <_vfprintf_r+0x1250>)
1001141c:	931a      	str	r3, [sp, #104]	@ 0x68
1001141e:	e7d2      	b.n	100113c6 <_vfprintf_r+0xf46>
10011420:	e9dd 1007 	ldrd	r1, r0, [sp, #28]
10011424:	aa32      	add	r2, sp, #200	@ 0xc8
10011426:	f000 fecf 	bl	100121c8 <__sprint_r>
1001142a:	2800      	cmp	r0, #0
1001142c:	f47f ad2c 	bne.w	10010e88 <_vfprintf_r+0xa08>
10011430:	9c34      	ldr	r4, [sp, #208]	@ 0xd0
10011432:	f10d 08d4 	add.w	r8, sp, #212	@ 0xd4
10011436:	f7ff b9e2 	b.w	100107fe <_vfprintf_r+0x37e>
1001143a:	e9dd 1007 	ldrd	r1, r0, [sp, #28]
1001143e:	aa32      	add	r2, sp, #200	@ 0xc8
10011440:	f000 fec2 	bl	100121c8 <__sprint_r>
10011444:	2800      	cmp	r0, #0
10011446:	f47f ad1f 	bne.w	10010e88 <_vfprintf_r+0xa08>
1001144a:	9c34      	ldr	r4, [sp, #208]	@ 0xd0
1001144c:	f10d 08d4 	add.w	r8, sp, #212	@ 0xd4
10011450:	e42a      	b.n	10010ca8 <_vfprintf_r+0x828>
10011452:	9b09      	ldr	r3, [sp, #36]	@ 0x24
10011454:	950c      	str	r5, [sp, #48]	@ 0x30
10011456:	2b06      	cmp	r3, #6
10011458:	4629      	mov	r1, r5
1001145a:	bf28      	it	cs
1001145c:	2306      	movcs	r3, #6
1001145e:	9509      	str	r5, [sp, #36]	@ 0x24
10011460:	462a      	mov	r2, r5
10011462:	9306      	str	r3, [sp, #24]
10011464:	4d9b      	ldr	r5, [pc, #620]	@ (100116d4 <_vfprintf_r+0x1254>)
10011466:	960d      	str	r6, [sp, #52]	@ 0x34
10011468:	469b      	mov	fp, r3
1001146a:	9114      	str	r1, [sp, #80]	@ 0x50
1001146c:	9110      	str	r1, [sp, #64]	@ 0x40
1001146e:	9112      	str	r1, [sp, #72]	@ 0x48
10011470:	f7ff ba41 	b.w	100108f6 <_vfprintf_r+0x476>
10011474:	2208      	movs	r2, #8
10011476:	2100      	movs	r1, #0
10011478:	a830      	add	r0, sp, #192	@ 0xc0
1001147a:	f002 fdcd 	bl	10014018 <memset>
1001147e:	9b0d      	ldr	r3, [sp, #52]	@ 0x34
10011480:	9808      	ldr	r0, [sp, #32]
10011482:	681a      	ldr	r2, [r3, #0]
10011484:	ad45      	add	r5, sp, #276	@ 0x114
10011486:	ab30      	add	r3, sp, #192	@ 0xc0
10011488:	4629      	mov	r1, r5
1001148a:	f003 f825 	bl	100144d8 <_wcrtomb_r>
1001148e:	f1b0 3fff 	cmp.w	r0, #4294967295	@ 0xffffffff
10011492:	4683      	mov	fp, r0
10011494:	f000 8542 	beq.w	10011f1c <_vfprintf_r+0x1a9c>
10011498:	ea20 73e0 	bic.w	r3, r0, r0, asr #31
1001149c:	9306      	str	r3, [sp, #24]
1001149e:	f7ff ba94 	b.w	100109ca <_vfprintf_r+0x54a>
100114a2:	990d      	ldr	r1, [sp, #52]	@ 0x34
100114a4:	f851 3b04 	ldr.w	r3, [r1], #4
100114a8:	910d      	str	r1, [sp, #52]	@ 0x34
100114aa:	f019 0110 	ands.w	r1, r9, #16
100114ae:	d196      	bne.n	100113de <_vfprintf_r+0xf5e>
100114b0:	f019 0040 	ands.w	r0, r9, #64	@ 0x40
100114b4:	f000 814f 	beq.w	10011756 <_vfprintf_r+0x12d6>
100114b8:	b29b      	uxth	r3, r3
100114ba:	460a      	mov	r2, r1
100114bc:	e78f      	b.n	100113de <_vfprintf_r+0xf5e>
100114be:	f8dd b024 	ldr.w	fp, [sp, #36]	@ 0x24
100114c2:	ad5e      	add	r5, sp, #376	@ 0x178
100114c4:	e432      	b.n	10010d2c <_vfprintf_r+0x8ac>
100114c6:	e9dd 1007 	ldrd	r1, r0, [sp, #28]
100114ca:	aa32      	add	r2, sp, #200	@ 0xc8
100114cc:	f000 fe7c 	bl	100121c8 <__sprint_r>
100114d0:	2800      	cmp	r0, #0
100114d2:	f47f acd9 	bne.w	10010e88 <_vfprintf_r+0xa08>
100114d6:	e9dd 6433 	ldrd	r6, r4, [sp, #204]	@ 0xcc
100114da:	af35      	add	r7, sp, #212	@ 0xd4
100114dc:	e527      	b.n	10010f2e <_vfprintf_r+0xaae>
100114de:	e9dd 1007 	ldrd	r1, r0, [sp, #28]
100114e2:	aa32      	add	r2, sp, #200	@ 0xc8
100114e4:	f000 fe70 	bl	100121c8 <__sprint_r>
100114e8:	2800      	cmp	r0, #0
100114ea:	f47f accd 	bne.w	10010e88 <_vfprintf_r+0xa08>
100114ee:	e9dd 6433 	ldrd	r6, r4, [sp, #204]	@ 0xcc
100114f2:	af35      	add	r7, sp, #212	@ 0xd4
100114f4:	e50f      	b.n	10010f16 <_vfprintf_r+0xa96>
100114f6:	f404 6b80 	and.w	fp, r4, #1024	@ 0x400
100114fa:	2100      	movs	r1, #0
100114fc:	f8cd 8030 	str.w	r8, [sp, #48]	@ 0x30
10011500:	f8df 91d8 	ldr.w	r9, [pc, #472]	@ 100116dc <_vfprintf_r+0x125c>
10011504:	f8dd 806c 	ldr.w	r8, [sp, #108]	@ 0x6c
10011508:	9406      	str	r4, [sp, #24]
1001150a:	ad5e      	add	r5, sp, #376	@ 0x178
1001150c:	f04f 3acc 	mov.w	sl, #3435973836	@ 0xcccccccc
10011510:	2705      	movs	r7, #5
10011512:	468c      	mov	ip, r1
10011514:	465e      	mov	r6, fp
10011516:	e005      	b.n	10011524 <_vfprintf_r+0x10a4>
10011518:	2b0a      	cmp	r3, #10
1001151a:	f172 0200 	sbcs.w	r2, r2, #0
1001151e:	d333      	bcc.n	10011588 <_vfprintf_r+0x1108>
10011520:	465b      	mov	r3, fp
10011522:	4622      	mov	r2, r4
10011524:	1899      	adds	r1, r3, r2
10011526:	f141 0100 	adc.w	r1, r1, #0
1001152a:	fba9 0401 	umull	r0, r4, r9, r1
1001152e:	f024 0003 	bic.w	r0, r4, #3
10011532:	eb00 0094 	add.w	r0, r0, r4, lsr #2
10011536:	1a09      	subs	r1, r1, r0
10011538:	1a58      	subs	r0, r3, r1
1001153a:	f162 0e00 	sbc.w	lr, r2, #0
1001153e:	fb0a f400 	mul.w	r4, sl, r0
10011542:	fba0 b009 	umull	fp, r0, r0, r9
10011546:	fb09 440e 	mla	r4, r9, lr, r4
1001154a:	f00b 0e01 	and.w	lr, fp, #1
1001154e:	4404      	add	r4, r0
10011550:	fbae 0e07 	umull	r0, lr, lr, r7
10011554:	1840      	adds	r0, r0, r1
10011556:	ea4f 0b5b 	mov.w	fp, fp, lsr #1
1001155a:	3030      	adds	r0, #48	@ 0x30
1001155c:	f805 0c01 	strb.w	r0, [r5, #-1]
10011560:	ea4b 7bc4 	orr.w	fp, fp, r4, lsl #31
10011564:	f10c 0c01 	add.w	ip, ip, #1
10011568:	3d01      	subs	r5, #1
1001156a:	0864      	lsrs	r4, r4, #1
1001156c:	2e00      	cmp	r6, #0
1001156e:	d0d3      	beq.n	10011518 <_vfprintf_r+0x1098>
10011570:	f898 1000 	ldrb.w	r1, [r8]
10011574:	458c      	cmp	ip, r1
10011576:	d1cf      	bne.n	10011518 <_vfprintf_r+0x1098>
10011578:	f1bc 0fff 	cmp.w	ip, #255	@ 0xff
1001157c:	d0cc      	beq.n	10011518 <_vfprintf_r+0x1098>
1001157e:	2b0a      	cmp	r3, #10
10011580:	f172 0200 	sbcs.w	r2, r2, #0
10011584:	f080 82c3 	bcs.w	10011b0e <_vfprintf_r+0x168e>
10011588:	f8cd 806c 	str.w	r8, [sp, #108]	@ 0x6c
1001158c:	9c06      	ldr	r4, [sp, #24]
1001158e:	f8dd 8030 	ldr.w	r8, [sp, #48]	@ 0x30
10011592:	f8cd c04c 	str.w	ip, [sp, #76]	@ 0x4c
10011596:	f7ff bbc5 	b.w	10010d24 <_vfprintf_r+0x8a4>
1001159a:	e9dd 1007 	ldrd	r1, r0, [sp, #28]
1001159e:	aa32      	add	r2, sp, #200	@ 0xc8
100115a0:	9315      	str	r3, [sp, #84]	@ 0x54
100115a2:	f000 fe11 	bl	100121c8 <__sprint_r>
100115a6:	2800      	cmp	r0, #0
100115a8:	f47f ac6e 	bne.w	10010e88 <_vfprintf_r+0xa08>
100115ac:	f89d 209f 	ldrb.w	r2, [sp, #159]	@ 0x9f
100115b0:	9c34      	ldr	r4, [sp, #208]	@ 0xd0
100115b2:	9b15      	ldr	r3, [sp, #84]	@ 0x54
100115b4:	f10d 08d4 	add.w	r8, sp, #212	@ 0xd4
100115b8:	f7ff b8fa 	b.w	100107b0 <_vfprintf_r+0x330>
100115bc:	46a3      	mov	fp, r4
100115be:	f7ff b8b7 	b.w	10010730 <_vfprintf_r+0x2b0>
100115c2:	46d3      	mov	fp, sl
100115c4:	f7ff b8b4 	b.w	10010730 <_vfprintf_r+0x2b0>
100115c8:	4658      	mov	r0, fp
100115ca:	f002 fa09 	bl	100139e0 <__sinit>
100115ce:	f7fe bf74 	b.w	100104ba <_vfprintf_r+0x3a>
100115d2:	2901      	cmp	r1, #1
100115d4:	464c      	mov	r4, r9
100115d6:	f47f ab95 	bne.w	10010d04 <_vfprintf_r+0x884>
100115da:	e4d3      	b.n	10010f84 <_vfprintf_r+0xb04>
100115dc:	e9dd 1007 	ldrd	r1, r0, [sp, #28]
100115e0:	aa32      	add	r2, sp, #200	@ 0xc8
100115e2:	f000 fdf1 	bl	100121c8 <__sprint_r>
100115e6:	2800      	cmp	r0, #0
100115e8:	f47f ac4e 	bne.w	10010e88 <_vfprintf_r+0xa08>
100115ec:	9c34      	ldr	r4, [sp, #208]	@ 0xd0
100115ee:	f10d 08d4 	add.w	r8, sp, #212	@ 0xd4
100115f2:	f7ff bb46 	b.w	10010c82 <_vfprintf_r+0x802>
100115f6:	46cb      	mov	fp, r9
100115f8:	f7ff b89a 	b.w	10010730 <_vfprintf_r+0x2b0>
100115fc:	af30      	add	r7, sp, #192	@ 0xc0
100115fe:	2208      	movs	r2, #8
10011600:	2100      	movs	r1, #0
10011602:	4638      	mov	r0, r7
10011604:	952b      	str	r5, [sp, #172]	@ 0xac
10011606:	f002 fd07 	bl	10014018 <memset>
1001160a:	9b09      	ldr	r3, [sp, #36]	@ 0x24
1001160c:	1c58      	adds	r0, r3, #1
1001160e:	f000 8270 	beq.w	10011af2 <_vfprintf_r+0x1672>
10011612:	2400      	movs	r4, #0
10011614:	f8cd 9018 	str.w	r9, [sp, #24]
10011618:	46a3      	mov	fp, r4
1001161a:	f8dd 9020 	ldr.w	r9, [sp, #32]
1001161e:	469a      	mov	sl, r3
10011620:	e00c      	b.n	1001163c <_vfprintf_r+0x11bc>
10011622:	a945      	add	r1, sp, #276	@ 0x114
10011624:	4648      	mov	r0, r9
10011626:	f002 ff57 	bl	100144d8 <_wcrtomb_r>
1001162a:	1c41      	adds	r1, r0, #1
1001162c:	4458      	add	r0, fp
1001162e:	f000 8475 	beq.w	10011f1c <_vfprintf_r+0x1a9c>
10011632:	4550      	cmp	r0, sl
10011634:	dc08      	bgt.n	10011648 <_vfprintf_r+0x11c8>
10011636:	f000 84c2 	beq.w	10011fbe <_vfprintf_r+0x1b3e>
1001163a:	4683      	mov	fp, r0
1001163c:	9a2b      	ldr	r2, [sp, #172]	@ 0xac
1001163e:	5912      	ldr	r2, [r2, r4]
10011640:	463b      	mov	r3, r7
10011642:	3404      	adds	r4, #4
10011644:	2a00      	cmp	r2, #0
10011646:	d1ec      	bne.n	10011622 <_vfprintf_r+0x11a2>
10011648:	f8dd 9018 	ldr.w	r9, [sp, #24]
1001164c:	f1bb 0f00 	cmp.w	fp, #0
10011650:	f000 8342 	beq.w	10011cd8 <_vfprintf_r+0x1858>
10011654:	f1bb 0f63 	cmp.w	fp, #99	@ 0x63
10011658:	f340 83f9 	ble.w	10011e4e <_vfprintf_r+0x19ce>
1001165c:	9808      	ldr	r0, [sp, #32]
1001165e:	f10b 0101 	add.w	r1, fp, #1
10011662:	f7fe fc3f 	bl	1000fee4 <_malloc_r>
10011666:	4605      	mov	r5, r0
10011668:	2800      	cmp	r0, #0
1001166a:	f000 8457 	beq.w	10011f1c <_vfprintf_r+0x1a9c>
1001166e:	900c      	str	r0, [sp, #48]	@ 0x30
10011670:	2208      	movs	r2, #8
10011672:	2100      	movs	r1, #0
10011674:	4638      	mov	r0, r7
10011676:	f002 fccf 	bl	10014018 <memset>
1001167a:	9808      	ldr	r0, [sp, #32]
1001167c:	9700      	str	r7, [sp, #0]
1001167e:	465b      	mov	r3, fp
10011680:	aa2b      	add	r2, sp, #172	@ 0xac
10011682:	4629      	mov	r1, r5
10011684:	f002 ff4e 	bl	10014524 <_wcsrtombs_r>
10011688:	4583      	cmp	fp, r0
1001168a:	f040 8517 	bne.w	100120bc <_vfprintf_r+0x1c3c>
1001168e:	2300      	movs	r3, #0
10011690:	f805 300b 	strb.w	r3, [r5, fp]
10011694:	ea2b 71eb 	bic.w	r1, fp, fp, asr #31
10011698:	f89d 209f 	ldrb.w	r2, [sp, #159]	@ 0x9f
1001169c:	960d      	str	r6, [sp, #52]	@ 0x34
1001169e:	9309      	str	r3, [sp, #36]	@ 0x24
100116a0:	9106      	str	r1, [sp, #24]
100116a2:	9314      	str	r3, [sp, #80]	@ 0x50
100116a4:	9310      	str	r3, [sp, #64]	@ 0x40
100116a6:	9312      	str	r3, [sp, #72]	@ 0x48
100116a8:	f7ff b925 	b.w	100108f6 <_vfprintf_r+0x476>
100116ac:	4a0a      	ldr	r2, [pc, #40]	@ (100116d8 <_vfprintf_r+0x1258>)
100116ae:	9215      	str	r2, [sp, #84]	@ 0x54
100116b0:	3301      	adds	r3, #1
100116b2:	9a15      	ldr	r2, [sp, #84]	@ 0x54
100116b4:	f8c8 2000 	str.w	r2, [r8]
100116b8:	442c      	add	r4, r5
100116ba:	2b07      	cmp	r3, #7
100116bc:	f8c8 5004 	str.w	r5, [r8, #4]
100116c0:	e9cd 3433 	strd	r3, r4, [sp, #204]	@ 0xcc
100116c4:	f77f a8b1 	ble.w	1001082a <_vfprintf_r+0x3aa>
100116c8:	f7ff bbfe 	b.w	10010ec8 <_vfprintf_r+0xa48>
100116cc:	10019288 	.word	0x10019288
100116d0:	10019274 	.word	0x10019274
100116d4:	1001929c 	.word	0x1001929c
100116d8:	100192a8 	.word	0x100192a8
100116dc:	cccccccd 	.word	0xcccccccd
100116e0:	9b0d      	ldr	r3, [sp, #52]	@ 0x34
100116e2:	9a0a      	ldr	r2, [sp, #40]	@ 0x28
100116e4:	681b      	ldr	r3, [r3, #0]
100116e6:	601a      	str	r2, [r3, #0]
100116e8:	f7ff baaa 	b.w	10010c40 <_vfprintf_r+0x7c0>
100116ec:	f8dd 9024 	ldr.w	r9, [sp, #36]	@ 0x24
100116f0:	9b15      	ldr	r3, [sp, #84]	@ 0x54
100116f2:	603b      	str	r3, [r7, #0]
100116f4:	3601      	adds	r6, #1
100116f6:	4444      	add	r4, r8
100116f8:	2e07      	cmp	r6, #7
100116fa:	e9cd 6433 	strd	r6, r4, [sp, #204]	@ 0xcc
100116fe:	f8c7 8004 	str.w	r8, [r7, #4]
10011702:	f77f ac2b 	ble.w	10010f5c <_vfprintf_r+0xadc>
10011706:	e527      	b.n	10011158 <_vfprintf_r+0xcd8>
10011708:	2e10      	cmp	r6, #16
1001170a:	9b33      	ldr	r3, [sp, #204]	@ 0xcc
1001170c:	f340 84ad 	ble.w	1001206a <_vfprintf_r+0x1bea>
10011710:	4898      	ldr	r0, [pc, #608]	@ (10011974 <_vfprintf_r+0x14f4>)
10011712:	9015      	str	r0, [sp, #84]	@ 0x54
10011714:	4642      	mov	r2, r8
10011716:	4621      	mov	r1, r4
10011718:	46a8      	mov	r8, r5
1001171a:	e9dd 4a07 	ldrd	r4, sl, [sp, #28]
1001171e:	2710      	movs	r7, #16
10011720:	4605      	mov	r5, r0
10011722:	e004      	b.n	1001172e <_vfprintf_r+0x12ae>
10011724:	3208      	adds	r2, #8
10011726:	3e10      	subs	r6, #16
10011728:	2e10      	cmp	r6, #16
1001172a:	f340 81ca 	ble.w	10011ac2 <_vfprintf_r+0x1642>
1001172e:	3301      	adds	r3, #1
10011730:	3110      	adds	r1, #16
10011732:	2b07      	cmp	r3, #7
10011734:	e9c2 5700 	strd	r5, r7, [r2]
10011738:	e9cd 3133 	strd	r3, r1, [sp, #204]	@ 0xcc
1001173c:	ddf2      	ble.n	10011724 <_vfprintf_r+0x12a4>
1001173e:	aa32      	add	r2, sp, #200	@ 0xc8
10011740:	4621      	mov	r1, r4
10011742:	4650      	mov	r0, sl
10011744:	f000 fd40 	bl	100121c8 <__sprint_r>
10011748:	2800      	cmp	r0, #0
1001174a:	f47f af3a 	bne.w	100115c2 <_vfprintf_r+0x1142>
1001174e:	e9dd 3133 	ldrd	r3, r1, [sp, #204]	@ 0xcc
10011752:	aa35      	add	r2, sp, #212	@ 0xd4
10011754:	e7e7      	b.n	10011726 <_vfprintf_r+0x12a6>
10011756:	f419 7200 	ands.w	r2, r9, #512	@ 0x200
1001175a:	bf1c      	itt	ne
1001175c:	b2db      	uxtbne	r3, r3
1001175e:	4602      	movne	r2, r0
10011760:	e63d      	b.n	100113de <_vfprintf_r+0xf5e>
10011762:	f419 7200 	ands.w	r2, r9, #512	@ 0x200
10011766:	bf1c      	itt	ne
10011768:	b2db      	uxtbne	r3, r3
1001176a:	4602      	movne	r2, r0
1001176c:	f7ff b9fb 	b.w	10010b66 <_vfprintf_r+0x6e6>
10011770:	9e09      	ldr	r6, [sp, #36]	@ 0x24
10011772:	2302      	movs	r3, #2
10011774:	e9cd 3600 	strd	r3, r6, [sp]
10011778:	ab30      	add	r3, sp, #192	@ 0xc0
1001177a:	9304      	str	r3, [sp, #16]
1001177c:	ab2b      	add	r3, sp, #172	@ 0xac
1001177e:	9303      	str	r3, [sp, #12]
10011780:	ab29      	add	r3, sp, #164	@ 0xa4
10011782:	9302      	str	r3, [sp, #8]
10011784:	9808      	ldr	r0, [sp, #32]
10011786:	e9dd 2324 	ldrd	r2, r3, [sp, #144]	@ 0x90
1001178a:	f002 ffb5 	bl	100146f8 <_dtoa_r>
1001178e:	9b0e      	ldr	r3, [sp, #56]	@ 0x38
10011790:	2b67      	cmp	r3, #103	@ 0x67
10011792:	4605      	mov	r5, r0
10011794:	f000 8177 	beq.w	10011a86 <_vfprintf_r+0x1606>
10011798:	9b0e      	ldr	r3, [sp, #56]	@ 0x38
1001179a:	2b47      	cmp	r3, #71	@ 0x47
1001179c:	f000 8173 	beq.w	10011a86 <_vfprintf_r+0x1606>
100117a0:	9b0e      	ldr	r3, [sp, #56]	@ 0x38
100117a2:	f023 0720 	bic.w	r7, r3, #32
100117a6:	2f46      	cmp	r7, #70	@ 0x46
100117a8:	eb00 0406 	add.w	r4, r0, r6
100117ac:	d105      	bne.n	100117ba <_vfprintf_r+0x133a>
100117ae:	7803      	ldrb	r3, [r0, #0]
100117b0:	2b30      	cmp	r3, #48	@ 0x30
100117b2:	f000 83db 	beq.w	10011f6c <_vfprintf_r+0x1aec>
100117b6:	9e29      	ldr	r6, [sp, #164]	@ 0xa4
100117b8:	4434      	add	r4, r6
100117ba:	e9dd 0124 	ldrd	r0, r1, [sp, #144]	@ 0x90
100117be:	2200      	movs	r2, #0
100117c0:	2300      	movs	r3, #0
100117c2:	f007 f98b 	bl	10018adc <__aeabi_dcmpeq>
100117c6:	2800      	cmp	r0, #0
100117c8:	f000 81cc 	beq.w	10011b64 <_vfprintf_r+0x16e4>
100117cc:	4623      	mov	r3, r4
100117ce:	1b5b      	subs	r3, r3, r5
100117d0:	9313      	str	r3, [sp, #76]	@ 0x4c
100117d2:	9a29      	ldr	r2, [sp, #164]	@ 0xa4
100117d4:	9212      	str	r2, [sp, #72]	@ 0x48
100117d6:	2f47      	cmp	r7, #71	@ 0x47
100117d8:	f000 815d 	beq.w	10011a96 <_vfprintf_r+0x1616>
100117dc:	2f46      	cmp	r7, #70	@ 0x46
100117de:	f000 82e3 	beq.w	10011da8 <_vfprintf_r+0x1928>
100117e2:	990e      	ldr	r1, [sp, #56]	@ 0x38
100117e4:	1e53      	subs	r3, r2, #1
100117e6:	2961      	cmp	r1, #97	@ 0x61
100117e8:	9329      	str	r3, [sp, #164]	@ 0xa4
100117ea:	f000 8441 	beq.w	10012070 <_vfprintf_r+0x1bf0>
100117ee:	2941      	cmp	r1, #65	@ 0x41
100117f0:	f040 815c 	bne.w	10011aac <_vfprintf_r+0x162c>
100117f4:	2150      	movs	r1, #80	@ 0x50
100117f6:	2001      	movs	r0, #1
100117f8:	2b00      	cmp	r3, #0
100117fa:	bfb6      	itet	lt
100117fc:	f1c2 0301 	rsblt	r3, r2, #1
10011800:	222b      	movge	r2, #43	@ 0x2b
10011802:	222d      	movlt	r2, #45	@ 0x2d
10011804:	2b09      	cmp	r3, #9
10011806:	f88d 10b0 	strb.w	r1, [sp, #176]	@ 0xb0
1001180a:	f88d 20b1 	strb.w	r2, [sp, #177]	@ 0xb1
1001180e:	f340 8377 	ble.w	10011f00 <_vfprintf_r+0x1a80>
10011812:	f10d 04c7 	add.w	r4, sp, #199	@ 0xc7
10011816:	4e58      	ldr	r6, [pc, #352]	@ (10011978 <_vfprintf_r+0x14f8>)
10011818:	4622      	mov	r2, r4
1001181a:	4610      	mov	r0, r2
1001181c:	fba6 1203 	umull	r1, r2, r6, r3
10011820:	08d2      	lsrs	r2, r2, #3
10011822:	eb02 0182 	add.w	r1, r2, r2, lsl #2
10011826:	eba3 0141 	sub.w	r1, r3, r1, lsl #1
1001182a:	3130      	adds	r1, #48	@ 0x30
1001182c:	f800 1c01 	strb.w	r1, [r0, #-1]
10011830:	4619      	mov	r1, r3
10011832:	2963      	cmp	r1, #99	@ 0x63
10011834:	4613      	mov	r3, r2
10011836:	f100 32ff 	add.w	r2, r0, #4294967295	@ 0xffffffff
1001183a:	dcee      	bgt.n	1001181a <_vfprintf_r+0x139a>
1001183c:	3330      	adds	r3, #48	@ 0x30
1001183e:	f802 3c01 	strb.w	r3, [r2, #-1]
10011842:	1e83      	subs	r3, r0, #2
10011844:	42a3      	cmp	r3, r4
10011846:	f080 840c 	bcs.w	10012062 <_vfprintf_r+0x1be2>
1001184a:	f10d 02b1 	add.w	r2, sp, #177	@ 0xb1
1001184e:	f813 1b01 	ldrb.w	r1, [r3], #1
10011852:	f802 1f01 	strb.w	r1, [r2, #1]!
10011856:	42a3      	cmp	r3, r4
10011858:	d1f9      	bne.n	1001184e <_vfprintf_r+0x13ce>
1001185a:	ab5e      	add	r3, sp, #376	@ 0x178
1001185c:	1a18      	subs	r0, r3, r0
1001185e:	f1a0 03ad 	sub.w	r3, r0, #173	@ 0xad
10011862:	931c      	str	r3, [sp, #112]	@ 0x70
10011864:	9b13      	ldr	r3, [sp, #76]	@ 0x4c
10011866:	9a1c      	ldr	r2, [sp, #112]	@ 0x70
10011868:	2b01      	cmp	r3, #1
1001186a:	eb03 0b02 	add.w	fp, r3, r2
1001186e:	f340 8378 	ble.w	10011f62 <_vfprintf_r+0x1ae2>
10011872:	9b18      	ldr	r3, [sp, #96]	@ 0x60
10011874:	449b      	add	fp, r3
10011876:	9b06      	ldr	r3, [sp, #24]
10011878:	f423 6380 	bic.w	r3, r3, #1024	@ 0x400
1001187c:	f443 7980 	orr.w	r9, r3, #256	@ 0x100
10011880:	ea2b 72eb 	bic.w	r2, fp, fp, asr #31
10011884:	2300      	movs	r3, #0
10011886:	9314      	str	r3, [sp, #80]	@ 0x50
10011888:	9206      	str	r2, [sp, #24]
1001188a:	9310      	str	r3, [sp, #64]	@ 0x40
1001188c:	9312      	str	r3, [sp, #72]	@ 0x48
1001188e:	9b1f      	ldr	r3, [sp, #124]	@ 0x7c
10011890:	2b00      	cmp	r3, #0
10011892:	f040 810f 	bne.w	10011ab4 <_vfprintf_r+0x1634>
10011896:	f89d 209f 	ldrb.w	r2, [sp, #159]	@ 0x9f
1001189a:	9309      	str	r3, [sp, #36]	@ 0x24
1001189c:	f7ff b82b 	b.w	100108f6 <_vfprintf_r+0x476>
100118a0:	9b13      	ldr	r3, [sp, #76]	@ 0x4c
100118a2:	ebab 060a 	sub.w	r6, fp, sl
100118a6:	1b5d      	subs	r5, r3, r5
100118a8:	42ae      	cmp	r6, r5
100118aa:	bfa8      	it	ge
100118ac:	462e      	movge	r6, r5
100118ae:	e41a      	b.n	100110e6 <_vfprintf_r+0xc66>
100118b0:	f343 12c0 	sbfx	r2, r3, #7, #1
100118b4:	4611      	mov	r1, r2
100118b6:	b25b      	sxtb	r3, r3
100118b8:	f7ff b8d3 	b.w	10010a62 <_vfprintf_r+0x5e2>
100118bc:	9b0d      	ldr	r3, [sp, #52]	@ 0x34
100118be:	9a0a      	ldr	r2, [sp, #40]	@ 0x28
100118c0:	681b      	ldr	r3, [r3, #0]
100118c2:	801a      	strh	r2, [r3, #0]
100118c4:	f7ff b9bc 	b.w	10010c40 <_vfprintf_r+0x7c0>
100118c8:	9907      	ldr	r1, [sp, #28]
100118ca:	aa32      	add	r2, sp, #200	@ 0xc8
100118cc:	4658      	mov	r0, fp
100118ce:	f000 fc7b 	bl	100121c8 <__sprint_r>
100118d2:	2800      	cmp	r0, #0
100118d4:	f43e af1c 	beq.w	10010710 <_vfprintf_r+0x290>
100118d8:	f7fe bf30 	b.w	1001073c <_vfprintf_r+0x2bc>
100118dc:	4628      	mov	r0, r5
100118de:	960d      	str	r6, [sp, #52]	@ 0x34
100118e0:	f002 fd8e 	bl	10014400 <strlen>
100118e4:	4683      	mov	fp, r0
100118e6:	f7ff b89f 	b.w	10010a28 <_vfprintf_r+0x5a8>
100118ea:	2358      	movs	r3, #88	@ 0x58
100118ec:	f88d 30a1 	strb.w	r3, [sp, #161]	@ 0xa1
100118f0:	2330      	movs	r3, #48	@ 0x30
100118f2:	f88d 30a0 	strb.w	r3, [sp, #160]	@ 0xa0
100118f6:	f049 0302 	orr.w	r3, r9, #2
100118fa:	9306      	str	r3, [sp, #24]
100118fc:	9b09      	ldr	r3, [sp, #36]	@ 0x24
100118fe:	2b63      	cmp	r3, #99	@ 0x63
10011900:	f300 82f6 	bgt.w	10011ef0 <_vfprintf_r+0x1a70>
10011904:	2300      	movs	r3, #0
10011906:	930c      	str	r3, [sp, #48]	@ 0x30
10011908:	ad45      	add	r5, sp, #276	@ 0x114
1001190a:	f449 7381 	orr.w	r3, r9, #258	@ 0x102
1001190e:	9315      	str	r3, [sp, #84]	@ 0x54
10011910:	9b17      	ldr	r3, [sp, #92]	@ 0x5c
10011912:	2b00      	cmp	r3, #0
10011914:	f2c0 8200 	blt.w	10011d18 <_vfprintf_r+0x1898>
10011918:	ed9d 7b16 	vldr	d7, [sp, #88]	@ 0x58
1001191c:	ed8d 7b24 	vstr	d7, [sp, #144]	@ 0x90
10011920:	2300      	movs	r3, #0
10011922:	931f      	str	r3, [sp, #124]	@ 0x7c
10011924:	9b0e      	ldr	r3, [sp, #56]	@ 0x38
10011926:	2b61      	cmp	r3, #97	@ 0x61
10011928:	f47f ad1c 	bne.w	10011364 <_vfprintf_r+0xee4>
1001192c:	aa29      	add	r2, sp, #164	@ 0xa4
1001192e:	e9dd 0124 	ldrd	r0, r1, [sp, #144]	@ 0x90
10011932:	f002 fe03 	bl	1001453c <frexp>
10011936:	2200      	movs	r2, #0
10011938:	f04f 537f 	mov.w	r3, #1069547520	@ 0x3fc00000
1001193c:	f006 fe66 	bl	1001860c <__aeabi_dmul>
10011940:	4602      	mov	r2, r0
10011942:	460b      	mov	r3, r1
10011944:	e9cd 2310 	strd	r2, r3, [sp, #64]	@ 0x40
10011948:	2200      	movs	r2, #0
1001194a:	2300      	movs	r3, #0
1001194c:	f007 f8c6 	bl	10018adc <__aeabi_dcmpeq>
10011950:	2800      	cmp	r0, #0
10011952:	f040 82f8 	bne.w	10011f46 <_vfprintf_r+0x1ac6>
10011956:	4b09      	ldr	r3, [pc, #36]	@ (1001197c <_vfprintf_r+0x14fc>)
10011958:	9312      	str	r3, [sp, #72]	@ 0x48
1001195a:	9b09      	ldr	r3, [sp, #36]	@ 0x24
1001195c:	f8cd 804c 	str.w	r8, [sp, #76]	@ 0x4c
10011960:	f103 39ff 	add.w	r9, r3, #4294967295	@ 0xffffffff
10011964:	462e      	mov	r6, r5
10011966:	9514      	str	r5, [sp, #80]	@ 0x50
10011968:	f8dd b048 	ldr.w	fp, [sp, #72]	@ 0x48
1001196c:	464d      	mov	r5, r9
1001196e:	e9dd 8910 	ldrd	r8, r9, [sp, #64]	@ 0x40
10011972:	e00b      	b.n	1001198c <_vfprintf_r+0x150c>
10011974:	100192a8 	.word	0x100192a8
10011978:	cccccccd 	.word	0xcccccccd
1001197c:	10019274 	.word	0x10019274
10011980:	2200      	movs	r2, #0
10011982:	2300      	movs	r3, #0
10011984:	f007 f8aa 	bl	10018adc <__aeabi_dcmpeq>
10011988:	b9f0      	cbnz	r0, 100119c8 <_vfprintf_r+0x1548>
1001198a:	463d      	mov	r5, r7
1001198c:	4ba9      	ldr	r3, [pc, #676]	@ (10011c34 <_vfprintf_r+0x17b4>)
1001198e:	2200      	movs	r2, #0
10011990:	4640      	mov	r0, r8
10011992:	4649      	mov	r1, r9
10011994:	f006 fe3a 	bl	1001860c <__aeabi_dmul>
10011998:	4689      	mov	r9, r1
1001199a:	4680      	mov	r8, r0
1001199c:	f007 f8e6 	bl	10018b6c <__aeabi_d2iz>
100119a0:	4604      	mov	r4, r0
100119a2:	f006 fdc9 	bl	10018538 <__aeabi_i2d>
100119a6:	460b      	mov	r3, r1
100119a8:	4602      	mov	r2, r0
100119aa:	4649      	mov	r1, r9
100119ac:	4640      	mov	r0, r8
100119ae:	f006 fc75 	bl	1001829c <__aeabi_dsub>
100119b2:	f81b 3004 	ldrb.w	r3, [fp, r4]
100119b6:	46b2      	mov	sl, r6
100119b8:	f806 3b01 	strb.w	r3, [r6], #1
100119bc:	1c6b      	adds	r3, r5, #1
100119be:	f105 37ff 	add.w	r7, r5, #4294967295	@ 0xffffffff
100119c2:	4680      	mov	r8, r0
100119c4:	4689      	mov	r9, r1
100119c6:	d1db      	bne.n	10011980 <_vfprintf_r+0x1500>
100119c8:	46cb      	mov	fp, r9
100119ca:	4657      	mov	r7, sl
100119cc:	46c2      	mov	sl, r8
100119ce:	4b9a      	ldr	r3, [pc, #616]	@ (10011c38 <_vfprintf_r+0x17b8>)
100119d0:	f8dd 804c 	ldr.w	r8, [sp, #76]	@ 0x4c
100119d4:	2200      	movs	r2, #0
100119d6:	4650      	mov	r0, sl
100119d8:	4659      	mov	r1, fp
100119da:	46a9      	mov	r9, r5
100119dc:	9d14      	ldr	r5, [sp, #80]	@ 0x50
100119de:	f007 f8a5 	bl	10018b2c <__aeabi_dcmpgt>
100119e2:	2800      	cmp	r0, #0
100119e4:	f040 8264 	bne.w	10011eb0 <_vfprintf_r+0x1a30>
100119e8:	4b93      	ldr	r3, [pc, #588]	@ (10011c38 <_vfprintf_r+0x17b8>)
100119ea:	4650      	mov	r0, sl
100119ec:	4659      	mov	r1, fp
100119ee:	2200      	movs	r2, #0
100119f0:	f007 f874 	bl	10018adc <__aeabi_dcmpeq>
100119f4:	b110      	cbz	r0, 100119fc <_vfprintf_r+0x157c>
100119f6:	07e2      	lsls	r2, r4, #31
100119f8:	f100 825a 	bmi.w	10011eb0 <_vfprintf_r+0x1a30>
100119fc:	f1b9 0f00 	cmp.w	r9, #0
10011a00:	f2c0 8270 	blt.w	10011ee4 <_vfprintf_r+0x1a64>
10011a04:	f109 0301 	add.w	r3, r9, #1
10011a08:	4433      	add	r3, r6
10011a0a:	2230      	movs	r2, #48	@ 0x30
10011a0c:	f806 2b01 	strb.w	r2, [r6], #1
10011a10:	42b3      	cmp	r3, r6
10011a12:	d1fb      	bne.n	10011a0c <_vfprintf_r+0x158c>
10011a14:	1b5b      	subs	r3, r3, r5
10011a16:	9313      	str	r3, [sp, #76]	@ 0x4c
10011a18:	9b0e      	ldr	r3, [sp, #56]	@ 0x38
10011a1a:	f023 0720 	bic.w	r7, r3, #32
10011a1e:	e6d8      	b.n	100117d2 <_vfprintf_r+0x1352>
10011a20:	e9dd 1007 	ldrd	r1, r0, [sp, #28]
10011a24:	aa32      	add	r2, sp, #200	@ 0xc8
10011a26:	f000 fbcf 	bl	100121c8 <__sprint_r>
10011a2a:	2800      	cmp	r0, #0
10011a2c:	f47f aa2c 	bne.w	10010e88 <_vfprintf_r+0xa08>
10011a30:	e9dd 3433 	ldrd	r3, r4, [sp, #204]	@ 0xcc
10011a34:	9a29      	ldr	r2, [sp, #164]	@ 0xa4
10011a36:	f10d 08d4 	add.w	r8, sp, #212	@ 0xd4
10011a3a:	f7ff ba36 	b.w	10010eaa <_vfprintf_r+0xa2a>
10011a3e:	6d88      	ldr	r0, [r1, #88]	@ 0x58
10011a40:	f002 fbe4 	bl	1001420c <__retarget_lock_release_recursive>
10011a44:	f7fe be36 	b.w	100106b4 <_vfprintf_r+0x234>
10011a48:	9b09      	ldr	r3, [sp, #36]	@ 0x24
10011a4a:	1c5e      	adds	r6, r3, #1
10011a4c:	2302      	movs	r3, #2
10011a4e:	e691      	b.n	10011774 <_vfprintf_r+0x12f4>
10011a50:	9e09      	ldr	r6, [sp, #36]	@ 0x24
10011a52:	2303      	movs	r3, #3
10011a54:	e68e      	b.n	10011774 <_vfprintf_r+0x12f4>
10011a56:	aa29      	add	r2, sp, #164	@ 0xa4
10011a58:	e9dd 0124 	ldrd	r0, r1, [sp, #144]	@ 0x90
10011a5c:	f002 fd6e 	bl	1001453c <frexp>
10011a60:	2200      	movs	r2, #0
10011a62:	f04f 537f 	mov.w	r3, #1069547520	@ 0x3fc00000
10011a66:	f006 fdd1 	bl	1001860c <__aeabi_dmul>
10011a6a:	4602      	mov	r2, r0
10011a6c:	460b      	mov	r3, r1
10011a6e:	e9cd 2310 	strd	r2, r3, [sp, #64]	@ 0x40
10011a72:	2200      	movs	r2, #0
10011a74:	2300      	movs	r3, #0
10011a76:	f007 f831 	bl	10018adc <__aeabi_dcmpeq>
10011a7a:	2800      	cmp	r0, #0
10011a7c:	f040 8263 	bne.w	10011f46 <_vfprintf_r+0x1ac6>
10011a80:	4b6e      	ldr	r3, [pc, #440]	@ (10011c3c <_vfprintf_r+0x17bc>)
10011a82:	9312      	str	r3, [sp, #72]	@ 0x48
10011a84:	e769      	b.n	1001195a <_vfprintf_r+0x14da>
10011a86:	9b06      	ldr	r3, [sp, #24]
10011a88:	07db      	lsls	r3, r3, #31
10011a8a:	f100 81e4 	bmi.w	10011e56 <_vfprintf_r+0x19d6>
10011a8e:	9b30      	ldr	r3, [sp, #192]	@ 0xc0
10011a90:	9a29      	ldr	r2, [sp, #164]	@ 0xa4
10011a92:	1b5b      	subs	r3, r3, r5
10011a94:	9313      	str	r3, [sp, #76]	@ 0x4c
10011a96:	1cd3      	adds	r3, r2, #3
10011a98:	9212      	str	r2, [sp, #72]	@ 0x48
10011a9a:	db02      	blt.n	10011aa2 <_vfprintf_r+0x1622>
10011a9c:	9b09      	ldr	r3, [sp, #36]	@ 0x24
10011a9e:	4293      	cmp	r3, r2
10011aa0:	da44      	bge.n	10011b2c <_vfprintf_r+0x16ac>
10011aa2:	9b0e      	ldr	r3, [sp, #56]	@ 0x38
10011aa4:	3b02      	subs	r3, #2
10011aa6:	930e      	str	r3, [sp, #56]	@ 0x38
10011aa8:	1e53      	subs	r3, r2, #1
10011aaa:	9329      	str	r3, [sp, #164]	@ 0xa4
10011aac:	f89d 1038 	ldrb.w	r1, [sp, #56]	@ 0x38
10011ab0:	2000      	movs	r0, #0
10011ab2:	e6a1      	b.n	100117f8 <_vfprintf_r+0x1378>
10011ab4:	222d      	movs	r2, #45	@ 0x2d
10011ab6:	2300      	movs	r3, #0
10011ab8:	f88d 209f 	strb.w	r2, [sp, #159]	@ 0x9f
10011abc:	9309      	str	r3, [sp, #36]	@ 0x24
10011abe:	f7fe bf1d 	b.w	100108fc <_vfprintf_r+0x47c>
10011ac2:	4645      	mov	r5, r8
10011ac4:	460c      	mov	r4, r1
10011ac6:	4690      	mov	r8, r2
10011ac8:	3301      	adds	r3, #1
10011aca:	9a15      	ldr	r2, [sp, #84]	@ 0x54
10011acc:	f8c8 2000 	str.w	r2, [r8]
10011ad0:	4434      	add	r4, r6
10011ad2:	2b07      	cmp	r3, #7
10011ad4:	e9cd 3433 	strd	r3, r4, [sp, #204]	@ 0xcc
10011ad8:	f8c8 6004 	str.w	r6, [r8, #4]
10011adc:	f300 8226 	bgt.w	10011f2c <_vfprintf_r+0x1aac>
10011ae0:	f108 0808 	add.w	r8, r8, #8
10011ae4:	f7ff bacb 	b.w	1001107e <_vfprintf_r+0xbfe>
10011ae8:	222d      	movs	r2, #45	@ 0x2d
10011aea:	f88d 209f 	strb.w	r2, [sp, #159]	@ 0x9f
10011aee:	f7fe bef1 	b.w	100108d4 <_vfprintf_r+0x454>
10011af2:	2300      	movs	r3, #0
10011af4:	9808      	ldr	r0, [sp, #32]
10011af6:	9700      	str	r7, [sp, #0]
10011af8:	aa2b      	add	r2, sp, #172	@ 0xac
10011afa:	4619      	mov	r1, r3
10011afc:	f002 fd12 	bl	10014524 <_wcsrtombs_r>
10011b00:	f1b0 3fff 	cmp.w	r0, #4294967295	@ 0xffffffff
10011b04:	4683      	mov	fp, r0
10011b06:	f000 8209 	beq.w	10011f1c <_vfprintf_r+0x1a9c>
10011b0a:	952b      	str	r5, [sp, #172]	@ 0xac
10011b0c:	e59e      	b.n	1001164c <_vfprintf_r+0x11cc>
10011b0e:	9b1e      	ldr	r3, [sp, #120]	@ 0x78
10011b10:	991d      	ldr	r1, [sp, #116]	@ 0x74
10011b12:	1aed      	subs	r5, r5, r3
10011b14:	461a      	mov	r2, r3
10011b16:	4628      	mov	r0, r5
10011b18:	f002 fad0 	bl	100140bc <strncpy>
10011b1c:	f898 3001 	ldrb.w	r3, [r8, #1]
10011b20:	b10b      	cbz	r3, 10011b26 <_vfprintf_r+0x16a6>
10011b22:	f108 0801 	add.w	r8, r8, #1
10011b26:	f04f 0c00 	mov.w	ip, #0
10011b2a:	e4f9      	b.n	10011520 <_vfprintf_r+0x10a0>
10011b2c:	9b13      	ldr	r3, [sp, #76]	@ 0x4c
10011b2e:	4293      	cmp	r3, r2
10011b30:	f300 8194 	bgt.w	10011e5c <_vfprintf_r+0x19dc>
10011b34:	9b06      	ldr	r3, [sp, #24]
10011b36:	07de      	lsls	r6, r3, #31
10011b38:	f140 824a 	bpl.w	10011fd0 <_vfprintf_r+0x1b50>
10011b3c:	9b18      	ldr	r3, [sp, #96]	@ 0x60
10011b3e:	eb02 0b03 	add.w	fp, r2, r3
10011b42:	9b06      	ldr	r3, [sp, #24]
10011b44:	055c      	lsls	r4, r3, #21
10011b46:	d502      	bpl.n	10011b4e <_vfprintf_r+0x16ce>
10011b48:	2a00      	cmp	r2, #0
10011b4a:	f300 824a 	bgt.w	10011fe2 <_vfprintf_r+0x1b62>
10011b4e:	ea2b 73eb 	bic.w	r3, fp, fp, asr #31
10011b52:	9306      	str	r3, [sp, #24]
10011b54:	f8dd 9054 	ldr.w	r9, [sp, #84]	@ 0x54
10011b58:	2367      	movs	r3, #103	@ 0x67
10011b5a:	930e      	str	r3, [sp, #56]	@ 0x38
10011b5c:	2300      	movs	r3, #0
10011b5e:	9314      	str	r3, [sp, #80]	@ 0x50
10011b60:	9310      	str	r3, [sp, #64]	@ 0x40
10011b62:	e694      	b.n	1001188e <_vfprintf_r+0x140e>
10011b64:	9b30      	ldr	r3, [sp, #192]	@ 0xc0
10011b66:	42a3      	cmp	r3, r4
10011b68:	f4bf ae31 	bcs.w	100117ce <_vfprintf_r+0x134e>
10011b6c:	2130      	movs	r1, #48	@ 0x30
10011b6e:	1c5a      	adds	r2, r3, #1
10011b70:	9230      	str	r2, [sp, #192]	@ 0xc0
10011b72:	7019      	strb	r1, [r3, #0]
10011b74:	9b30      	ldr	r3, [sp, #192]	@ 0xc0
10011b76:	429c      	cmp	r4, r3
10011b78:	d8f9      	bhi.n	10011b6e <_vfprintf_r+0x16ee>
10011b7a:	e628      	b.n	100117ce <_vfprintf_r+0x134e>
10011b7c:	4621      	mov	r1, r4
10011b7e:	461c      	mov	r4, r3
10011b80:	9b10      	ldr	r3, [sp, #64]	@ 0x40
10011b82:	f8cd b024 	str.w	fp, [sp, #36]	@ 0x24
10011b86:	f8cd 9038 	str.w	r9, [sp, #56]	@ 0x38
10011b8a:	4642      	mov	r2, r8
10011b8c:	4f2c      	ldr	r7, [pc, #176]	@ (10011c40 <_vfprintf_r+0x17c0>)
10011b8e:	f8dd 9050 	ldr.w	r9, [sp, #80]	@ 0x50
10011b92:	f8dd 8078 	ldr.w	r8, [sp, #120]	@ 0x78
10011b96:	f8dd a06c 	ldr.w	sl, [sp, #108]	@ 0x6c
10011b9a:	f8dd b020 	ldr.w	fp, [sp, #32]
10011b9e:	b37b      	cbz	r3, 10011c00 <_vfprintf_r+0x1780>
10011ba0:	f1b9 0f00 	cmp.w	r9, #0
10011ba4:	f000 8085 	beq.w	10011cb2 <_vfprintf_r+0x1832>
10011ba8:	f109 39ff 	add.w	r9, r9, #4294967295	@ 0xffffffff
10011bac:	9833      	ldr	r0, [sp, #204]	@ 0xcc
10011bae:	9b1d      	ldr	r3, [sp, #116]	@ 0x74
10011bb0:	3001      	adds	r0, #1
10011bb2:	4441      	add	r1, r8
10011bb4:	2807      	cmp	r0, #7
10011bb6:	e9c2 3800 	strd	r3, r8, [r2]
10011bba:	9134      	str	r1, [sp, #208]	@ 0xd0
10011bbc:	9033      	str	r0, [sp, #204]	@ 0xcc
10011bbe:	dc6d      	bgt.n	10011c9c <_vfprintf_r+0x181c>
10011bc0:	3208      	adds	r2, #8
10011bc2:	9b09      	ldr	r3, [sp, #36]	@ 0x24
10011bc4:	f89a 0000 	ldrb.w	r0, [sl]
10011bc8:	1b1e      	subs	r6, r3, r4
10011bca:	4286      	cmp	r6, r0
10011bcc:	bfa8      	it	ge
10011bce:	4606      	movge	r6, r0
10011bd0:	2e00      	cmp	r6, #0
10011bd2:	dd0b      	ble.n	10011bec <_vfprintf_r+0x176c>
10011bd4:	9833      	ldr	r0, [sp, #204]	@ 0xcc
10011bd6:	3001      	adds	r0, #1
10011bd8:	4431      	add	r1, r6
10011bda:	2807      	cmp	r0, #7
10011bdc:	e9c2 4600 	strd	r4, r6, [r2]
10011be0:	9134      	str	r1, [sp, #208]	@ 0xd0
10011be2:	9033      	str	r0, [sp, #204]	@ 0xcc
10011be4:	dc6b      	bgt.n	10011cbe <_vfprintf_r+0x183e>
10011be6:	f89a 0000 	ldrb.w	r0, [sl]
10011bea:	3208      	adds	r2, #8
10011bec:	2e00      	cmp	r6, #0
10011bee:	bfac      	ite	ge
10011bf0:	1b85      	subge	r5, r0, r6
10011bf2:	4605      	movlt	r5, r0
10011bf4:	2d00      	cmp	r5, #0
10011bf6:	dc14      	bgt.n	10011c22 <_vfprintf_r+0x17a2>
10011bf8:	4404      	add	r4, r0
10011bfa:	9b10      	ldr	r3, [sp, #64]	@ 0x40
10011bfc:	2b00      	cmp	r3, #0
10011bfe:	d1cf      	bne.n	10011ba0 <_vfprintf_r+0x1720>
10011c00:	f1b9 0f00 	cmp.w	r9, #0
10011c04:	d1d0      	bne.n	10011ba8 <_vfprintf_r+0x1728>
10011c06:	f8dd b024 	ldr.w	fp, [sp, #36]	@ 0x24
10011c0a:	f8cd a06c 	str.w	sl, [sp, #108]	@ 0x6c
10011c0e:	46a2      	mov	sl, r4
10011c10:	45da      	cmp	sl, fp
10011c12:	f8dd 9038 	ldr.w	r9, [sp, #56]	@ 0x38
10011c16:	4690      	mov	r8, r2
10011c18:	460c      	mov	r4, r1
10011c1a:	bf28      	it	cs
10011c1c:	46da      	movcs	sl, fp
10011c1e:	f7ff ba35 	b.w	1001108c <_vfprintf_r+0xc0c>
10011c22:	2d10      	cmp	r5, #16
10011c24:	9833      	ldr	r0, [sp, #204]	@ 0xcc
10011c26:	f340 821a 	ble.w	1001205e <_vfprintf_r+0x1bde>
10011c2a:	4623      	mov	r3, r4
10011c2c:	463e      	mov	r6, r7
10011c2e:	462c      	mov	r4, r5
10011c30:	461d      	mov	r5, r3
10011c32:	e00c      	b.n	10011c4e <_vfprintf_r+0x17ce>
10011c34:	40300000 	.word	0x40300000
10011c38:	3fe00000 	.word	0x3fe00000
10011c3c:	10019288 	.word	0x10019288
10011c40:	100192a8 	.word	0x100192a8
10011c44:	3c10      	subs	r4, #16
10011c46:	2c10      	cmp	r4, #16
10011c48:	f102 0208 	add.w	r2, r2, #8
10011c4c:	dd16      	ble.n	10011c7c <_vfprintf_r+0x17fc>
10011c4e:	3001      	adds	r0, #1
10011c50:	3110      	adds	r1, #16
10011c52:	2310      	movs	r3, #16
10011c54:	2807      	cmp	r0, #7
10011c56:	e9cd 0133 	strd	r0, r1, [sp, #204]	@ 0xcc
10011c5a:	6017      	str	r7, [r2, #0]
10011c5c:	6053      	str	r3, [r2, #4]
10011c5e:	ddf1      	ble.n	10011c44 <_vfprintf_r+0x17c4>
10011c60:	9907      	ldr	r1, [sp, #28]
10011c62:	aa32      	add	r2, sp, #200	@ 0xc8
10011c64:	4658      	mov	r0, fp
10011c66:	f000 faaf 	bl	100121c8 <__sprint_r>
10011c6a:	2800      	cmp	r0, #0
10011c6c:	f47e ad60 	bne.w	10010730 <_vfprintf_r+0x2b0>
10011c70:	3c10      	subs	r4, #16
10011c72:	2c10      	cmp	r4, #16
10011c74:	e9dd 0133 	ldrd	r0, r1, [sp, #204]	@ 0xcc
10011c78:	aa35      	add	r2, sp, #212	@ 0xd4
10011c7a:	dce8      	bgt.n	10011c4e <_vfprintf_r+0x17ce>
10011c7c:	462b      	mov	r3, r5
10011c7e:	4625      	mov	r5, r4
10011c80:	461c      	mov	r4, r3
10011c82:	3001      	adds	r0, #1
10011c84:	4429      	add	r1, r5
10011c86:	2807      	cmp	r0, #7
10011c88:	e9cd 0133 	strd	r0, r1, [sp, #204]	@ 0xcc
10011c8c:	6016      	str	r6, [r2, #0]
10011c8e:	6055      	str	r5, [r2, #4]
10011c90:	dc4b      	bgt.n	10011d2a <_vfprintf_r+0x18aa>
10011c92:	f89a 0000 	ldrb.w	r0, [sl]
10011c96:	3208      	adds	r2, #8
10011c98:	4404      	add	r4, r0
10011c9a:	e7ae      	b.n	10011bfa <_vfprintf_r+0x177a>
10011c9c:	9907      	ldr	r1, [sp, #28]
10011c9e:	aa32      	add	r2, sp, #200	@ 0xc8
10011ca0:	4658      	mov	r0, fp
10011ca2:	f000 fa91 	bl	100121c8 <__sprint_r>
10011ca6:	2800      	cmp	r0, #0
10011ca8:	f47e ad42 	bne.w	10010730 <_vfprintf_r+0x2b0>
10011cac:	9934      	ldr	r1, [sp, #208]	@ 0xd0
10011cae:	aa35      	add	r2, sp, #212	@ 0xd4
10011cb0:	e787      	b.n	10011bc2 <_vfprintf_r+0x1742>
10011cb2:	9b10      	ldr	r3, [sp, #64]	@ 0x40
10011cb4:	3b01      	subs	r3, #1
10011cb6:	f10a 3aff 	add.w	sl, sl, #4294967295	@ 0xffffffff
10011cba:	9310      	str	r3, [sp, #64]	@ 0x40
10011cbc:	e776      	b.n	10011bac <_vfprintf_r+0x172c>
10011cbe:	9907      	ldr	r1, [sp, #28]
10011cc0:	aa32      	add	r2, sp, #200	@ 0xc8
10011cc2:	4658      	mov	r0, fp
10011cc4:	f000 fa80 	bl	100121c8 <__sprint_r>
10011cc8:	2800      	cmp	r0, #0
10011cca:	f47e ad31 	bne.w	10010730 <_vfprintf_r+0x2b0>
10011cce:	f89a 0000 	ldrb.w	r0, [sl]
10011cd2:	9934      	ldr	r1, [sp, #208]	@ 0xd0
10011cd4:	aa35      	add	r2, sp, #212	@ 0xd4
10011cd6:	e789      	b.n	10011bec <_vfprintf_r+0x176c>
10011cd8:	f89d 209f 	ldrb.w	r2, [sp, #159]	@ 0x9f
10011cdc:	960d      	str	r6, [sp, #52]	@ 0x34
10011cde:	f8cd b018 	str.w	fp, [sp, #24]
10011ce2:	f8cd b024 	str.w	fp, [sp, #36]	@ 0x24
10011ce6:	f8cd b050 	str.w	fp, [sp, #80]	@ 0x50
10011cea:	f8cd b040 	str.w	fp, [sp, #64]	@ 0x40
10011cee:	f8cd b048 	str.w	fp, [sp, #72]	@ 0x48
10011cf2:	f8cd b030 	str.w	fp, [sp, #48]	@ 0x30
10011cf6:	f7fe bdfe 	b.w	100108f6 <_vfprintf_r+0x476>
10011cfa:	e9dd 1007 	ldrd	r1, r0, [sp, #28]
10011cfe:	aa32      	add	r2, sp, #200	@ 0xc8
10011d00:	f000 fa62 	bl	100121c8 <__sprint_r>
10011d04:	2800      	cmp	r0, #0
10011d06:	f47f a8bf 	bne.w	10010e88 <_vfprintf_r+0xa08>
10011d0a:	9a29      	ldr	r2, [sp, #164]	@ 0xa4
10011d0c:	9c34      	ldr	r4, [sp, #208]	@ 0xd0
10011d0e:	f10d 08d4 	add.w	r8, sp, #212	@ 0xd4
10011d12:	f7ff baa5 	b.w	10011260 <_vfprintf_r+0xde0>
10011d16:	930c      	str	r3, [sp, #48]	@ 0x30
10011d18:	e9dd 1216 	ldrd	r1, r2, [sp, #88]	@ 0x58
10011d1c:	f102 4300 	add.w	r3, r2, #2147483648	@ 0x80000000
10011d20:	9325      	str	r3, [sp, #148]	@ 0x94
10011d22:	232d      	movs	r3, #45	@ 0x2d
10011d24:	9124      	str	r1, [sp, #144]	@ 0x90
10011d26:	931f      	str	r3, [sp, #124]	@ 0x7c
10011d28:	e5fc      	b.n	10011924 <_vfprintf_r+0x14a4>
10011d2a:	9907      	ldr	r1, [sp, #28]
10011d2c:	aa32      	add	r2, sp, #200	@ 0xc8
10011d2e:	4658      	mov	r0, fp
10011d30:	f000 fa4a 	bl	100121c8 <__sprint_r>
10011d34:	2800      	cmp	r0, #0
10011d36:	f47e acfb 	bne.w	10010730 <_vfprintf_r+0x2b0>
10011d3a:	f89a 0000 	ldrb.w	r0, [sl]
10011d3e:	9934      	ldr	r1, [sp, #208]	@ 0xd0
10011d40:	aa35      	add	r2, sp, #212	@ 0xd4
10011d42:	4404      	add	r4, r0
10011d44:	e759      	b.n	10011bfa <_vfprintf_r+0x177a>
10011d46:	e9dd 1007 	ldrd	r1, r0, [sp, #28]
10011d4a:	aa32      	add	r2, sp, #200	@ 0xc8
10011d4c:	f000 fa3c 	bl	100121c8 <__sprint_r>
10011d50:	2800      	cmp	r0, #0
10011d52:	f47f a899 	bne.w	10010e88 <_vfprintf_r+0xa08>
10011d56:	9c34      	ldr	r4, [sp, #208]	@ 0xd0
10011d58:	f10d 08d4 	add.w	r8, sp, #212	@ 0xd4
10011d5c:	f7ff b988 	b.w	10011070 <_vfprintf_r+0xbf0>
10011d60:	2378      	movs	r3, #120	@ 0x78
10011d62:	e5c3      	b.n	100118ec <_vfprintf_r+0x146c>
10011d64:	e9dd 1007 	ldrd	r1, r0, [sp, #28]
10011d68:	aa32      	add	r2, sp, #200	@ 0xc8
10011d6a:	f000 fa2d 	bl	100121c8 <__sprint_r>
10011d6e:	2800      	cmp	r0, #0
10011d70:	f47f a88a 	bne.w	10010e88 <_vfprintf_r+0xa08>
10011d74:	9d29      	ldr	r5, [sp, #164]	@ 0xa4
10011d76:	9c34      	ldr	r4, [sp, #208]	@ 0xd0
10011d78:	f10d 08d4 	add.w	r8, sp, #212	@ 0xd4
10011d7c:	f7ff b99c 	b.w	100110b8 <_vfprintf_r+0xc38>
10011d80:	49ab      	ldr	r1, [pc, #684]	@ (10012030 <_vfprintf_r+0x1bb0>)
10011d82:	9115      	str	r1, [sp, #84]	@ 0x54
10011d84:	f7fe bdee 	b.w	10010964 <_vfprintf_r+0x4e4>
10011d88:	e9dd 1007 	ldrd	r1, r0, [sp, #28]
10011d8c:	aa32      	add	r2, sp, #200	@ 0xc8
10011d8e:	f000 fa1b 	bl	100121c8 <__sprint_r>
10011d92:	2800      	cmp	r0, #0
10011d94:	f47f a878 	bne.w	10010e88 <_vfprintf_r+0xa08>
10011d98:	9d29      	ldr	r5, [sp, #164]	@ 0xa4
10011d9a:	9b13      	ldr	r3, [sp, #76]	@ 0x4c
10011d9c:	9c34      	ldr	r4, [sp, #208]	@ 0xd0
10011d9e:	1b5d      	subs	r5, r3, r5
10011da0:	f10d 08d4 	add.w	r8, sp, #212	@ 0xd4
10011da4:	f7ff b99f 	b.w	100110e6 <_vfprintf_r+0xc66>
10011da8:	9b06      	ldr	r3, [sp, #24]
10011daa:	9912      	ldr	r1, [sp, #72]	@ 0x48
10011dac:	9a09      	ldr	r2, [sp, #36]	@ 0x24
10011dae:	f003 0301 	and.w	r3, r3, #1
10011db2:	2900      	cmp	r1, #0
10011db4:	ea43 0302 	orr.w	r3, r3, r2
10011db8:	f340 815d 	ble.w	10012076 <_vfprintf_r+0x1bf6>
10011dbc:	2b00      	cmp	r3, #0
10011dbe:	f040 8109 	bne.w	10011fd4 <_vfprintf_r+0x1b54>
10011dc2:	2366      	movs	r3, #102	@ 0x66
10011dc4:	f8dd b048 	ldr.w	fp, [sp, #72]	@ 0x48
10011dc8:	930e      	str	r3, [sp, #56]	@ 0x38
10011dca:	9b06      	ldr	r3, [sp, #24]
10011dcc:	055a      	lsls	r2, r3, #21
10011dce:	f100 810a 	bmi.w	10011fe6 <_vfprintf_r+0x1b66>
10011dd2:	ea2b 73eb 	bic.w	r3, fp, fp, asr #31
10011dd6:	f8dd 9054 	ldr.w	r9, [sp, #84]	@ 0x54
10011dda:	9306      	str	r3, [sp, #24]
10011ddc:	e6be      	b.n	10011b5c <_vfprintf_r+0x16dc>
10011dde:	2200      	movs	r2, #0
10011de0:	9209      	str	r2, [sp, #36]	@ 0x24
10011de2:	f7fe bbc6 	b.w	10010572 <_vfprintf_r+0xf2>
10011de6:	9b07      	ldr	r3, [sp, #28]
10011de8:	6e5b      	ldr	r3, [r3, #100]	@ 0x64
10011dea:	07dd      	lsls	r5, r3, #31
10011dec:	d407      	bmi.n	10011dfe <_vfprintf_r+0x197e>
10011dee:	9b07      	ldr	r3, [sp, #28]
10011df0:	899b      	ldrh	r3, [r3, #12]
10011df2:	059c      	lsls	r4, r3, #22
10011df4:	d403      	bmi.n	10011dfe <_vfprintf_r+0x197e>
10011df6:	9b07      	ldr	r3, [sp, #28]
10011df8:	6d98      	ldr	r0, [r3, #88]	@ 0x58
10011dfa:	f002 fa07 	bl	1001420c <__retarget_lock_release_recursive>
10011dfe:	f04f 33ff 	mov.w	r3, #4294967295	@ 0xffffffff
10011e02:	930a      	str	r3, [sp, #40]	@ 0x28
10011e04:	f7fe bca5 	b.w	10010752 <_vfprintf_r+0x2d2>
10011e08:	4256      	negs	r6, r2
10011e0a:	3210      	adds	r2, #16
10011e0c:	4a89      	ldr	r2, [pc, #548]	@ (10012034 <_vfprintf_r+0x1bb4>)
10011e0e:	9215      	str	r2, [sp, #84]	@ 0x54
10011e10:	da34      	bge.n	10011e7c <_vfprintf_r+0x19fc>
10011e12:	46aa      	mov	sl, r5
10011e14:	2710      	movs	r7, #16
10011e16:	4615      	mov	r5, r2
10011e18:	e004      	b.n	10011e24 <_vfprintf_r+0x19a4>
10011e1a:	f108 0808 	add.w	r8, r8, #8
10011e1e:	3e10      	subs	r6, #16
10011e20:	2e10      	cmp	r6, #16
10011e22:	dd2a      	ble.n	10011e7a <_vfprintf_r+0x19fa>
10011e24:	3301      	adds	r3, #1
10011e26:	3410      	adds	r4, #16
10011e28:	2b07      	cmp	r3, #7
10011e2a:	e9c8 5700 	strd	r5, r7, [r8]
10011e2e:	e9cd 3433 	strd	r3, r4, [sp, #204]	@ 0xcc
10011e32:	ddf2      	ble.n	10011e1a <_vfprintf_r+0x199a>
10011e34:	e9dd 1007 	ldrd	r1, r0, [sp, #28]
10011e38:	aa32      	add	r2, sp, #200	@ 0xc8
10011e3a:	f000 f9c5 	bl	100121c8 <__sprint_r>
10011e3e:	2800      	cmp	r0, #0
10011e40:	f47f a822 	bne.w	10010e88 <_vfprintf_r+0xa08>
10011e44:	e9dd 3433 	ldrd	r3, r4, [sp, #204]	@ 0xcc
10011e48:	f10d 08d4 	add.w	r8, sp, #212	@ 0xd4
10011e4c:	e7e7      	b.n	10011e1e <_vfprintf_r+0x199e>
10011e4e:	2300      	movs	r3, #0
10011e50:	930c      	str	r3, [sp, #48]	@ 0x30
10011e52:	ad45      	add	r5, sp, #276	@ 0x114
10011e54:	e40c      	b.n	10011670 <_vfprintf_r+0x11f0>
10011e56:	19ac      	adds	r4, r5, r6
10011e58:	2747      	movs	r7, #71	@ 0x47
10011e5a:	e4ae      	b.n	100117ba <_vfprintf_r+0x133a>
10011e5c:	9b13      	ldr	r3, [sp, #76]	@ 0x4c
10011e5e:	9a18      	ldr	r2, [sp, #96]	@ 0x60
10011e60:	eb03 0b02 	add.w	fp, r3, r2
10011e64:	9b12      	ldr	r3, [sp, #72]	@ 0x48
10011e66:	2b00      	cmp	r3, #0
10011e68:	f340 80ee 	ble.w	10012048 <_vfprintf_r+0x1bc8>
10011e6c:	2367      	movs	r3, #103	@ 0x67
10011e6e:	930e      	str	r3, [sp, #56]	@ 0x38
10011e70:	e7ab      	b.n	10011dca <_vfprintf_r+0x194a>
10011e72:	4a6f      	ldr	r2, [pc, #444]	@ (10012030 <_vfprintf_r+0x1bb0>)
10011e74:	9215      	str	r2, [sp, #84]	@ 0x54
10011e76:	f7ff b8ce 	b.w	10011016 <_vfprintf_r+0xb96>
10011e7a:	4655      	mov	r5, sl
10011e7c:	3301      	adds	r3, #1
10011e7e:	9a15      	ldr	r2, [sp, #84]	@ 0x54
10011e80:	f8c8 2000 	str.w	r2, [r8]
10011e84:	4434      	add	r4, r6
10011e86:	2b07      	cmp	r3, #7
10011e88:	e9cd 3433 	strd	r3, r4, [sp, #204]	@ 0xcc
10011e8c:	f8c8 6004 	str.w	r6, [r8, #4]
10011e90:	f77f a9fb 	ble.w	1001128a <_vfprintf_r+0xe0a>
10011e94:	e9dd 1007 	ldrd	r1, r0, [sp, #28]
10011e98:	aa32      	add	r2, sp, #200	@ 0xc8
10011e9a:	f000 f995 	bl	100121c8 <__sprint_r>
10011e9e:	2800      	cmp	r0, #0
10011ea0:	f47e aff2 	bne.w	10010e88 <_vfprintf_r+0xa08>
10011ea4:	e9dd 3433 	ldrd	r3, r4, [sp, #204]	@ 0xcc
10011ea8:	f10d 08d4 	add.w	r8, sp, #212	@ 0xd4
10011eac:	f7ff b800 	b.w	10010eb0 <_vfprintf_r+0xa30>
10011eb0:	9b12      	ldr	r3, [sp, #72]	@ 0x48
10011eb2:	9730      	str	r7, [sp, #192]	@ 0xc0
10011eb4:	7bd9      	ldrb	r1, [r3, #15]
10011eb6:	f816 2c01 	ldrb.w	r2, [r6, #-1]
10011eba:	428a      	cmp	r2, r1
10011ebc:	4633      	mov	r3, r6
10011ebe:	d109      	bne.n	10011ed4 <_vfprintf_r+0x1a54>
10011ec0:	2030      	movs	r0, #48	@ 0x30
10011ec2:	f803 0c01 	strb.w	r0, [r3, #-1]
10011ec6:	9b30      	ldr	r3, [sp, #192]	@ 0xc0
10011ec8:	1e5a      	subs	r2, r3, #1
10011eca:	9230      	str	r2, [sp, #192]	@ 0xc0
10011ecc:	f813 2c01 	ldrb.w	r2, [r3, #-1]
10011ed0:	4291      	cmp	r1, r2
10011ed2:	d0f6      	beq.n	10011ec2 <_vfprintf_r+0x1a42>
10011ed4:	2a39      	cmp	r2, #57	@ 0x39
10011ed6:	bf0b      	itete	eq
10011ed8:	9a12      	ldreq	r2, [sp, #72]	@ 0x48
10011eda:	3201      	addne	r2, #1
10011edc:	7a92      	ldrbeq	r2, [r2, #10]
10011ede:	b2d2      	uxtbne	r2, r2
10011ee0:	f803 2c01 	strb.w	r2, [r3, #-1]
10011ee4:	4633      	mov	r3, r6
10011ee6:	e595      	b.n	10011a14 <_vfprintf_r+0x1594>
10011ee8:	4a52      	ldr	r2, [pc, #328]	@ (10012034 <_vfprintf_r+0x1bb4>)
10011eea:	9215      	str	r2, [sp, #84]	@ 0x54
10011eec:	f7fe bf78 	b.w	10010de0 <_vfprintf_r+0x960>
10011ef0:	9808      	ldr	r0, [sp, #32]
10011ef2:	1c59      	adds	r1, r3, #1
10011ef4:	f7fd fff6 	bl	1000fee4 <_malloc_r>
10011ef8:	4605      	mov	r5, r0
10011efa:	b178      	cbz	r0, 10011f1c <_vfprintf_r+0x1a9c>
10011efc:	900c      	str	r0, [sp, #48]	@ 0x30
10011efe:	e504      	b.n	1001190a <_vfprintf_r+0x148a>
10011f00:	2800      	cmp	r0, #0
10011f02:	d162      	bne.n	10011fca <_vfprintf_r+0x1b4a>
10011f04:	2230      	movs	r2, #48	@ 0x30
10011f06:	f88d 20b2 	strb.w	r2, [sp, #178]	@ 0xb2
10011f0a:	f10d 02b3 	add.w	r2, sp, #179	@ 0xb3
10011f0e:	3330      	adds	r3, #48	@ 0x30
10011f10:	f802 3b01 	strb.w	r3, [r2], #1
10011f14:	ab2c      	add	r3, sp, #176	@ 0xb0
10011f16:	1ad3      	subs	r3, r2, r3
10011f18:	931c      	str	r3, [sp, #112]	@ 0x70
10011f1a:	e4a3      	b.n	10011864 <_vfprintf_r+0x13e4>
10011f1c:	9a07      	ldr	r2, [sp, #28]
10011f1e:	f9b2 300c 	ldrsh.w	r3, [r2, #12]
10011f22:	f043 0340 	orr.w	r3, r3, #64	@ 0x40
10011f26:	8193      	strh	r3, [r2, #12]
10011f28:	f7fe bc0b 	b.w	10010742 <_vfprintf_r+0x2c2>
10011f2c:	e9dd 1007 	ldrd	r1, r0, [sp, #28]
10011f30:	aa32      	add	r2, sp, #200	@ 0xc8
10011f32:	f000 f949 	bl	100121c8 <__sprint_r>
10011f36:	2800      	cmp	r0, #0
10011f38:	f47e afa6 	bne.w	10010e88 <_vfprintf_r+0xa08>
10011f3c:	9c34      	ldr	r4, [sp, #208]	@ 0xd0
10011f3e:	f10d 08d4 	add.w	r8, sp, #212	@ 0xd4
10011f42:	f7ff b89c 	b.w	1001107e <_vfprintf_r+0xbfe>
10011f46:	4b3c      	ldr	r3, [pc, #240]	@ (10012038 <_vfprintf_r+0x1bb8>)
10011f48:	4a3c      	ldr	r2, [pc, #240]	@ (1001203c <_vfprintf_r+0x1bbc>)
10011f4a:	990e      	ldr	r1, [sp, #56]	@ 0x38
10011f4c:	2961      	cmp	r1, #97	@ 0x61
10011f4e:	bf18      	it	ne
10011f50:	461a      	movne	r2, r3
10011f52:	2301      	movs	r3, #1
10011f54:	9212      	str	r2, [sp, #72]	@ 0x48
10011f56:	9329      	str	r3, [sp, #164]	@ 0xa4
10011f58:	e4ff      	b.n	1001195a <_vfprintf_r+0x14da>
10011f5a:	2306      	movs	r3, #6
10011f5c:	9309      	str	r3, [sp, #36]	@ 0x24
10011f5e:	f7ff b9f1 	b.w	10011344 <_vfprintf_r+0xec4>
10011f62:	9b06      	ldr	r3, [sp, #24]
10011f64:	07df      	lsls	r7, r3, #31
10011f66:	f57f ac86 	bpl.w	10011876 <_vfprintf_r+0x13f6>
10011f6a:	e482      	b.n	10011872 <_vfprintf_r+0x13f2>
10011f6c:	e9dd 0124 	ldrd	r0, r1, [sp, #144]	@ 0x90
10011f70:	2200      	movs	r2, #0
10011f72:	2300      	movs	r3, #0
10011f74:	f006 fdb2 	bl	10018adc <__aeabi_dcmpeq>
10011f78:	2800      	cmp	r0, #0
10011f7a:	f47f ac1c 	bne.w	100117b6 <_vfprintf_r+0x1336>
10011f7e:	f1c6 0601 	rsb	r6, r6, #1
10011f82:	9629      	str	r6, [sp, #164]	@ 0xa4
10011f84:	e418      	b.n	100117b8 <_vfprintf_r+0x1338>
10011f86:	9b17      	ldr	r3, [sp, #92]	@ 0x5c
10011f88:	4d2d      	ldr	r5, [pc, #180]	@ (10012040 <_vfprintf_r+0x1bc0>)
10011f8a:	2b00      	cmp	r3, #0
10011f8c:	bfb4      	ite	lt
10011f8e:	222d      	movlt	r2, #45	@ 0x2d
10011f90:	f89d 209f 	ldrbge.w	r2, [sp, #159]	@ 0x9f
10011f94:	4b2b      	ldr	r3, [pc, #172]	@ (10012044 <_vfprintf_r+0x1bc4>)
10011f96:	bfb8      	it	lt
10011f98:	f88d 209f 	strblt.w	r2, [sp, #159]	@ 0x9f
10011f9c:	f029 0980 	bic.w	r9, r9, #128	@ 0x80
10011fa0:	f7fe bc9c 	b.w	100108dc <_vfprintf_r+0x45c>
10011fa4:	9b09      	ldr	r3, [sp, #36]	@ 0x24
10011fa6:	9306      	str	r3, [sp, #24]
10011fa8:	469b      	mov	fp, r3
10011faa:	2373      	movs	r3, #115	@ 0x73
10011fac:	f89d 209f 	ldrb.w	r2, [sp, #159]	@ 0x9f
10011fb0:	960d      	str	r6, [sp, #52]	@ 0x34
10011fb2:	9009      	str	r0, [sp, #36]	@ 0x24
10011fb4:	9014      	str	r0, [sp, #80]	@ 0x50
10011fb6:	9010      	str	r0, [sp, #64]	@ 0x40
10011fb8:	930e      	str	r3, [sp, #56]	@ 0x38
10011fba:	f7fe bc9c 	b.w	100108f6 <_vfprintf_r+0x476>
10011fbe:	f8dd 9018 	ldr.w	r9, [sp, #24]
10011fc2:	f8dd b024 	ldr.w	fp, [sp, #36]	@ 0x24
10011fc6:	f7ff bb41 	b.w	1001164c <_vfprintf_r+0x11cc>
10011fca:	f10d 02b2 	add.w	r2, sp, #178	@ 0xb2
10011fce:	e79e      	b.n	10011f0e <_vfprintf_r+0x1a8e>
10011fd0:	4693      	mov	fp, r2
10011fd2:	e5b6      	b.n	10011b42 <_vfprintf_r+0x16c2>
10011fd4:	9b18      	ldr	r3, [sp, #96]	@ 0x60
10011fd6:	18cf      	adds	r7, r1, r3
10011fd8:	443a      	add	r2, r7
10011fda:	2366      	movs	r3, #102	@ 0x66
10011fdc:	4693      	mov	fp, r2
10011fde:	930e      	str	r3, [sp, #56]	@ 0x38
10011fe0:	e6f3      	b.n	10011dca <_vfprintf_r+0x194a>
10011fe2:	2367      	movs	r3, #103	@ 0x67
10011fe4:	930e      	str	r3, [sp, #56]	@ 0x38
10011fe6:	991b      	ldr	r1, [sp, #108]	@ 0x6c
10011fe8:	780b      	ldrb	r3, [r1, #0]
10011fea:	2bff      	cmp	r3, #255	@ 0xff
10011fec:	d062      	beq.n	100120b4 <_vfprintf_r+0x1c34>
10011fee:	2400      	movs	r4, #0
10011ff0:	9a12      	ldr	r2, [sp, #72]	@ 0x48
10011ff2:	4620      	mov	r0, r4
10011ff4:	e003      	b.n	10011ffe <_vfprintf_r+0x1b7e>
10011ff6:	3001      	adds	r0, #1
10011ff8:	3101      	adds	r1, #1
10011ffa:	2bff      	cmp	r3, #255	@ 0xff
10011ffc:	d008      	beq.n	10012010 <_vfprintf_r+0x1b90>
10011ffe:	4293      	cmp	r3, r2
10012000:	da06      	bge.n	10012010 <_vfprintf_r+0x1b90>
10012002:	1ad2      	subs	r2, r2, r3
10012004:	784b      	ldrb	r3, [r1, #1]
10012006:	2b00      	cmp	r3, #0
10012008:	d1f5      	bne.n	10011ff6 <_vfprintf_r+0x1b76>
1001200a:	780b      	ldrb	r3, [r1, #0]
1001200c:	3401      	adds	r4, #1
1001200e:	e7f4      	b.n	10011ffa <_vfprintf_r+0x1b7a>
10012010:	911b      	str	r1, [sp, #108]	@ 0x6c
10012012:	9212      	str	r2, [sp, #72]	@ 0x48
10012014:	9010      	str	r0, [sp, #64]	@ 0x40
10012016:	9414      	str	r4, [sp, #80]	@ 0x50
10012018:	e9dd 3914 	ldrd	r3, r9, [sp, #80]	@ 0x50
1001201c:	9a10      	ldr	r2, [sp, #64]	@ 0x40
1001201e:	4413      	add	r3, r2
10012020:	9a1e      	ldr	r2, [sp, #120]	@ 0x78
10012022:	fb02 bb03 	mla	fp, r2, r3, fp
10012026:	ea2b 73eb 	bic.w	r3, fp, fp, asr #31
1001202a:	9306      	str	r3, [sp, #24]
1001202c:	e42f      	b.n	1001188e <_vfprintf_r+0x140e>
1001202e:	bf00      	nop
10012030:	100192b8 	.word	0x100192b8
10012034:	100192a8 	.word	0x100192a8
10012038:	10019288 	.word	0x10019288
1001203c:	10019274 	.word	0x10019274
10012040:	1001926c 	.word	0x1001926c
10012044:	10019270 	.word	0x10019270
10012048:	f1c3 0301 	rsb	r3, r3, #1
1001204c:	449b      	add	fp, r3
1001204e:	ea2b 73eb 	bic.w	r3, fp, fp, asr #31
10012052:	9306      	str	r3, [sp, #24]
10012054:	2367      	movs	r3, #103	@ 0x67
10012056:	f8dd 9054 	ldr.w	r9, [sp, #84]	@ 0x54
1001205a:	930e      	str	r3, [sp, #56]	@ 0x38
1001205c:	e57e      	b.n	10011b5c <_vfprintf_r+0x16dc>
1001205e:	4e1b      	ldr	r6, [pc, #108]	@ (100120cc <_vfprintf_r+0x1c4c>)
10012060:	e60f      	b.n	10011c82 <_vfprintf_r+0x1802>
10012062:	2302      	movs	r3, #2
10012064:	931c      	str	r3, [sp, #112]	@ 0x70
10012066:	f7ff bbfd 	b.w	10011864 <_vfprintf_r+0x13e4>
1001206a:	4a18      	ldr	r2, [pc, #96]	@ (100120cc <_vfprintf_r+0x1c4c>)
1001206c:	9215      	str	r2, [sp, #84]	@ 0x54
1001206e:	e52b      	b.n	10011ac8 <_vfprintf_r+0x1648>
10012070:	2170      	movs	r1, #112	@ 0x70
10012072:	f7ff bbc0 	b.w	100117f6 <_vfprintf_r+0x1376>
10012076:	f8dd 9054 	ldr.w	r9, [sp, #84]	@ 0x54
1001207a:	b92b      	cbnz	r3, 10012088 <_vfprintf_r+0x1c08>
1001207c:	2301      	movs	r3, #1
1001207e:	2266      	movs	r2, #102	@ 0x66
10012080:	9306      	str	r3, [sp, #24]
10012082:	920e      	str	r2, [sp, #56]	@ 0x38
10012084:	469b      	mov	fp, r3
10012086:	e569      	b.n	10011b5c <_vfprintf_r+0x16dc>
10012088:	9b18      	ldr	r3, [sp, #96]	@ 0x60
1001208a:	1c5f      	adds	r7, r3, #1
1001208c:	9b09      	ldr	r3, [sp, #36]	@ 0x24
1001208e:	443b      	add	r3, r7
10012090:	469b      	mov	fp, r3
10012092:	ea23 73e3 	bic.w	r3, r3, r3, asr #31
10012096:	9306      	str	r3, [sp, #24]
10012098:	2366      	movs	r3, #102	@ 0x66
1001209a:	930e      	str	r3, [sp, #56]	@ 0x38
1001209c:	e55e      	b.n	10011b5c <_vfprintf_r+0x16dc>
1001209e:	9a0d      	ldr	r2, [sp, #52]	@ 0x34
100120a0:	7863      	ldrb	r3, [r4, #1]
100120a2:	460c      	mov	r4, r1
100120a4:	f852 1b04 	ldr.w	r1, [r2], #4
100120a8:	920d      	str	r2, [sp, #52]	@ 0x34
100120aa:	ea41 71e1 	orr.w	r1, r1, r1, asr #31
100120ae:	9109      	str	r1, [sp, #36]	@ 0x24
100120b0:	f7fe ba5e 	b.w	10010570 <_vfprintf_r+0xf0>
100120b4:	2300      	movs	r3, #0
100120b6:	9314      	str	r3, [sp, #80]	@ 0x50
100120b8:	9310      	str	r3, [sp, #64]	@ 0x40
100120ba:	e7ad      	b.n	10012018 <_vfprintf_r+0x1b98>
100120bc:	e9dd 2b07 	ldrd	r2, fp, [sp, #28]
100120c0:	8993      	ldrh	r3, [r2, #12]
100120c2:	f043 0340 	orr.w	r3, r3, #64	@ 0x40
100120c6:	8193      	strh	r3, [r2, #12]
100120c8:	f7fe bb32 	b.w	10010730 <_vfprintf_r+0x2b0>
100120cc:	100192a8 	.word	0x100192a8

100120d0 <__sbprintf>:
100120d0:	b5f0      	push	{r4, r5, r6, r7, lr}
100120d2:	461f      	mov	r7, r3
100120d4:	898b      	ldrh	r3, [r1, #12]
100120d6:	f2ad 4d6c 	subw	sp, sp, #1132	@ 0x46c
100120da:	f023 0302 	bic.w	r3, r3, #2
100120de:	f8ad 300c 	strh.w	r3, [sp, #12]
100120e2:	6e4b      	ldr	r3, [r1, #100]	@ 0x64
100120e4:	9319      	str	r3, [sp, #100]	@ 0x64
100120e6:	89cb      	ldrh	r3, [r1, #14]
100120e8:	f8ad 300e 	strh.w	r3, [sp, #14]
100120ec:	69cb      	ldr	r3, [r1, #28]
100120ee:	9307      	str	r3, [sp, #28]
100120f0:	6a4b      	ldr	r3, [r1, #36]	@ 0x24
100120f2:	9309      	str	r3, [sp, #36]	@ 0x24
100120f4:	ab1a      	add	r3, sp, #104	@ 0x68
100120f6:	9300      	str	r3, [sp, #0]
100120f8:	9304      	str	r3, [sp, #16]
100120fa:	f44f 6380 	mov.w	r3, #1024	@ 0x400
100120fe:	4615      	mov	r5, r2
10012100:	4606      	mov	r6, r0
10012102:	9302      	str	r3, [sp, #8]
10012104:	9305      	str	r3, [sp, #20]
10012106:	a816      	add	r0, sp, #88	@ 0x58
10012108:	2300      	movs	r3, #0
1001210a:	460c      	mov	r4, r1
1001210c:	9306      	str	r3, [sp, #24]
1001210e:	f002 f877 	bl	10014200 <__retarget_lock_init_recursive>
10012112:	462a      	mov	r2, r5
10012114:	463b      	mov	r3, r7
10012116:	4669      	mov	r1, sp
10012118:	4630      	mov	r0, r6
1001211a:	f7fe f9b1 	bl	10010480 <_vfprintf_r>
1001211e:	1e05      	subs	r5, r0, #0
10012120:	db07      	blt.n	10012132 <__sbprintf+0x62>
10012122:	4669      	mov	r1, sp
10012124:	4630      	mov	r0, r6
10012126:	f001 fb6d 	bl	10013804 <_fflush_r>
1001212a:	2800      	cmp	r0, #0
1001212c:	bf18      	it	ne
1001212e:	f04f 35ff 	movne.w	r5, #4294967295	@ 0xffffffff
10012132:	f8bd 300c 	ldrh.w	r3, [sp, #12]
10012136:	065b      	lsls	r3, r3, #25
10012138:	d503      	bpl.n	10012142 <__sbprintf+0x72>
1001213a:	89a3      	ldrh	r3, [r4, #12]
1001213c:	f043 0340 	orr.w	r3, r3, #64	@ 0x40
10012140:	81a3      	strh	r3, [r4, #12]
10012142:	9816      	ldr	r0, [sp, #88]	@ 0x58
10012144:	f002 f85e 	bl	10014204 <__retarget_lock_close_recursive>
10012148:	4628      	mov	r0, r5
1001214a:	f20d 4d6c 	addw	sp, sp, #1132	@ 0x46c
1001214e:	bdf0      	pop	{r4, r5, r6, r7, pc}

10012150 <__sprint_r.part.0>:
10012150:	e92d 4ff8 	stmdb	sp!, {r3, r4, r5, r6, r7, r8, r9, sl, fp, lr}
10012154:	6e4b      	ldr	r3, [r1, #100]	@ 0x64
10012156:	049c      	lsls	r4, r3, #18
10012158:	4690      	mov	r8, r2
1001215a:	d52e      	bpl.n	100121ba <__sprint_r.part.0+0x6a>
1001215c:	6893      	ldr	r3, [r2, #8]
1001215e:	6812      	ldr	r2, [r2, #0]
10012160:	b34b      	cbz	r3, 100121b6 <__sprint_r.part.0+0x66>
10012162:	460d      	mov	r5, r1
10012164:	4606      	mov	r6, r0
10012166:	f102 0908 	add.w	r9, r2, #8
1001216a:	e959 2a02 	ldrd	r2, sl, [r9, #-8]
1001216e:	ea5f 079a 	movs.w	r7, sl, lsr #2
10012172:	d016      	beq.n	100121a2 <__sprint_r.part.0+0x52>
10012174:	f1a2 0b04 	sub.w	fp, r2, #4
10012178:	2400      	movs	r4, #0
1001217a:	e001      	b.n	10012180 <__sprint_r.part.0+0x30>
1001217c:	42a7      	cmp	r7, r4
1001217e:	d00e      	beq.n	1001219e <__sprint_r.part.0+0x4e>
10012180:	f85b 1f04 	ldr.w	r1, [fp, #4]!
10012184:	462a      	mov	r2, r5
10012186:	4630      	mov	r0, r6
10012188:	f001 fe96 	bl	10013eb8 <_fputwc_r>
1001218c:	1c43      	adds	r3, r0, #1
1001218e:	f104 0401 	add.w	r4, r4, #1
10012192:	d1f3      	bne.n	1001217c <__sprint_r.part.0+0x2c>
10012194:	2300      	movs	r3, #0
10012196:	e9c8 3301 	strd	r3, r3, [r8, #4]
1001219a:	e8bd 8ff8 	ldmia.w	sp!, {r3, r4, r5, r6, r7, r8, r9, sl, fp, pc}
1001219e:	f8d8 3008 	ldr.w	r3, [r8, #8]
100121a2:	f02a 0a03 	bic.w	sl, sl, #3
100121a6:	eba3 030a 	sub.w	r3, r3, sl
100121aa:	f8c8 3008 	str.w	r3, [r8, #8]
100121ae:	f109 0908 	add.w	r9, r9, #8
100121b2:	2b00      	cmp	r3, #0
100121b4:	d1d9      	bne.n	1001216a <__sprint_r.part.0+0x1a>
100121b6:	2000      	movs	r0, #0
100121b8:	e7ec      	b.n	10012194 <__sprint_r.part.0+0x44>
100121ba:	f001 fc3b 	bl	10013a34 <__sfvwrite_r>
100121be:	2300      	movs	r3, #0
100121c0:	e9c8 3301 	strd	r3, r3, [r8, #4]
100121c4:	e8bd 8ff8 	ldmia.w	sp!, {r3, r4, r5, r6, r7, r8, r9, sl, fp, pc}

100121c8 <__sprint_r>:
100121c8:	b410      	push	{r4}
100121ca:	6894      	ldr	r4, [r2, #8]
100121cc:	b11c      	cbz	r4, 100121d6 <__sprint_r+0xe>
100121ce:	f85d 4b04 	ldr.w	r4, [sp], #4
100121d2:	f7ff bfbd 	b.w	10012150 <__sprint_r.part.0>
100121d6:	4620      	mov	r0, r4
100121d8:	6054      	str	r4, [r2, #4]
100121da:	f85d 4b04 	ldr.w	r4, [sp], #4
100121de:	4770      	bx	lr

100121e0 <_vfiprintf_r>:
100121e0:	e92d 4ff0 	stmdb	sp!, {r4, r5, r6, r7, r8, r9, sl, fp, lr}
100121e4:	b0c7      	sub	sp, #284	@ 0x11c
100121e6:	af16      	add	r7, sp, #88	@ 0x58
100121e8:	4683      	mov	fp, r0
100121ea:	9103      	str	r1, [sp, #12]
100121ec:	9206      	str	r2, [sp, #24]
100121ee:	2100      	movs	r1, #0
100121f0:	2208      	movs	r2, #8
100121f2:	4638      	mov	r0, r7
100121f4:	461c      	mov	r4, r3
100121f6:	930a      	str	r3, [sp, #40]	@ 0x28
100121f8:	f001 ff0e 	bl	10014018 <memset>
100121fc:	f1bb 0f00 	cmp.w	fp, #0
10012200:	d004      	beq.n	1001220c <_vfiprintf_r+0x2c>
10012202:	f8db 3034 	ldr.w	r3, [fp, #52]	@ 0x34
10012206:	2b00      	cmp	r3, #0
10012208:	f000 86b8 	beq.w	10012f7c <_vfiprintf_r+0xd9c>
1001220c:	9a03      	ldr	r2, [sp, #12]
1001220e:	6e53      	ldr	r3, [r2, #100]	@ 0x64
10012210:	f9b2 200c 	ldrsh.w	r2, [r2, #12]
10012214:	07db      	lsls	r3, r3, #31
10012216:	d402      	bmi.n	1001221e <_vfiprintf_r+0x3e>
10012218:	0596      	lsls	r6, r2, #22
1001221a:	f140 859d 	bpl.w	10012d58 <_vfiprintf_r+0xb78>
1001221e:	0495      	lsls	r5, r2, #18
10012220:	d407      	bmi.n	10012232 <_vfiprintf_r+0x52>
10012222:	9903      	ldr	r1, [sp, #12]
10012224:	6e4b      	ldr	r3, [r1, #100]	@ 0x64
10012226:	f442 5200 	orr.w	r2, r2, #8192	@ 0x2000
1001222a:	f423 5300 	bic.w	r3, r3, #8192	@ 0x2000
1001222e:	818a      	strh	r2, [r1, #12]
10012230:	664b      	str	r3, [r1, #100]	@ 0x64
10012232:	0710      	lsls	r0, r2, #28
10012234:	f140 80c9 	bpl.w	100123ca <_vfiprintf_r+0x1ea>
10012238:	9b03      	ldr	r3, [sp, #12]
1001223a:	691b      	ldr	r3, [r3, #16]
1001223c:	2b00      	cmp	r3, #0
1001223e:	f000 80c4 	beq.w	100123ca <_vfiprintf_r+0x1ea>
10012242:	f002 031a 	and.w	r3, r2, #26
10012246:	2b0a      	cmp	r3, #10
10012248:	f000 80ce 	beq.w	100123e8 <_vfiprintf_r+0x208>
1001224c:	2300      	movs	r3, #0
1001224e:	e9cd 331b 	strd	r3, r3, [sp, #108]	@ 0x6c
10012252:	e9cd 330e 	strd	r3, r3, [sp, #56]	@ 0x38
10012256:	aa1d      	add	r2, sp, #116	@ 0x74
10012258:	f8df a904 	ldr.w	sl, [pc, #2308]	@ 10012b60 <_vfiprintf_r+0x980>
1001225c:	930d      	str	r3, [sp, #52]	@ 0x34
1001225e:	921a      	str	r2, [sp, #104]	@ 0x68
10012260:	4691      	mov	r9, r2
10012262:	9310      	str	r3, [sp, #64]	@ 0x40
10012264:	9307      	str	r3, [sp, #28]
10012266:	9d06      	ldr	r5, [sp, #24]
10012268:	f8da 40e4 	ldr.w	r4, [sl, #228]	@ 0xe4
1001226c:	f001 ff5a 	bl	10014124 <__locale_mb_cur_max>
10012270:	462a      	mov	r2, r5
10012272:	4603      	mov	r3, r0
10012274:	a914      	add	r1, sp, #80	@ 0x50
10012276:	9700      	str	r7, [sp, #0]
10012278:	4658      	mov	r0, fp
1001227a:	47a0      	blx	r4
1001227c:	2800      	cmp	r0, #0
1001227e:	f000 80d2 	beq.w	10012426 <_vfiprintf_r+0x246>
10012282:	f2c0 80c8 	blt.w	10012416 <_vfiprintf_r+0x236>
10012286:	9a14      	ldr	r2, [sp, #80]	@ 0x50
10012288:	2a25      	cmp	r2, #37	@ 0x25
1001228a:	4603      	mov	r3, r0
1001228c:	d001      	beq.n	10012292 <_vfiprintf_r+0xb2>
1001228e:	441d      	add	r5, r3
10012290:	e7ea      	b.n	10012268 <_vfiprintf_r+0x88>
10012292:	9b06      	ldr	r3, [sp, #24]
10012294:	1aee      	subs	r6, r5, r3
10012296:	4604      	mov	r4, r0
10012298:	f040 80c9 	bne.w	1001242e <_vfiprintf_r+0x24e>
1001229c:	2300      	movs	r3, #0
1001229e:	f04f 31ff 	mov.w	r1, #4294967295	@ 0xffffffff
100122a2:	786a      	ldrb	r2, [r5, #1]
100122a4:	f88d 304b 	strb.w	r3, [sp, #75]	@ 0x4b
100122a8:	9308      	str	r3, [sp, #32]
100122aa:	1c6c      	adds	r4, r5, #1
100122ac:	9105      	str	r1, [sp, #20]
100122ae:	9302      	str	r3, [sp, #8]
100122b0:	3401      	adds	r4, #1
100122b2:	f1a2 0320 	sub.w	r3, r2, #32
100122b6:	2b5a      	cmp	r3, #90	@ 0x5a
100122b8:	f200 80ff 	bhi.w	100124ba <_vfiprintf_r+0x2da>
100122bc:	e8df f013 	tbh	[pc, r3, lsl #1]
100122c0:	00fd0300 	.word	0x00fd0300
100122c4:	02fa00fd 	.word	0x02fa00fd
100122c8:	00fd00fd 	.word	0x00fd00fd
100122cc:	006b00fd 	.word	0x006b00fd
100122d0:	00fd00fd 	.word	0x00fd00fd
100122d4:	032a0215 	.word	0x032a0215
100122d8:	022000fd 	.word	0x022000fd
100122dc:	00fd0310 	.word	0x00fd0310
100122e0:	005b030a 	.word	0x005b030a
100122e4:	005b005b 	.word	0x005b005b
100122e8:	005b005b 	.word	0x005b005b
100122ec:	005b005b 	.word	0x005b005b
100122f0:	005b005b 	.word	0x005b005b
100122f4:	00fd00fd 	.word	0x00fd00fd
100122f8:	00fd00fd 	.word	0x00fd00fd
100122fc:	00fd00fd 	.word	0x00fd00fd
10012300:	00fd00fd 	.word	0x00fd00fd
10012304:	01cb00fd 	.word	0x01cb00fd
10012308:	00fd025a 	.word	0x00fd025a
1001230c:	00fd00fd 	.word	0x00fd00fd
10012310:	00fd00fd 	.word	0x00fd00fd
10012314:	00fd00fd 	.word	0x00fd00fd
10012318:	00fd00fd 	.word	0x00fd00fd
1001231c:	022600fd 	.word	0x022600fd
10012320:	00fd00fd 	.word	0x00fd00fd
10012324:	01a300fd 	.word	0x01a300fd
10012328:	027300fd 	.word	0x027300fd
1001232c:	00fd00fd 	.word	0x00fd00fd
10012330:	00fd058c 	.word	0x00fd058c
10012334:	00fd00fd 	.word	0x00fd00fd
10012338:	00fd00fd 	.word	0x00fd00fd
1001233c:	00fd00fd 	.word	0x00fd00fd
10012340:	00fd00fd 	.word	0x00fd00fd
10012344:	01cb00fd 	.word	0x01cb00fd
10012348:	00fd01f0 	.word	0x00fd01f0
1001234c:	00fd00fd 	.word	0x00fd00fd
10012350:	01f002c1 	.word	0x01f002c1
10012354:	00fd007f 	.word	0x00fd007f
10012358:	00fd032f 	.word	0x00fd032f
1001235c:	058902eb 	.word	0x058902eb
10012360:	007f02ca 	.word	0x007f02ca
10012364:	01a300fd 	.word	0x01a300fd
10012368:	0586007d 	.word	0x0586007d
1001236c:	00fd00fd 	.word	0x00fd00fd
10012370:	00fd05af 	.word	0x00fd05af
10012374:	007d      	.short	0x007d
10012376:	f1a2 0330 	sub.w	r3, r2, #48	@ 0x30
1001237a:	2200      	movs	r2, #0
1001237c:	4611      	mov	r1, r2
1001237e:	f814 2b01 	ldrb.w	r2, [r4], #1
10012382:	eb01 0181 	add.w	r1, r1, r1, lsl #2
10012386:	eb03 0141 	add.w	r1, r3, r1, lsl #1
1001238a:	f1a2 0330 	sub.w	r3, r2, #48	@ 0x30
1001238e:	2b09      	cmp	r3, #9
10012390:	d9f5      	bls.n	1001237e <_vfiprintf_r+0x19e>
10012392:	9108      	str	r1, [sp, #32]
10012394:	e78d      	b.n	100122b2 <_vfiprintf_r+0xd2>
10012396:	4658      	mov	r0, fp
10012398:	f001 feca 	bl	10014130 <_localeconv_r>
1001239c:	6843      	ldr	r3, [r0, #4]
1001239e:	9310      	str	r3, [sp, #64]	@ 0x40
100123a0:	4618      	mov	r0, r3
100123a2:	f002 f82d 	bl	10014400 <strlen>
100123a6:	900f      	str	r0, [sp, #60]	@ 0x3c
100123a8:	4605      	mov	r5, r0
100123aa:	4658      	mov	r0, fp
100123ac:	f001 fec0 	bl	10014130 <_localeconv_r>
100123b0:	6883      	ldr	r3, [r0, #8]
100123b2:	930e      	str	r3, [sp, #56]	@ 0x38
100123b4:	2d00      	cmp	r5, #0
100123b6:	f040 84e3 	bne.w	10012d80 <_vfiprintf_r+0xba0>
100123ba:	7822      	ldrb	r2, [r4, #0]
100123bc:	e778      	b.n	100122b0 <_vfiprintf_r+0xd0>
100123be:	9b02      	ldr	r3, [sp, #8]
100123c0:	7822      	ldrb	r2, [r4, #0]
100123c2:	f043 0320 	orr.w	r3, r3, #32
100123c6:	9302      	str	r3, [sp, #8]
100123c8:	e772      	b.n	100122b0 <_vfiprintf_r+0xd0>
100123ca:	9d03      	ldr	r5, [sp, #12]
100123cc:	4658      	mov	r0, fp
100123ce:	4629      	mov	r1, r5
100123d0:	f001 fcd4 	bl	10013d7c <__swsetup_r>
100123d4:	2800      	cmp	r0, #0
100123d6:	f040 86a3 	bne.w	10013120 <_vfiprintf_r+0xf40>
100123da:	f9b5 200c 	ldrsh.w	r2, [r5, #12]
100123de:	f002 031a 	and.w	r3, r2, #26
100123e2:	2b0a      	cmp	r3, #10
100123e4:	f47f af32 	bne.w	1001224c <_vfiprintf_r+0x6c>
100123e8:	9903      	ldr	r1, [sp, #12]
100123ea:	f9b1 300e 	ldrsh.w	r3, [r1, #14]
100123ee:	2b00      	cmp	r3, #0
100123f0:	f6ff af2c 	blt.w	1001224c <_vfiprintf_r+0x6c>
100123f4:	6e4b      	ldr	r3, [r1, #100]	@ 0x64
100123f6:	07db      	lsls	r3, r3, #31
100123f8:	d402      	bmi.n	10012400 <_vfiprintf_r+0x220>
100123fa:	0597      	lsls	r7, r2, #22
100123fc:	f140 865b 	bpl.w	100130b6 <_vfiprintf_r+0xed6>
10012400:	9a06      	ldr	r2, [sp, #24]
10012402:	9903      	ldr	r1, [sp, #12]
10012404:	4623      	mov	r3, r4
10012406:	4658      	mov	r0, fp
10012408:	f000 febe 	bl	10013188 <__sbprintf>
1001240c:	9007      	str	r0, [sp, #28]
1001240e:	9807      	ldr	r0, [sp, #28]
10012410:	b047      	add	sp, #284	@ 0x11c
10012412:	e8bd 8ff0 	ldmia.w	sp!, {r4, r5, r6, r7, r8, r9, sl, fp, pc}
10012416:	2208      	movs	r2, #8
10012418:	2100      	movs	r1, #0
1001241a:	4638      	mov	r0, r7
1001241c:	f001 fdfc 	bl	10014018 <memset>
10012420:	2301      	movs	r3, #1
10012422:	441d      	add	r5, r3
10012424:	e720      	b.n	10012268 <_vfiprintf_r+0x88>
10012426:	9b06      	ldr	r3, [sp, #24]
10012428:	1aee      	subs	r6, r5, r3
1001242a:	4604      	mov	r4, r0
1001242c:	d012      	beq.n	10012454 <_vfiprintf_r+0x274>
1001242e:	9b06      	ldr	r3, [sp, #24]
10012430:	9a1c      	ldr	r2, [sp, #112]	@ 0x70
10012432:	e9c9 3600 	strd	r3, r6, [r9]
10012436:	9b1b      	ldr	r3, [sp, #108]	@ 0x6c
10012438:	3301      	adds	r3, #1
1001243a:	4432      	add	r2, r6
1001243c:	2b07      	cmp	r3, #7
1001243e:	921c      	str	r2, [sp, #112]	@ 0x70
10012440:	931b      	str	r3, [sp, #108]	@ 0x6c
10012442:	dc11      	bgt.n	10012468 <_vfiprintf_r+0x288>
10012444:	f109 0908 	add.w	r9, r9, #8
10012448:	9b07      	ldr	r3, [sp, #28]
1001244a:	4433      	add	r3, r6
1001244c:	9307      	str	r3, [sp, #28]
1001244e:	2c00      	cmp	r4, #0
10012450:	f47f af24 	bne.w	1001229c <_vfiprintf_r+0xbc>
10012454:	9b1c      	ldr	r3, [sp, #112]	@ 0x70
10012456:	2b00      	cmp	r3, #0
10012458:	f040 864d 	bne.w	100130f6 <_vfiprintf_r+0xf16>
1001245c:	9b03      	ldr	r3, [sp, #12]
1001245e:	2200      	movs	r2, #0
10012460:	f9b3 300c 	ldrsh.w	r3, [r3, #12]
10012464:	921b      	str	r2, [sp, #108]	@ 0x6c
10012466:	e01c      	b.n	100124a2 <_vfiprintf_r+0x2c2>
10012468:	2a00      	cmp	r2, #0
1001246a:	f000 842d 	beq.w	10012cc8 <_vfiprintf_r+0xae8>
1001246e:	9903      	ldr	r1, [sp, #12]
10012470:	aa1a      	add	r2, sp, #104	@ 0x68
10012472:	4658      	mov	r0, fp
10012474:	f7ff fe6c 	bl	10012150 <__sprint_r.part.0>
10012478:	b980      	cbnz	r0, 1001249c <_vfiprintf_r+0x2bc>
1001247a:	f10d 0974 	add.w	r9, sp, #116	@ 0x74
1001247e:	e7e3      	b.n	10012448 <_vfiprintf_r+0x268>
10012480:	9903      	ldr	r1, [sp, #12]
10012482:	aa1a      	add	r2, sp, #104	@ 0x68
10012484:	4658      	mov	r0, fp
10012486:	f7ff fe63 	bl	10012150 <__sprint_r.part.0>
1001248a:	2800      	cmp	r0, #0
1001248c:	f000 80a6 	beq.w	100125dc <_vfiprintf_r+0x3fc>
10012490:	9b0b      	ldr	r3, [sp, #44]	@ 0x2c
10012492:	b11b      	cbz	r3, 1001249c <_vfiprintf_r+0x2bc>
10012494:	990b      	ldr	r1, [sp, #44]	@ 0x2c
10012496:	4658      	mov	r0, fp
10012498:	f003 f8ac 	bl	100155f4 <_free_r>
1001249c:	9b03      	ldr	r3, [sp, #12]
1001249e:	f9b3 300c 	ldrsh.w	r3, [r3, #12]
100124a2:	9a03      	ldr	r2, [sp, #12]
100124a4:	6e52      	ldr	r2, [r2, #100]	@ 0x64
100124a6:	07d1      	lsls	r1, r2, #31
100124a8:	f140 80a3 	bpl.w	100125f2 <_vfiprintf_r+0x412>
100124ac:	065b      	lsls	r3, r3, #25
100124ae:	f100 8643 	bmi.w	10013138 <_vfiprintf_r+0xf58>
100124b2:	9807      	ldr	r0, [sp, #28]
100124b4:	b047      	add	sp, #284	@ 0x11c
100124b6:	e8bd 8ff0 	ldmia.w	sp!, {r4, r5, r6, r7, r8, r9, sl, fp, pc}
100124ba:	9406      	str	r4, [sp, #24]
100124bc:	2a00      	cmp	r2, #0
100124be:	d0c9      	beq.n	10012454 <_vfiprintf_r+0x274>
100124c0:	2300      	movs	r3, #0
100124c2:	f88d 304b 	strb.w	r3, [sp, #75]	@ 0x4b
100124c6:	2301      	movs	r3, #1
100124c8:	f88d 20b4 	strb.w	r2, [sp, #180]	@ 0xb4
100124cc:	9304      	str	r3, [sp, #16]
100124ce:	9309      	str	r3, [sp, #36]	@ 0x24
100124d0:	ac2d      	add	r4, sp, #180	@ 0xb4
100124d2:	2300      	movs	r3, #0
100124d4:	930b      	str	r3, [sp, #44]	@ 0x2c
100124d6:	9305      	str	r3, [sp, #20]
100124d8:	9b02      	ldr	r3, [sp, #8]
100124da:	f013 0302 	ands.w	r3, r3, #2
100124de:	d002      	beq.n	100124e6 <_vfiprintf_r+0x306>
100124e0:	9a04      	ldr	r2, [sp, #16]
100124e2:	3202      	adds	r2, #2
100124e4:	9204      	str	r2, [sp, #16]
100124e6:	e9dd 2c1b 	ldrd	r2, ip, [sp, #108]	@ 0x6c
100124ea:	9d02      	ldr	r5, [sp, #8]
100124ec:	1c50      	adds	r0, r2, #1
100124ee:	f015 0584 	ands.w	r5, r5, #132	@ 0x84
100124f2:	4601      	mov	r1, r0
100124f4:	950c      	str	r5, [sp, #48]	@ 0x30
100124f6:	d105      	bne.n	10012504 <_vfiprintf_r+0x324>
100124f8:	9d08      	ldr	r5, [sp, #32]
100124fa:	9e04      	ldr	r6, [sp, #16]
100124fc:	1bad      	subs	r5, r5, r6
100124fe:	2d00      	cmp	r5, #0
10012500:	f300 8332 	bgt.w	10012b68 <_vfiprintf_r+0x988>
10012504:	f89d 004b 	ldrb.w	r0, [sp, #75]	@ 0x4b
10012508:	b188      	cbz	r0, 1001252e <_vfiprintf_r+0x34e>
1001250a:	2201      	movs	r2, #1
1001250c:	f10c 0c01 	add.w	ip, ip, #1
10012510:	f8c9 2004 	str.w	r2, [r9, #4]
10012514:	2907      	cmp	r1, #7
10012516:	f10d 024b 	add.w	r2, sp, #75	@ 0x4b
1001251a:	e9cd 1c1b 	strd	r1, ip, [sp, #108]	@ 0x6c
1001251e:	f8c9 2000 	str.w	r2, [r9]
10012522:	f300 82e1 	bgt.w	10012ae8 <_vfiprintf_r+0x908>
10012526:	460a      	mov	r2, r1
10012528:	f109 0908 	add.w	r9, r9, #8
1001252c:	3101      	adds	r1, #1
1001252e:	b1eb      	cbz	r3, 1001256c <_vfiprintf_r+0x38c>
10012530:	ab13      	add	r3, sp, #76	@ 0x4c
10012532:	f10c 0c02 	add.w	ip, ip, #2
10012536:	f8c9 3000 	str.w	r3, [r9]
1001253a:	2907      	cmp	r1, #7
1001253c:	f04f 0302 	mov.w	r3, #2
10012540:	e9cd 1c1b 	strd	r1, ip, [sp, #108]	@ 0x6c
10012544:	f8c9 3004 	str.w	r3, [r9, #4]
10012548:	f340 82ec 	ble.w	10012b24 <_vfiprintf_r+0x944>
1001254c:	f1bc 0f00 	cmp.w	ip, #0
10012550:	f000 83db 	beq.w	10012d0a <_vfiprintf_r+0xb2a>
10012554:	9903      	ldr	r1, [sp, #12]
10012556:	aa1a      	add	r2, sp, #104	@ 0x68
10012558:	4658      	mov	r0, fp
1001255a:	f7ff fdf9 	bl	10012150 <__sprint_r.part.0>
1001255e:	2800      	cmp	r0, #0
10012560:	d196      	bne.n	10012490 <_vfiprintf_r+0x2b0>
10012562:	e9dd 2c1b 	ldrd	r2, ip, [sp, #108]	@ 0x6c
10012566:	f10d 0974 	add.w	r9, sp, #116	@ 0x74
1001256a:	1c51      	adds	r1, r2, #1
1001256c:	9b0c      	ldr	r3, [sp, #48]	@ 0x30
1001256e:	2b80      	cmp	r3, #128	@ 0x80
10012570:	f000 8213 	beq.w	1001299a <_vfiprintf_r+0x7ba>
10012574:	9b05      	ldr	r3, [sp, #20]
10012576:	9809      	ldr	r0, [sp, #36]	@ 0x24
10012578:	1a1d      	subs	r5, r3, r0
1001257a:	2d00      	cmp	r5, #0
1001257c:	f300 8268 	bgt.w	10012a50 <_vfiprintf_r+0x870>
10012580:	9a09      	ldr	r2, [sp, #36]	@ 0x24
10012582:	f8c9 4000 	str.w	r4, [r9]
10012586:	eb02 030c 	add.w	r3, r2, ip
1001258a:	2907      	cmp	r1, #7
1001258c:	e9cd 131b 	strd	r1, r3, [sp, #108]	@ 0x6c
10012590:	f8c9 2004 	str.w	r2, [r9, #4]
10012594:	f340 81fe 	ble.w	10012994 <_vfiprintf_r+0x7b4>
10012598:	2b00      	cmp	r3, #0
1001259a:	f000 832c 	beq.w	10012bf6 <_vfiprintf_r+0xa16>
1001259e:	9903      	ldr	r1, [sp, #12]
100125a0:	aa1a      	add	r2, sp, #104	@ 0x68
100125a2:	4658      	mov	r0, fp
100125a4:	f7ff fdd4 	bl	10012150 <__sprint_r.part.0>
100125a8:	2800      	cmp	r0, #0
100125aa:	f47f af71 	bne.w	10012490 <_vfiprintf_r+0x2b0>
100125ae:	9b1c      	ldr	r3, [sp, #112]	@ 0x70
100125b0:	f10d 0974 	add.w	r9, sp, #116	@ 0x74
100125b4:	9a02      	ldr	r2, [sp, #8]
100125b6:	0750      	lsls	r0, r2, #29
100125b8:	d505      	bpl.n	100125c6 <_vfiprintf_r+0x3e6>
100125ba:	9a08      	ldr	r2, [sp, #32]
100125bc:	9904      	ldr	r1, [sp, #16]
100125be:	1a54      	subs	r4, r2, r1
100125c0:	2c00      	cmp	r4, #0
100125c2:	f300 8323 	bgt.w	10012c0c <_vfiprintf_r+0xa2c>
100125c6:	e9dd 2107 	ldrd	r2, r1, [sp, #28]
100125ca:	9804      	ldr	r0, [sp, #16]
100125cc:	4281      	cmp	r1, r0
100125ce:	bfac      	ite	ge
100125d0:	1852      	addge	r2, r2, r1
100125d2:	1812      	addlt	r2, r2, r0
100125d4:	9207      	str	r2, [sp, #28]
100125d6:	2b00      	cmp	r3, #0
100125d8:	f47f af52 	bne.w	10012480 <_vfiprintf_r+0x2a0>
100125dc:	2300      	movs	r3, #0
100125de:	931b      	str	r3, [sp, #108]	@ 0x6c
100125e0:	9b0b      	ldr	r3, [sp, #44]	@ 0x2c
100125e2:	b11b      	cbz	r3, 100125ec <_vfiprintf_r+0x40c>
100125e4:	4619      	mov	r1, r3
100125e6:	4658      	mov	r0, fp
100125e8:	f003 f804 	bl	100155f4 <_free_r>
100125ec:	f10d 0974 	add.w	r9, sp, #116	@ 0x74
100125f0:	e639      	b.n	10012266 <_vfiprintf_r+0x86>
100125f2:	059a      	lsls	r2, r3, #22
100125f4:	f53f af5a 	bmi.w	100124ac <_vfiprintf_r+0x2cc>
100125f8:	9c03      	ldr	r4, [sp, #12]
100125fa:	6da0      	ldr	r0, [r4, #88]	@ 0x58
100125fc:	f001 fe06 	bl	1001420c <__retarget_lock_release_recursive>
10012600:	f9b4 300c 	ldrsh.w	r3, [r4, #12]
10012604:	e752      	b.n	100124ac <_vfiprintf_r+0x2cc>
10012606:	9e0a      	ldr	r6, [sp, #40]	@ 0x28
10012608:	9406      	str	r4, [sp, #24]
1001260a:	f856 4b04 	ldr.w	r4, [r6], #4
1001260e:	2300      	movs	r3, #0
10012610:	f88d 304b 	strb.w	r3, [sp, #75]	@ 0x4b
10012614:	2c00      	cmp	r4, #0
10012616:	f000 84c9 	beq.w	10012fac <_vfiprintf_r+0xdcc>
1001261a:	2a53      	cmp	r2, #83	@ 0x53
1001261c:	f000 8422 	beq.w	10012e64 <_vfiprintf_r+0xc84>
10012620:	9b02      	ldr	r3, [sp, #8]
10012622:	f013 0510 	ands.w	r5, r3, #16
10012626:	f040 841d 	bne.w	10012e64 <_vfiprintf_r+0xc84>
1001262a:	9b05      	ldr	r3, [sp, #20]
1001262c:	1c5a      	adds	r2, r3, #1
1001262e:	f000 854e 	beq.w	100130ce <_vfiprintf_r+0xeee>
10012632:	461a      	mov	r2, r3
10012634:	4629      	mov	r1, r5
10012636:	4620      	mov	r0, r4
10012638:	f001 fdea 	bl	10014210 <memchr>
1001263c:	900b      	str	r0, [sp, #44]	@ 0x2c
1001263e:	2800      	cmp	r0, #0
10012640:	f000 853e 	beq.w	100130c0 <_vfiprintf_r+0xee0>
10012644:	1b03      	subs	r3, r0, r4
10012646:	9309      	str	r3, [sp, #36]	@ 0x24
10012648:	ea23 73e3 	bic.w	r3, r3, r3, asr #31
1001264c:	9505      	str	r5, [sp, #20]
1001264e:	960a      	str	r6, [sp, #40]	@ 0x28
10012650:	9304      	str	r3, [sp, #16]
10012652:	950b      	str	r5, [sp, #44]	@ 0x2c
10012654:	e18d      	b.n	10012972 <_vfiprintf_r+0x792>
10012656:	9b0a      	ldr	r3, [sp, #40]	@ 0x28
10012658:	9406      	str	r4, [sp, #24]
1001265a:	2a43      	cmp	r2, #67	@ 0x43
1001265c:	f103 0504 	add.w	r5, r3, #4
10012660:	d003      	beq.n	1001266a <_vfiprintf_r+0x48a>
10012662:	9b02      	ldr	r3, [sp, #8]
10012664:	06de      	lsls	r6, r3, #27
10012666:	f140 83e5 	bpl.w	10012e34 <_vfiprintf_r+0xc54>
1001266a:	2208      	movs	r2, #8
1001266c:	2100      	movs	r1, #0
1001266e:	a818      	add	r0, sp, #96	@ 0x60
10012670:	f001 fcd2 	bl	10014018 <memset>
10012674:	9b0a      	ldr	r3, [sp, #40]	@ 0x28
10012676:	ac2d      	add	r4, sp, #180	@ 0xb4
10012678:	681a      	ldr	r2, [r3, #0]
1001267a:	4621      	mov	r1, r4
1001267c:	ab18      	add	r3, sp, #96	@ 0x60
1001267e:	4658      	mov	r0, fp
10012680:	f001 ff2a 	bl	100144d8 <_wcrtomb_r>
10012684:	4603      	mov	r3, r0
10012686:	3301      	adds	r3, #1
10012688:	9009      	str	r0, [sp, #36]	@ 0x24
1001268a:	f000 8541 	beq.w	10013110 <_vfiprintf_r+0xf30>
1001268e:	9b09      	ldr	r3, [sp, #36]	@ 0x24
10012690:	ea23 73e3 	bic.w	r3, r3, r3, asr #31
10012694:	9304      	str	r3, [sp, #16]
10012696:	2300      	movs	r3, #0
10012698:	950a      	str	r5, [sp, #40]	@ 0x28
1001269a:	f88d 304b 	strb.w	r3, [sp, #75]	@ 0x4b
1001269e:	e718      	b.n	100124d2 <_vfiprintf_r+0x2f2>
100126a0:	9b02      	ldr	r3, [sp, #8]
100126a2:	9406      	str	r4, [sp, #24]
100126a4:	069c      	lsls	r4, r3, #26
100126a6:	d56d      	bpl.n	10012784 <_vfiprintf_r+0x5a4>
100126a8:	9b0a      	ldr	r3, [sp, #40]	@ 0x28
100126aa:	3307      	adds	r3, #7
100126ac:	f023 0307 	bic.w	r3, r3, #7
100126b0:	4619      	mov	r1, r3
100126b2:	685a      	ldr	r2, [r3, #4]
100126b4:	f851 3b08 	ldr.w	r3, [r1], #8
100126b8:	910a      	str	r1, [sp, #40]	@ 0x28
100126ba:	4611      	mov	r1, r2
100126bc:	2a00      	cmp	r2, #0
100126be:	f2c0 8137 	blt.w	10012930 <_vfiprintf_r+0x750>
100126c2:	9a05      	ldr	r2, [sp, #20]
100126c4:	3201      	adds	r2, #1
100126c6:	f000 8140 	beq.w	1001294a <_vfiprintf_r+0x76a>
100126ca:	9a02      	ldr	r2, [sp, #8]
100126cc:	f022 0280 	bic.w	r2, r2, #128	@ 0x80
100126d0:	9202      	str	r2, [sp, #8]
100126d2:	ea53 0201 	orrs.w	r2, r3, r1
100126d6:	f040 8138 	bne.w	1001294a <_vfiprintf_r+0x76a>
100126da:	9b05      	ldr	r3, [sp, #20]
100126dc:	2b00      	cmp	r3, #0
100126de:	f040 8508 	bne.w	100130f2 <_vfiprintf_r+0xf12>
100126e2:	9304      	str	r3, [sp, #16]
100126e4:	9309      	str	r3, [sp, #36]	@ 0x24
100126e6:	ac46      	add	r4, sp, #280	@ 0x118
100126e8:	e141      	b.n	1001296e <_vfiprintf_r+0x78e>
100126ea:	9b0a      	ldr	r3, [sp, #40]	@ 0x28
100126ec:	f853 2b04 	ldr.w	r2, [r3], #4
100126f0:	9208      	str	r2, [sp, #32]
100126f2:	2a00      	cmp	r2, #0
100126f4:	f280 8328 	bge.w	10012d48 <_vfiprintf_r+0xb68>
100126f8:	9a08      	ldr	r2, [sp, #32]
100126fa:	930a      	str	r3, [sp, #40]	@ 0x28
100126fc:	4252      	negs	r2, r2
100126fe:	9208      	str	r2, [sp, #32]
10012700:	9b02      	ldr	r3, [sp, #8]
10012702:	7822      	ldrb	r2, [r4, #0]
10012704:	f043 0304 	orr.w	r3, r3, #4
10012708:	9302      	str	r3, [sp, #8]
1001270a:	e5d1      	b.n	100122b0 <_vfiprintf_r+0xd0>
1001270c:	9b02      	ldr	r3, [sp, #8]
1001270e:	9406      	str	r4, [sp, #24]
10012710:	f043 0210 	orr.w	r2, r3, #16
10012714:	f012 0120 	ands.w	r1, r2, #32
10012718:	f000 82e8 	beq.w	10012cec <_vfiprintf_r+0xb0c>
1001271c:	9b0a      	ldr	r3, [sp, #40]	@ 0x28
1001271e:	3307      	adds	r3, #7
10012720:	f023 0307 	bic.w	r3, r3, #7
10012724:	4618      	mov	r0, r3
10012726:	6859      	ldr	r1, [r3, #4]
10012728:	f850 3b08 	ldr.w	r3, [r0], #8
1001272c:	900a      	str	r0, [sp, #40]	@ 0x28
1001272e:	f422 6480 	bic.w	r4, r2, #1024	@ 0x400
10012732:	9402      	str	r4, [sp, #8]
10012734:	9c05      	ldr	r4, [sp, #20]
10012736:	2000      	movs	r0, #0
10012738:	3401      	adds	r4, #1
1001273a:	f88d 004b 	strb.w	r0, [sp, #75]	@ 0x4b
1001273e:	d05d      	beq.n	100127fc <_vfiprintf_r+0x61c>
10012740:	ea53 0401 	orrs.w	r4, r3, r1
10012744:	f422 6290 	bic.w	r2, r2, #1152	@ 0x480
10012748:	f040 8414 	bne.w	10012f74 <_vfiprintf_r+0xd94>
1001274c:	9c02      	ldr	r4, [sp, #8]
1001274e:	9202      	str	r2, [sp, #8]
10012750:	9b05      	ldr	r3, [sp, #20]
10012752:	2b00      	cmp	r3, #0
10012754:	d14a      	bne.n	100127ec <_vfiprintf_r+0x60c>
10012756:	2800      	cmp	r0, #0
10012758:	f040 82f1 	bne.w	10012d3e <_vfiprintf_r+0xb5e>
1001275c:	f014 0201 	ands.w	r2, r4, #1
10012760:	9209      	str	r2, [sp, #36]	@ 0x24
10012762:	f000 82f5 	beq.w	10012d50 <_vfiprintf_r+0xb70>
10012766:	2330      	movs	r3, #48	@ 0x30
10012768:	f88d 3117 	strb.w	r3, [sp, #279]	@ 0x117
1001276c:	9204      	str	r2, [sp, #16]
1001276e:	f20d 1417 	addw	r4, sp, #279	@ 0x117
10012772:	e0fc      	b.n	1001296e <_vfiprintf_r+0x78e>
10012774:	9b02      	ldr	r3, [sp, #8]
10012776:	9406      	str	r4, [sp, #24]
10012778:	f043 0310 	orr.w	r3, r3, #16
1001277c:	9302      	str	r3, [sp, #8]
1001277e:	9b02      	ldr	r3, [sp, #8]
10012780:	069c      	lsls	r4, r3, #26
10012782:	d491      	bmi.n	100126a8 <_vfiprintf_r+0x4c8>
10012784:	9a0a      	ldr	r2, [sp, #40]	@ 0x28
10012786:	f852 3b04 	ldr.w	r3, [r2], #4
1001278a:	920a      	str	r2, [sp, #40]	@ 0x28
1001278c:	9a02      	ldr	r2, [sp, #8]
1001278e:	06d0      	lsls	r0, r2, #27
10012790:	f100 82f3 	bmi.w	10012d7a <_vfiprintf_r+0xb9a>
10012794:	9a02      	ldr	r2, [sp, #8]
10012796:	0651      	lsls	r1, r2, #25
10012798:	f140 82eb 	bpl.w	10012d72 <_vfiprintf_r+0xb92>
1001279c:	f343 31c0 	sbfx	r1, r3, #15, #1
100127a0:	460a      	mov	r2, r1
100127a2:	b21b      	sxth	r3, r3
100127a4:	e78a      	b.n	100126bc <_vfiprintf_r+0x4dc>
100127a6:	9b02      	ldr	r3, [sp, #8]
100127a8:	9406      	str	r4, [sp, #24]
100127aa:	f043 0410 	orr.w	r4, r3, #16
100127ae:	f014 0120 	ands.w	r1, r4, #32
100127b2:	f000 828c 	beq.w	10012cce <_vfiprintf_r+0xaee>
100127b6:	9b0a      	ldr	r3, [sp, #40]	@ 0x28
100127b8:	3307      	adds	r3, #7
100127ba:	f023 0307 	bic.w	r3, r3, #7
100127be:	461a      	mov	r2, r3
100127c0:	6859      	ldr	r1, [r3, #4]
100127c2:	f852 3b08 	ldr.w	r3, [r2], #8
100127c6:	920a      	str	r2, [sp, #40]	@ 0x28
100127c8:	2200      	movs	r2, #0
100127ca:	f88d 204b 	strb.w	r2, [sp, #75]	@ 0x4b
100127ce:	9a05      	ldr	r2, [sp, #20]
100127d0:	3201      	adds	r2, #1
100127d2:	f000 83d1 	beq.w	10012f78 <_vfiprintf_r+0xd98>
100127d6:	f024 0280 	bic.w	r2, r4, #128	@ 0x80
100127da:	9202      	str	r2, [sp, #8]
100127dc:	ea53 0201 	orrs.w	r2, r3, r1
100127e0:	f040 80b3 	bne.w	1001294a <_vfiprintf_r+0x76a>
100127e4:	9b05      	ldr	r3, [sp, #20]
100127e6:	2001      	movs	r0, #1
100127e8:	2b00      	cmp	r3, #0
100127ea:	d0b4      	beq.n	10012756 <_vfiprintf_r+0x576>
100127ec:	2801      	cmp	r0, #1
100127ee:	f000 8480 	beq.w	100130f2 <_vfiprintf_r+0xf12>
100127f2:	2300      	movs	r3, #0
100127f4:	2802      	cmp	r0, #2
100127f6:	4619      	mov	r1, r3
100127f8:	f000 8199 	beq.w	10012b2e <_vfiprintf_r+0x94e>
100127fc:	ac46      	add	r4, sp, #280	@ 0x118
100127fe:	f003 0207 	and.w	r2, r3, #7
10012802:	08db      	lsrs	r3, r3, #3
10012804:	ea43 7341 	orr.w	r3, r3, r1, lsl #29
10012808:	08c9      	lsrs	r1, r1, #3
1001280a:	3230      	adds	r2, #48	@ 0x30
1001280c:	ea53 0501 	orrs.w	r5, r3, r1
10012810:	4620      	mov	r0, r4
10012812:	f804 2d01 	strb.w	r2, [r4, #-1]!
10012816:	d1f2      	bne.n	100127fe <_vfiprintf_r+0x61e>
10012818:	9b02      	ldr	r3, [sp, #8]
1001281a:	07dd      	lsls	r5, r3, #31
1001281c:	f140 8195 	bpl.w	10012b4a <_vfiprintf_r+0x96a>
10012820:	2a30      	cmp	r2, #48	@ 0x30
10012822:	f000 8192 	beq.w	10012b4a <_vfiprintf_r+0x96a>
10012826:	2330      	movs	r3, #48	@ 0x30
10012828:	9a05      	ldr	r2, [sp, #20]
1001282a:	f804 3c01 	strb.w	r3, [r4, #-1]
1001282e:	3802      	subs	r0, #2
10012830:	ab46      	add	r3, sp, #280	@ 0x118
10012832:	1a1b      	subs	r3, r3, r0
10012834:	429a      	cmp	r2, r3
10012836:	bfb8      	it	lt
10012838:	461a      	movlt	r2, r3
1001283a:	9309      	str	r3, [sp, #36]	@ 0x24
1001283c:	4604      	mov	r4, r0
1001283e:	9204      	str	r2, [sp, #16]
10012840:	e095      	b.n	1001296e <_vfiprintf_r+0x78e>
10012842:	7822      	ldrb	r2, [r4, #0]
10012844:	9b02      	ldr	r3, [sp, #8]
10012846:	2a68      	cmp	r2, #104	@ 0x68
10012848:	f000 839d 	beq.w	10012f86 <_vfiprintf_r+0xda6>
1001284c:	f043 0340 	orr.w	r3, r3, #64	@ 0x40
10012850:	9302      	str	r3, [sp, #8]
10012852:	e52d      	b.n	100122b0 <_vfiprintf_r+0xd0>
10012854:	9b02      	ldr	r3, [sp, #8]
10012856:	9a0a      	ldr	r2, [sp, #40]	@ 0x28
10012858:	9406      	str	r4, [sp, #24]
1001285a:	f043 0302 	orr.w	r3, r3, #2
1001285e:	9302      	str	r3, [sp, #8]
10012860:	f852 3b04 	ldr.w	r3, [r2], #4
10012864:	920a      	str	r2, [sp, #40]	@ 0x28
10012866:	f647 0230 	movw	r2, #30768	@ 0x7830
1001286a:	f8ad 204c 	strh.w	r2, [sp, #76]	@ 0x4c
1001286e:	4abb      	ldr	r2, [pc, #748]	@ (10012b5c <_vfiprintf_r+0x97c>)
10012870:	920d      	str	r2, [sp, #52]	@ 0x34
10012872:	2100      	movs	r1, #0
10012874:	2200      	movs	r2, #0
10012876:	f88d 204b 	strb.w	r2, [sp, #75]	@ 0x4b
1001287a:	9a05      	ldr	r2, [sp, #20]
1001287c:	3201      	adds	r2, #1
1001287e:	f000 8156 	beq.w	10012b2e <_vfiprintf_r+0x94e>
10012882:	9c02      	ldr	r4, [sp, #8]
10012884:	ea53 0001 	orrs.w	r0, r3, r1
10012888:	f024 0280 	bic.w	r2, r4, #128	@ 0x80
1001288c:	9202      	str	r2, [sp, #8]
1001288e:	f040 814e 	bne.w	10012b2e <_vfiprintf_r+0x94e>
10012892:	2002      	movs	r0, #2
10012894:	e75c      	b.n	10012750 <_vfiprintf_r+0x570>
10012896:	9b02      	ldr	r3, [sp, #8]
10012898:	9406      	str	r4, [sp, #24]
1001289a:	069b      	lsls	r3, r3, #26
1001289c:	f140 827f 	bpl.w	10012d9e <_vfiprintf_r+0xbbe>
100128a0:	9b0a      	ldr	r3, [sp, #40]	@ 0x28
100128a2:	9a07      	ldr	r2, [sp, #28]
100128a4:	681b      	ldr	r3, [r3, #0]
100128a6:	601a      	str	r2, [r3, #0]
100128a8:	17d2      	asrs	r2, r2, #31
100128aa:	605a      	str	r2, [r3, #4]
100128ac:	9b0a      	ldr	r3, [sp, #40]	@ 0x28
100128ae:	3304      	adds	r3, #4
100128b0:	930a      	str	r3, [sp, #40]	@ 0x28
100128b2:	e4d8      	b.n	10012266 <_vfiprintf_r+0x86>
100128b4:	9b02      	ldr	r3, [sp, #8]
100128b6:	7822      	ldrb	r2, [r4, #0]
100128b8:	f043 0301 	orr.w	r3, r3, #1
100128bc:	9302      	str	r3, [sp, #8]
100128be:	e4f7      	b.n	100122b0 <_vfiprintf_r+0xd0>
100128c0:	f89d 304b 	ldrb.w	r3, [sp, #75]	@ 0x4b
100128c4:	7822      	ldrb	r2, [r4, #0]
100128c6:	2b00      	cmp	r3, #0
100128c8:	f47f acf2 	bne.w	100122b0 <_vfiprintf_r+0xd0>
100128cc:	2320      	movs	r3, #32
100128ce:	f88d 304b 	strb.w	r3, [sp, #75]	@ 0x4b
100128d2:	e4ed      	b.n	100122b0 <_vfiprintf_r+0xd0>
100128d4:	9b02      	ldr	r3, [sp, #8]
100128d6:	7822      	ldrb	r2, [r4, #0]
100128d8:	f043 0380 	orr.w	r3, r3, #128	@ 0x80
100128dc:	9302      	str	r3, [sp, #8]
100128de:	e4e7      	b.n	100122b0 <_vfiprintf_r+0xd0>
100128e0:	4621      	mov	r1, r4
100128e2:	f811 2b01 	ldrb.w	r2, [r1], #1
100128e6:	2a2a      	cmp	r2, #42	@ 0x2a
100128e8:	f000 8433 	beq.w	10013152 <_vfiprintf_r+0xf72>
100128ec:	f1a2 0330 	sub.w	r3, r2, #48	@ 0x30
100128f0:	2b09      	cmp	r3, #9
100128f2:	460c      	mov	r4, r1
100128f4:	f200 83f6 	bhi.w	100130e4 <_vfiprintf_r+0xf04>
100128f8:	2200      	movs	r2, #0
100128fa:	4611      	mov	r1, r2
100128fc:	f814 2b01 	ldrb.w	r2, [r4], #1
10012900:	eb01 0181 	add.w	r1, r1, r1, lsl #2
10012904:	eb03 0141 	add.w	r1, r3, r1, lsl #1
10012908:	f1a2 0330 	sub.w	r3, r2, #48	@ 0x30
1001290c:	2b09      	cmp	r3, #9
1001290e:	d9f5      	bls.n	100128fc <_vfiprintf_r+0x71c>
10012910:	9105      	str	r1, [sp, #20]
10012912:	e4ce      	b.n	100122b2 <_vfiprintf_r+0xd2>
10012914:	232b      	movs	r3, #43	@ 0x2b
10012916:	7822      	ldrb	r2, [r4, #0]
10012918:	f88d 304b 	strb.w	r3, [sp, #75]	@ 0x4b
1001291c:	e4c8      	b.n	100122b0 <_vfiprintf_r+0xd0>
1001291e:	7822      	ldrb	r2, [r4, #0]
10012920:	9b02      	ldr	r3, [sp, #8]
10012922:	2a6c      	cmp	r2, #108	@ 0x6c
10012924:	f000 8336 	beq.w	10012f94 <_vfiprintf_r+0xdb4>
10012928:	f043 0310 	orr.w	r3, r3, #16
1001292c:	9302      	str	r3, [sp, #8]
1001292e:	e4bf      	b.n	100122b0 <_vfiprintf_r+0xd0>
10012930:	222d      	movs	r2, #45	@ 0x2d
10012932:	f88d 204b 	strb.w	r2, [sp, #75]	@ 0x4b
10012936:	9a05      	ldr	r2, [sp, #20]
10012938:	425b      	negs	r3, r3
1001293a:	eb61 0141 	sbc.w	r1, r1, r1, lsl #1
1001293e:	3201      	adds	r2, #1
10012940:	d003      	beq.n	1001294a <_vfiprintf_r+0x76a>
10012942:	9a02      	ldr	r2, [sp, #8]
10012944:	f022 0280 	bic.w	r2, r2, #128	@ 0x80
10012948:	9202      	str	r2, [sp, #8]
1001294a:	2b0a      	cmp	r3, #10
1001294c:	f171 0200 	sbcs.w	r2, r1, #0
10012950:	f080 82bd 	bcs.w	10012ece <_vfiprintf_r+0xcee>
10012954:	3330      	adds	r3, #48	@ 0x30
10012956:	b2db      	uxtb	r3, r3
10012958:	f88d 3117 	strb.w	r3, [sp, #279]	@ 0x117
1001295c:	9b05      	ldr	r3, [sp, #20]
1001295e:	2b01      	cmp	r3, #1
10012960:	bfb8      	it	lt
10012962:	2301      	movlt	r3, #1
10012964:	9304      	str	r3, [sp, #16]
10012966:	2301      	movs	r3, #1
10012968:	9309      	str	r3, [sp, #36]	@ 0x24
1001296a:	f20d 1417 	addw	r4, sp, #279	@ 0x117
1001296e:	2300      	movs	r3, #0
10012970:	930b      	str	r3, [sp, #44]	@ 0x2c
10012972:	f89d 304b 	ldrb.w	r3, [sp, #75]	@ 0x4b
10012976:	2b00      	cmp	r3, #0
10012978:	f43f adae 	beq.w	100124d8 <_vfiprintf_r+0x2f8>
1001297c:	9b04      	ldr	r3, [sp, #16]
1001297e:	3301      	adds	r3, #1
10012980:	9304      	str	r3, [sp, #16]
10012982:	e5a9      	b.n	100124d8 <_vfiprintf_r+0x2f8>
10012984:	9b09      	ldr	r3, [sp, #36]	@ 0x24
10012986:	941d      	str	r4, [sp, #116]	@ 0x74
10012988:	2201      	movs	r2, #1
1001298a:	931e      	str	r3, [sp, #120]	@ 0x78
1001298c:	931c      	str	r3, [sp, #112]	@ 0x70
1001298e:	921b      	str	r2, [sp, #108]	@ 0x6c
10012990:	f10d 0974 	add.w	r9, sp, #116	@ 0x74
10012994:	f109 0908 	add.w	r9, r9, #8
10012998:	e60c      	b.n	100125b4 <_vfiprintf_r+0x3d4>
1001299a:	9b08      	ldr	r3, [sp, #32]
1001299c:	9804      	ldr	r0, [sp, #16]
1001299e:	1a1d      	subs	r5, r3, r0
100129a0:	2d00      	cmp	r5, #0
100129a2:	f77f ade7 	ble.w	10012574 <_vfiprintf_r+0x394>
100129a6:	2d10      	cmp	r5, #16
100129a8:	f340 83cb 	ble.w	10013142 <_vfiprintf_r+0xf62>
100129ac:	f8df 81b4 	ldr.w	r8, [pc, #436]	@ 10012b64 <_vfiprintf_r+0x984>
100129b0:	4643      	mov	r3, r8
100129b2:	2610      	movs	r6, #16
100129b4:	46a0      	mov	r8, r4
100129b6:	4661      	mov	r1, ip
100129b8:	461c      	mov	r4, r3
100129ba:	e007      	b.n	100129cc <_vfiprintf_r+0x7ec>
100129bc:	f102 0c02 	add.w	ip, r2, #2
100129c0:	f109 0908 	add.w	r9, r9, #8
100129c4:	4602      	mov	r2, r0
100129c6:	3d10      	subs	r5, #16
100129c8:	2d10      	cmp	r5, #16
100129ca:	dd1a      	ble.n	10012a02 <_vfiprintf_r+0x822>
100129cc:	1c50      	adds	r0, r2, #1
100129ce:	3110      	adds	r1, #16
100129d0:	2807      	cmp	r0, #7
100129d2:	e9c9 4600 	strd	r4, r6, [r9]
100129d6:	e9cd 011b 	strd	r0, r1, [sp, #108]	@ 0x6c
100129da:	ddef      	ble.n	100129bc <_vfiprintf_r+0x7dc>
100129dc:	aa1a      	add	r2, sp, #104	@ 0x68
100129de:	2900      	cmp	r1, #0
100129e0:	d07c      	beq.n	10012adc <_vfiprintf_r+0x8fc>
100129e2:	9903      	ldr	r1, [sp, #12]
100129e4:	4658      	mov	r0, fp
100129e6:	f10d 0974 	add.w	r9, sp, #116	@ 0x74
100129ea:	f7ff fbb1 	bl	10012150 <__sprint_r.part.0>
100129ee:	2800      	cmp	r0, #0
100129f0:	f47f ad4e 	bne.w	10012490 <_vfiprintf_r+0x2b0>
100129f4:	e9dd 211b 	ldrd	r2, r1, [sp, #108]	@ 0x6c
100129f8:	3d10      	subs	r5, #16
100129fa:	2d10      	cmp	r5, #16
100129fc:	f102 0c01 	add.w	ip, r2, #1
10012a00:	dce4      	bgt.n	100129cc <_vfiprintf_r+0x7ec>
10012a02:	4623      	mov	r3, r4
10012a04:	4660      	mov	r0, ip
10012a06:	4644      	mov	r4, r8
10012a08:	468c      	mov	ip, r1
10012a0a:	4698      	mov	r8, r3
10012a0c:	44ac      	add	ip, r5
10012a0e:	2807      	cmp	r0, #7
10012a10:	e9cd 0c1b 	strd	r0, ip, [sp, #108]	@ 0x6c
10012a14:	f8c9 8000 	str.w	r8, [r9]
10012a18:	f8c9 5004 	str.w	r5, [r9, #4]
10012a1c:	f340 81a4 	ble.w	10012d68 <_vfiprintf_r+0xb88>
10012a20:	f1bc 0f00 	cmp.w	ip, #0
10012a24:	f000 8327 	beq.w	10013076 <_vfiprintf_r+0xe96>
10012a28:	9903      	ldr	r1, [sp, #12]
10012a2a:	aa1a      	add	r2, sp, #104	@ 0x68
10012a2c:	4658      	mov	r0, fp
10012a2e:	f7ff fb8f 	bl	10012150 <__sprint_r.part.0>
10012a32:	2800      	cmp	r0, #0
10012a34:	f47f ad2c 	bne.w	10012490 <_vfiprintf_r+0x2b0>
10012a38:	9b05      	ldr	r3, [sp, #20]
10012a3a:	9809      	ldr	r0, [sp, #36]	@ 0x24
10012a3c:	e9dd 2c1b 	ldrd	r2, ip, [sp, #108]	@ 0x6c
10012a40:	1a1d      	subs	r5, r3, r0
10012a42:	2d00      	cmp	r5, #0
10012a44:	f102 0101 	add.w	r1, r2, #1
10012a48:	f10d 0974 	add.w	r9, sp, #116	@ 0x74
10012a4c:	f77f ad98 	ble.w	10012580 <_vfiprintf_r+0x3a0>
10012a50:	2d10      	cmp	r5, #16
10012a52:	f8df 8110 	ldr.w	r8, [pc, #272]	@ 10012b64 <_vfiprintf_r+0x984>
10012a56:	dd2d      	ble.n	10012ab4 <_vfiprintf_r+0x8d4>
10012a58:	462b      	mov	r3, r5
10012a5a:	2610      	movs	r6, #16
10012a5c:	4625      	mov	r5, r4
10012a5e:	4660      	mov	r0, ip
10012a60:	461c      	mov	r4, r3
10012a62:	e007      	b.n	10012a74 <_vfiprintf_r+0x894>
10012a64:	f102 0c02 	add.w	ip, r2, #2
10012a68:	f109 0908 	add.w	r9, r9, #8
10012a6c:	460a      	mov	r2, r1
10012a6e:	3c10      	subs	r4, #16
10012a70:	2c10      	cmp	r4, #16
10012a72:	dd1a      	ble.n	10012aaa <_vfiprintf_r+0x8ca>
10012a74:	1c51      	adds	r1, r2, #1
10012a76:	4b3b      	ldr	r3, [pc, #236]	@ (10012b64 <_vfiprintf_r+0x984>)
10012a78:	3010      	adds	r0, #16
10012a7a:	2907      	cmp	r1, #7
10012a7c:	e9c9 3600 	strd	r3, r6, [r9]
10012a80:	e9cd 101b 	strd	r1, r0, [sp, #108]	@ 0x6c
10012a84:	ddee      	ble.n	10012a64 <_vfiprintf_r+0x884>
10012a86:	aa1a      	add	r2, sp, #104	@ 0x68
10012a88:	b310      	cbz	r0, 10012ad0 <_vfiprintf_r+0x8f0>
10012a8a:	9903      	ldr	r1, [sp, #12]
10012a8c:	4658      	mov	r0, fp
10012a8e:	f10d 0974 	add.w	r9, sp, #116	@ 0x74
10012a92:	f7ff fb5d 	bl	10012150 <__sprint_r.part.0>
10012a96:	2800      	cmp	r0, #0
10012a98:	f47f acfa 	bne.w	10012490 <_vfiprintf_r+0x2b0>
10012a9c:	e9dd 201b 	ldrd	r2, r0, [sp, #108]	@ 0x6c
10012aa0:	3c10      	subs	r4, #16
10012aa2:	2c10      	cmp	r4, #16
10012aa4:	f102 0c01 	add.w	ip, r2, #1
10012aa8:	dce4      	bgt.n	10012a74 <_vfiprintf_r+0x894>
10012aaa:	4623      	mov	r3, r4
10012aac:	4661      	mov	r1, ip
10012aae:	462c      	mov	r4, r5
10012ab0:	4684      	mov	ip, r0
10012ab2:	461d      	mov	r5, r3
10012ab4:	44ac      	add	ip, r5
10012ab6:	2907      	cmp	r1, #7
10012ab8:	e9cd 1c1b 	strd	r1, ip, [sp, #108]	@ 0x6c
10012abc:	f8c9 8000 	str.w	r8, [r9]
10012ac0:	f8c9 5004 	str.w	r5, [r9, #4]
10012ac4:	f300 80ed 	bgt.w	10012ca2 <_vfiprintf_r+0xac2>
10012ac8:	f109 0908 	add.w	r9, r9, #8
10012acc:	3101      	adds	r1, #1
10012ace:	e557      	b.n	10012580 <_vfiprintf_r+0x3a0>
10012ad0:	f04f 0c01 	mov.w	ip, #1
10012ad4:	4602      	mov	r2, r0
10012ad6:	f10d 0974 	add.w	r9, sp, #116	@ 0x74
10012ada:	e7c8      	b.n	10012a6e <_vfiprintf_r+0x88e>
10012adc:	f04f 0c01 	mov.w	ip, #1
10012ae0:	460a      	mov	r2, r1
10012ae2:	f10d 0974 	add.w	r9, sp, #116	@ 0x74
10012ae6:	e76e      	b.n	100129c6 <_vfiprintf_r+0x7e6>
10012ae8:	f1bc 0f00 	cmp.w	ip, #0
10012aec:	d00f      	beq.n	10012b0e <_vfiprintf_r+0x92e>
10012aee:	9903      	ldr	r1, [sp, #12]
10012af0:	9311      	str	r3, [sp, #68]	@ 0x44
10012af2:	aa1a      	add	r2, sp, #104	@ 0x68
10012af4:	4658      	mov	r0, fp
10012af6:	f7ff fb2b 	bl	10012150 <__sprint_r.part.0>
10012afa:	2800      	cmp	r0, #0
10012afc:	f47f acc8 	bne.w	10012490 <_vfiprintf_r+0x2b0>
10012b00:	e9dd 2c1b 	ldrd	r2, ip, [sp, #108]	@ 0x6c
10012b04:	9b11      	ldr	r3, [sp, #68]	@ 0x44
10012b06:	1c51      	adds	r1, r2, #1
10012b08:	f10d 0974 	add.w	r9, sp, #116	@ 0x74
10012b0c:	e50f      	b.n	1001252e <_vfiprintf_r+0x34e>
10012b0e:	2b00      	cmp	r3, #0
10012b10:	f000 8156 	beq.w	10012dc0 <_vfiprintf_r+0xbe0>
10012b14:	2302      	movs	r3, #2
10012b16:	931e      	str	r3, [sp, #120]	@ 0x78
10012b18:	469c      	mov	ip, r3
10012b1a:	ab13      	add	r3, sp, #76	@ 0x4c
10012b1c:	931d      	str	r3, [sp, #116]	@ 0x74
10012b1e:	2101      	movs	r1, #1
10012b20:	f10d 0974 	add.w	r9, sp, #116	@ 0x74
10012b24:	460a      	mov	r2, r1
10012b26:	f109 0908 	add.w	r9, r9, #8
10012b2a:	3101      	adds	r1, #1
10012b2c:	e51e      	b.n	1001256c <_vfiprintf_r+0x38c>
10012b2e:	980d      	ldr	r0, [sp, #52]	@ 0x34
10012b30:	ac46      	add	r4, sp, #280	@ 0x118
10012b32:	f003 020f 	and.w	r2, r3, #15
10012b36:	091b      	lsrs	r3, r3, #4
10012b38:	5c82      	ldrb	r2, [r0, r2]
10012b3a:	f804 2d01 	strb.w	r2, [r4, #-1]!
10012b3e:	ea43 7301 	orr.w	r3, r3, r1, lsl #28
10012b42:	0909      	lsrs	r1, r1, #4
10012b44:	ea53 0201 	orrs.w	r2, r3, r1
10012b48:	d1f3      	bne.n	10012b32 <_vfiprintf_r+0x952>
10012b4a:	9a05      	ldr	r2, [sp, #20]
10012b4c:	ab46      	add	r3, sp, #280	@ 0x118
10012b4e:	1b1b      	subs	r3, r3, r4
10012b50:	429a      	cmp	r2, r3
10012b52:	bfb8      	it	lt
10012b54:	461a      	movlt	r2, r3
10012b56:	9309      	str	r3, [sp, #36]	@ 0x24
10012b58:	9204      	str	r2, [sp, #16]
10012b5a:	e708      	b.n	1001296e <_vfiprintf_r+0x78e>
10012b5c:	10019274 	.word	0x10019274
10012b60:	20000454 	.word	0x20000454
10012b64:	100192c8 	.word	0x100192c8
10012b68:	2d10      	cmp	r5, #16
10012b6a:	f340 82bf 	ble.w	100130ec <_vfiprintf_r+0xf0c>
10012b6e:	4eae      	ldr	r6, [pc, #696]	@ (10012e28 <_vfiprintf_r+0xc48>)
10012b70:	9311      	str	r3, [sp, #68]	@ 0x44
10012b72:	4649      	mov	r1, r9
10012b74:	f04f 0810 	mov.w	r8, #16
10012b78:	46a1      	mov	r9, r4
10012b7a:	4634      	mov	r4, r6
10012b7c:	4666      	mov	r6, ip
10012b7e:	e007      	b.n	10012b90 <_vfiprintf_r+0x9b0>
10012b80:	f102 0e02 	add.w	lr, r2, #2
10012b84:	3108      	adds	r1, #8
10012b86:	4602      	mov	r2, r0
10012b88:	3d10      	subs	r5, #16
10012b8a:	2d10      	cmp	r5, #16
10012b8c:	dd18      	ble.n	10012bc0 <_vfiprintf_r+0x9e0>
10012b8e:	1c50      	adds	r0, r2, #1
10012b90:	3610      	adds	r6, #16
10012b92:	2807      	cmp	r0, #7
10012b94:	e9c1 4800 	strd	r4, r8, [r1]
10012b98:	e9cd 061b 	strd	r0, r6, [sp, #108]	@ 0x6c
10012b9c:	ddf0      	ble.n	10012b80 <_vfiprintf_r+0x9a0>
10012b9e:	9903      	ldr	r1, [sp, #12]
10012ba0:	aa1a      	add	r2, sp, #104	@ 0x68
10012ba2:	4658      	mov	r0, fp
10012ba4:	b316      	cbz	r6, 10012bec <_vfiprintf_r+0xa0c>
10012ba6:	f7ff fad3 	bl	10012150 <__sprint_r.part.0>
10012baa:	2800      	cmp	r0, #0
10012bac:	f47f ac70 	bne.w	10012490 <_vfiprintf_r+0x2b0>
10012bb0:	e9dd 261b 	ldrd	r2, r6, [sp, #108]	@ 0x6c
10012bb4:	3d10      	subs	r5, #16
10012bb6:	2d10      	cmp	r5, #16
10012bb8:	f102 0e01 	add.w	lr, r2, #1
10012bbc:	a91d      	add	r1, sp, #116	@ 0x74
10012bbe:	dce6      	bgt.n	10012b8e <_vfiprintf_r+0x9ae>
10012bc0:	9b11      	ldr	r3, [sp, #68]	@ 0x44
10012bc2:	46b4      	mov	ip, r6
10012bc4:	4626      	mov	r6, r4
10012bc6:	464c      	mov	r4, r9
10012bc8:	4689      	mov	r9, r1
10012bca:	44ac      	add	ip, r5
10012bcc:	f1be 0f07 	cmp.w	lr, #7
10012bd0:	e9cd ec1b 	strd	lr, ip, [sp, #108]	@ 0x6c
10012bd4:	f8c9 6000 	str.w	r6, [r9]
10012bd8:	f8c9 5004 	str.w	r5, [r9, #4]
10012bdc:	f300 809a 	bgt.w	10012d14 <_vfiprintf_r+0xb34>
10012be0:	f109 0908 	add.w	r9, r9, #8
10012be4:	f10e 0101 	add.w	r1, lr, #1
10012be8:	4672      	mov	r2, lr
10012bea:	e48b      	b.n	10012504 <_vfiprintf_r+0x324>
10012bec:	4632      	mov	r2, r6
10012bee:	f04f 0e01 	mov.w	lr, #1
10012bf2:	a91d      	add	r1, sp, #116	@ 0x74
10012bf4:	e7c8      	b.n	10012b88 <_vfiprintf_r+0x9a8>
10012bf6:	9a02      	ldr	r2, [sp, #8]
10012bf8:	931b      	str	r3, [sp, #108]	@ 0x6c
10012bfa:	0754      	lsls	r4, r2, #29
10012bfc:	d548      	bpl.n	10012c90 <_vfiprintf_r+0xab0>
10012bfe:	9a08      	ldr	r2, [sp, #32]
10012c00:	9904      	ldr	r1, [sp, #16]
10012c02:	1a54      	subs	r4, r2, r1
10012c04:	2c00      	cmp	r4, #0
10012c06:	dd43      	ble.n	10012c90 <_vfiprintf_r+0xab0>
10012c08:	f10d 0974 	add.w	r9, sp, #116	@ 0x74
10012c0c:	2c10      	cmp	r4, #16
10012c0e:	991b      	ldr	r1, [sp, #108]	@ 0x6c
10012c10:	f340 827b 	ble.w	1001310a <_vfiprintf_r+0xf2a>
10012c14:	4e84      	ldr	r6, [pc, #528]	@ (10012e28 <_vfiprintf_r+0xc48>)
10012c16:	f8dd 800c 	ldr.w	r8, [sp, #12]
10012c1a:	2510      	movs	r5, #16
10012c1c:	e006      	b.n	10012c2c <_vfiprintf_r+0xa4c>
10012c1e:	1c88      	adds	r0, r1, #2
10012c20:	f109 0908 	add.w	r9, r9, #8
10012c24:	4611      	mov	r1, r2
10012c26:	3c10      	subs	r4, #16
10012c28:	2c10      	cmp	r4, #16
10012c2a:	dd19      	ble.n	10012c60 <_vfiprintf_r+0xa80>
10012c2c:	1c4a      	adds	r2, r1, #1
10012c2e:	3310      	adds	r3, #16
10012c30:	2a07      	cmp	r2, #7
10012c32:	e9c9 6500 	strd	r6, r5, [r9]
10012c36:	e9cd 231b 	strd	r2, r3, [sp, #108]	@ 0x6c
10012c3a:	ddf0      	ble.n	10012c1e <_vfiprintf_r+0xa3e>
10012c3c:	aa1a      	add	r2, sp, #104	@ 0x68
10012c3e:	b313      	cbz	r3, 10012c86 <_vfiprintf_r+0xaa6>
10012c40:	4641      	mov	r1, r8
10012c42:	4658      	mov	r0, fp
10012c44:	f7ff fa84 	bl	10012150 <__sprint_r.part.0>
10012c48:	2800      	cmp	r0, #0
10012c4a:	f47f ac21 	bne.w	10012490 <_vfiprintf_r+0x2b0>
10012c4e:	e9dd 131b 	ldrd	r1, r3, [sp, #108]	@ 0x6c
10012c52:	3c10      	subs	r4, #16
10012c54:	2c10      	cmp	r4, #16
10012c56:	f101 0001 	add.w	r0, r1, #1
10012c5a:	f10d 0974 	add.w	r9, sp, #116	@ 0x74
10012c5e:	dce5      	bgt.n	10012c2c <_vfiprintf_r+0xa4c>
10012c60:	4423      	add	r3, r4
10012c62:	2807      	cmp	r0, #7
10012c64:	e9c9 6400 	strd	r6, r4, [r9]
10012c68:	e9cd 031b 	strd	r0, r3, [sp, #108]	@ 0x6c
10012c6c:	f77f acab 	ble.w	100125c6 <_vfiprintf_r+0x3e6>
10012c70:	b173      	cbz	r3, 10012c90 <_vfiprintf_r+0xab0>
10012c72:	9903      	ldr	r1, [sp, #12]
10012c74:	aa1a      	add	r2, sp, #104	@ 0x68
10012c76:	4658      	mov	r0, fp
10012c78:	f7ff fa6a 	bl	10012150 <__sprint_r.part.0>
10012c7c:	2800      	cmp	r0, #0
10012c7e:	f47f ac07 	bne.w	10012490 <_vfiprintf_r+0x2b0>
10012c82:	9b1c      	ldr	r3, [sp, #112]	@ 0x70
10012c84:	e49f      	b.n	100125c6 <_vfiprintf_r+0x3e6>
10012c86:	2001      	movs	r0, #1
10012c88:	4619      	mov	r1, r3
10012c8a:	f10d 0974 	add.w	r9, sp, #116	@ 0x74
10012c8e:	e7ca      	b.n	10012c26 <_vfiprintf_r+0xa46>
10012c90:	e9dd 3207 	ldrd	r3, r2, [sp, #28]
10012c94:	9904      	ldr	r1, [sp, #16]
10012c96:	428a      	cmp	r2, r1
10012c98:	bfac      	ite	ge
10012c9a:	189b      	addge	r3, r3, r2
10012c9c:	185b      	addlt	r3, r3, r1
10012c9e:	9307      	str	r3, [sp, #28]
10012ca0:	e49c      	b.n	100125dc <_vfiprintf_r+0x3fc>
10012ca2:	f1bc 0f00 	cmp.w	ip, #0
10012ca6:	f43f ae6d 	beq.w	10012984 <_vfiprintf_r+0x7a4>
10012caa:	9903      	ldr	r1, [sp, #12]
10012cac:	aa1a      	add	r2, sp, #104	@ 0x68
10012cae:	4658      	mov	r0, fp
10012cb0:	f7ff fa4e 	bl	10012150 <__sprint_r.part.0>
10012cb4:	2800      	cmp	r0, #0
10012cb6:	f47f abeb 	bne.w	10012490 <_vfiprintf_r+0x2b0>
10012cba:	991b      	ldr	r1, [sp, #108]	@ 0x6c
10012cbc:	f8dd c070 	ldr.w	ip, [sp, #112]	@ 0x70
10012cc0:	3101      	adds	r1, #1
10012cc2:	f10d 0974 	add.w	r9, sp, #116	@ 0x74
10012cc6:	e45b      	b.n	10012580 <_vfiprintf_r+0x3a0>
10012cc8:	921b      	str	r2, [sp, #108]	@ 0x6c
10012cca:	f7ff bbd6 	b.w	1001247a <_vfiprintf_r+0x29a>
10012cce:	9a0a      	ldr	r2, [sp, #40]	@ 0x28
10012cd0:	f852 3b04 	ldr.w	r3, [r2], #4
10012cd4:	920a      	str	r2, [sp, #40]	@ 0x28
10012cd6:	f014 0210 	ands.w	r2, r4, #16
10012cda:	f47f ad75 	bne.w	100127c8 <_vfiprintf_r+0x5e8>
10012cde:	f014 0040 	ands.w	r0, r4, #64	@ 0x40
10012ce2:	f000 816d 	beq.w	10012fc0 <_vfiprintf_r+0xde0>
10012ce6:	b29b      	uxth	r3, r3
10012ce8:	4611      	mov	r1, r2
10012cea:	e56d      	b.n	100127c8 <_vfiprintf_r+0x5e8>
10012cec:	980a      	ldr	r0, [sp, #40]	@ 0x28
10012cee:	f850 3b04 	ldr.w	r3, [r0], #4
10012cf2:	900a      	str	r0, [sp, #40]	@ 0x28
10012cf4:	f012 0010 	ands.w	r0, r2, #16
10012cf8:	f47f ad19 	bne.w	1001272e <_vfiprintf_r+0x54e>
10012cfc:	f012 0440 	ands.w	r4, r2, #64	@ 0x40
10012d00:	f000 8166 	beq.w	10012fd0 <_vfiprintf_r+0xdf0>
10012d04:	b29b      	uxth	r3, r3
10012d06:	4601      	mov	r1, r0
10012d08:	e511      	b.n	1001272e <_vfiprintf_r+0x54e>
10012d0a:	2101      	movs	r1, #1
10012d0c:	4662      	mov	r2, ip
10012d0e:	f10d 0974 	add.w	r9, sp, #116	@ 0x74
10012d12:	e42b      	b.n	1001256c <_vfiprintf_r+0x38c>
10012d14:	f1bc 0f00 	cmp.w	ip, #0
10012d18:	f000 8095 	beq.w	10012e46 <_vfiprintf_r+0xc66>
10012d1c:	9903      	ldr	r1, [sp, #12]
10012d1e:	9311      	str	r3, [sp, #68]	@ 0x44
10012d20:	aa1a      	add	r2, sp, #104	@ 0x68
10012d22:	4658      	mov	r0, fp
10012d24:	f7ff fa14 	bl	10012150 <__sprint_r.part.0>
10012d28:	2800      	cmp	r0, #0
10012d2a:	f47f abb1 	bne.w	10012490 <_vfiprintf_r+0x2b0>
10012d2e:	e9dd 2c1b 	ldrd	r2, ip, [sp, #108]	@ 0x6c
10012d32:	9b11      	ldr	r3, [sp, #68]	@ 0x44
10012d34:	1c51      	adds	r1, r2, #1
10012d36:	f10d 0974 	add.w	r9, sp, #116	@ 0x74
10012d3a:	f7ff bbe3 	b.w	10012504 <_vfiprintf_r+0x324>
10012d3e:	9b05      	ldr	r3, [sp, #20]
10012d40:	9304      	str	r3, [sp, #16]
10012d42:	9309      	str	r3, [sp, #36]	@ 0x24
10012d44:	ac46      	add	r4, sp, #280	@ 0x118
10012d46:	e612      	b.n	1001296e <_vfiprintf_r+0x78e>
10012d48:	7822      	ldrb	r2, [r4, #0]
10012d4a:	930a      	str	r3, [sp, #40]	@ 0x28
10012d4c:	f7ff bab0 	b.w	100122b0 <_vfiprintf_r+0xd0>
10012d50:	9b05      	ldr	r3, [sp, #20]
10012d52:	9304      	str	r3, [sp, #16]
10012d54:	ac46      	add	r4, sp, #280	@ 0x118
10012d56:	e60a      	b.n	1001296e <_vfiprintf_r+0x78e>
10012d58:	9d03      	ldr	r5, [sp, #12]
10012d5a:	6da8      	ldr	r0, [r5, #88]	@ 0x58
10012d5c:	f001 fa54 	bl	10014208 <__retarget_lock_acquire_recursive>
10012d60:	f9b5 200c 	ldrsh.w	r2, [r5, #12]
10012d64:	f7ff ba5b 	b.w	1001221e <_vfiprintf_r+0x3e>
10012d68:	f109 0908 	add.w	r9, r9, #8
10012d6c:	1c41      	adds	r1, r0, #1
10012d6e:	4602      	mov	r2, r0
10012d70:	e400      	b.n	10012574 <_vfiprintf_r+0x394>
10012d72:	9a02      	ldr	r2, [sp, #8]
10012d74:	0592      	lsls	r2, r2, #22
10012d76:	f100 8184 	bmi.w	10013082 <_vfiprintf_r+0xea2>
10012d7a:	17d9      	asrs	r1, r3, #31
10012d7c:	460a      	mov	r2, r1
10012d7e:	e49d      	b.n	100126bc <_vfiprintf_r+0x4dc>
10012d80:	9b0e      	ldr	r3, [sp, #56]	@ 0x38
10012d82:	7822      	ldrb	r2, [r4, #0]
10012d84:	2b00      	cmp	r3, #0
10012d86:	f43f aa93 	beq.w	100122b0 <_vfiprintf_r+0xd0>
10012d8a:	781b      	ldrb	r3, [r3, #0]
10012d8c:	2b00      	cmp	r3, #0
10012d8e:	f43f aa8f 	beq.w	100122b0 <_vfiprintf_r+0xd0>
10012d92:	9b02      	ldr	r3, [sp, #8]
10012d94:	f443 6380 	orr.w	r3, r3, #1024	@ 0x400
10012d98:	9302      	str	r3, [sp, #8]
10012d9a:	f7ff ba89 	b.w	100122b0 <_vfiprintf_r+0xd0>
10012d9e:	9b02      	ldr	r3, [sp, #8]
10012da0:	06de      	lsls	r6, r3, #27
10012da2:	f100 80fe 	bmi.w	10012fa2 <_vfiprintf_r+0xdc2>
10012da6:	9b02      	ldr	r3, [sp, #8]
10012da8:	065d      	lsls	r5, r3, #25
10012daa:	f100 8176 	bmi.w	1001309a <_vfiprintf_r+0xeba>
10012dae:	9b02      	ldr	r3, [sp, #8]
10012db0:	059c      	lsls	r4, r3, #22
10012db2:	f140 80f6 	bpl.w	10012fa2 <_vfiprintf_r+0xdc2>
10012db6:	9b0a      	ldr	r3, [sp, #40]	@ 0x28
10012db8:	9a07      	ldr	r2, [sp, #28]
10012dba:	681b      	ldr	r3, [r3, #0]
10012dbc:	701a      	strb	r2, [r3, #0]
10012dbe:	e575      	b.n	100128ac <_vfiprintf_r+0x6cc>
10012dc0:	4662      	mov	r2, ip
10012dc2:	2101      	movs	r1, #1
10012dc4:	f10d 0974 	add.w	r9, sp, #116	@ 0x74
10012dc8:	f7ff bbd0 	b.w	1001256c <_vfiprintf_r+0x38c>
10012dcc:	9406      	str	r4, [sp, #24]
10012dce:	9c02      	ldr	r4, [sp, #8]
10012dd0:	e4ed      	b.n	100127ae <_vfiprintf_r+0x5ce>
10012dd2:	9a02      	ldr	r2, [sp, #8]
10012dd4:	9406      	str	r4, [sp, #24]
10012dd6:	e49d      	b.n	10012714 <_vfiprintf_r+0x534>
10012dd8:	4b14      	ldr	r3, [pc, #80]	@ (10012e2c <_vfiprintf_r+0xc4c>)
10012dda:	9406      	str	r4, [sp, #24]
10012ddc:	930d      	str	r3, [sp, #52]	@ 0x34
10012dde:	9b02      	ldr	r3, [sp, #8]
10012de0:	f013 0120 	ands.w	r1, r3, #32
10012de4:	d063      	beq.n	10012eae <_vfiprintf_r+0xcce>
10012de6:	9b0a      	ldr	r3, [sp, #40]	@ 0x28
10012de8:	3307      	adds	r3, #7
10012dea:	f023 0307 	bic.w	r3, r3, #7
10012dee:	4618      	mov	r0, r3
10012df0:	6859      	ldr	r1, [r3, #4]
10012df2:	f850 3b08 	ldr.w	r3, [r0], #8
10012df6:	900a      	str	r0, [sp, #40]	@ 0x28
10012df8:	9c02      	ldr	r4, [sp, #8]
10012dfa:	07e6      	lsls	r6, r4, #31
10012dfc:	d50a      	bpl.n	10012e14 <_vfiprintf_r+0xc34>
10012dfe:	ea53 0001 	orrs.w	r0, r3, r1
10012e02:	d007      	beq.n	10012e14 <_vfiprintf_r+0xc34>
10012e04:	f88d 204d 	strb.w	r2, [sp, #77]	@ 0x4d
10012e08:	f044 0202 	orr.w	r2, r4, #2
10012e0c:	9202      	str	r2, [sp, #8]
10012e0e:	2230      	movs	r2, #48	@ 0x30
10012e10:	f88d 204c 	strb.w	r2, [sp, #76]	@ 0x4c
10012e14:	9a02      	ldr	r2, [sp, #8]
10012e16:	f422 6280 	bic.w	r2, r2, #1024	@ 0x400
10012e1a:	9202      	str	r2, [sp, #8]
10012e1c:	e52a      	b.n	10012874 <_vfiprintf_r+0x694>
10012e1e:	4b04      	ldr	r3, [pc, #16]	@ (10012e30 <_vfiprintf_r+0xc50>)
10012e20:	9406      	str	r4, [sp, #24]
10012e22:	930d      	str	r3, [sp, #52]	@ 0x34
10012e24:	e7db      	b.n	10012dde <_vfiprintf_r+0xbfe>
10012e26:	bf00      	nop
10012e28:	100192d8 	.word	0x100192d8
10012e2c:	10019288 	.word	0x10019288
10012e30:	10019274 	.word	0x10019274
10012e34:	9b0a      	ldr	r3, [sp, #40]	@ 0x28
10012e36:	681b      	ldr	r3, [r3, #0]
10012e38:	f88d 30b4 	strb.w	r3, [sp, #180]	@ 0xb4
10012e3c:	2301      	movs	r3, #1
10012e3e:	9304      	str	r3, [sp, #16]
10012e40:	9309      	str	r3, [sp, #36]	@ 0x24
10012e42:	ac2d      	add	r4, sp, #180	@ 0xb4
10012e44:	e427      	b.n	10012696 <_vfiprintf_r+0x4b6>
10012e46:	f89d 204b 	ldrb.w	r2, [sp, #75]	@ 0x4b
10012e4a:	2a00      	cmp	r2, #0
10012e4c:	f000 811f 	beq.w	1001308e <_vfiprintf_r+0xeae>
10012e50:	2101      	movs	r1, #1
10012e52:	f10d 024b 	add.w	r2, sp, #75	@ 0x4b
10012e56:	911e      	str	r1, [sp, #120]	@ 0x78
10012e58:	921d      	str	r2, [sp, #116]	@ 0x74
10012e5a:	f10d 0974 	add.w	r9, sp, #116	@ 0x74
10012e5e:	468c      	mov	ip, r1
10012e60:	f7ff bb61 	b.w	10012526 <_vfiprintf_r+0x346>
10012e64:	2208      	movs	r2, #8
10012e66:	2100      	movs	r1, #0
10012e68:	a818      	add	r0, sp, #96	@ 0x60
10012e6a:	9415      	str	r4, [sp, #84]	@ 0x54
10012e6c:	f001 f8d4 	bl	10014018 <memset>
10012e70:	9b05      	ldr	r3, [sp, #20]
10012e72:	1c58      	adds	r0, r3, #1
10012e74:	f000 80ba 	beq.w	10012fec <_vfiprintf_r+0xe0c>
10012e78:	2500      	movs	r5, #0
10012e7a:	9404      	str	r4, [sp, #16]
10012e7c:	4698      	mov	r8, r3
10012e7e:	462c      	mov	r4, r5
10012e80:	e00c      	b.n	10012e9c <_vfiprintf_r+0xcbc>
10012e82:	a92d      	add	r1, sp, #180	@ 0xb4
10012e84:	4658      	mov	r0, fp
10012e86:	f001 fb27 	bl	100144d8 <_wcrtomb_r>
10012e8a:	1c41      	adds	r1, r0, #1
10012e8c:	4420      	add	r0, r4
10012e8e:	f000 813f 	beq.w	10013110 <_vfiprintf_r+0xf30>
10012e92:	4540      	cmp	r0, r8
10012e94:	dc08      	bgt.n	10012ea8 <_vfiprintf_r+0xcc8>
10012e96:	f000 8158 	beq.w	1001314a <_vfiprintf_r+0xf6a>
10012e9a:	4604      	mov	r4, r0
10012e9c:	9a15      	ldr	r2, [sp, #84]	@ 0x54
10012e9e:	5952      	ldr	r2, [r2, r5]
10012ea0:	ab18      	add	r3, sp, #96	@ 0x60
10012ea2:	3504      	adds	r5, #4
10012ea4:	2a00      	cmp	r2, #0
10012ea6:	d1ec      	bne.n	10012e82 <_vfiprintf_r+0xca2>
10012ea8:	9409      	str	r4, [sp, #36]	@ 0x24
10012eaa:	9c04      	ldr	r4, [sp, #16]
10012eac:	e0ac      	b.n	10013008 <_vfiprintf_r+0xe28>
10012eae:	980a      	ldr	r0, [sp, #40]	@ 0x28
10012eb0:	f850 3b04 	ldr.w	r3, [r0], #4
10012eb4:	900a      	str	r0, [sp, #40]	@ 0x28
10012eb6:	9802      	ldr	r0, [sp, #8]
10012eb8:	f010 0010 	ands.w	r0, r0, #16
10012ebc:	d19c      	bne.n	10012df8 <_vfiprintf_r+0xc18>
10012ebe:	9902      	ldr	r1, [sp, #8]
10012ec0:	f011 0440 	ands.w	r4, r1, #64	@ 0x40
10012ec4:	f000 808b 	beq.w	10012fde <_vfiprintf_r+0xdfe>
10012ec8:	b29b      	uxth	r3, r3
10012eca:	4601      	mov	r1, r0
10012ecc:	e794      	b.n	10012df8 <_vfiprintf_r+0xc18>
10012ece:	9a02      	ldr	r2, [sp, #8]
10012ed0:	f8cd 9010 	str.w	r9, [sp, #16]
10012ed4:	ac46      	add	r4, sp, #280	@ 0x118
10012ed6:	f402 6280 	and.w	r2, r2, #1024	@ 0x400
10012eda:	46a1      	mov	r9, r4
10012edc:	f8cd b024 	str.w	fp, [sp, #36]	@ 0x24
10012ee0:	4ea5      	ldr	r6, [pc, #660]	@ (10013178 <_vfiprintf_r+0xf98>)
10012ee2:	f8dd b038 	ldr.w	fp, [sp, #56]	@ 0x38
10012ee6:	f04f 0c00 	mov.w	ip, #0
10012eea:	4614      	mov	r4, r2
10012eec:	e005      	b.n	10012efa <_vfiprintf_r+0xd1a>
10012eee:	2b0a      	cmp	r3, #10
10012ef0:	f171 0100 	sbcs.w	r1, r1, #0
10012ef4:	d336      	bcc.n	10012f64 <_vfiprintf_r+0xd84>
10012ef6:	4643      	mov	r3, r8
10012ef8:	4629      	mov	r1, r5
10012efa:	185a      	adds	r2, r3, r1
10012efc:	f142 0200 	adc.w	r2, r2, #0
10012f00:	fba6 0502 	umull	r0, r5, r6, r2
10012f04:	f025 0003 	bic.w	r0, r5, #3
10012f08:	eb00 0095 	add.w	r0, r0, r5, lsr #2
10012f0c:	1a12      	subs	r2, r2, r0
10012f0e:	1a98      	subs	r0, r3, r2
10012f10:	f04f 35cc 	mov.w	r5, #3435973836	@ 0xcccccccc
10012f14:	f161 0e00 	sbc.w	lr, r1, #0
10012f18:	fb05 f500 	mul.w	r5, r5, r0
10012f1c:	fb06 550e 	mla	r5, r6, lr, r5
10012f20:	fba0 8006 	umull	r8, r0, r0, r6
10012f24:	4405      	add	r5, r0
10012f26:	f008 0e01 	and.w	lr, r8, #1
10012f2a:	2005      	movs	r0, #5
10012f2c:	fbae 0e00 	umull	r0, lr, lr, r0
10012f30:	1880      	adds	r0, r0, r2
10012f32:	ea4f 0858 	mov.w	r8, r8, lsr #1
10012f36:	3030      	adds	r0, #48	@ 0x30
10012f38:	f809 0c01 	strb.w	r0, [r9, #-1]
10012f3c:	ea48 78c5 	orr.w	r8, r8, r5, lsl #31
10012f40:	f10c 0c01 	add.w	ip, ip, #1
10012f44:	f109 39ff 	add.w	r9, r9, #4294967295	@ 0xffffffff
10012f48:	086d      	lsrs	r5, r5, #1
10012f4a:	2c00      	cmp	r4, #0
10012f4c:	d0cf      	beq.n	10012eee <_vfiprintf_r+0xd0e>
10012f4e:	f89b 2000 	ldrb.w	r2, [fp]
10012f52:	4562      	cmp	r2, ip
10012f54:	d1cb      	bne.n	10012eee <_vfiprintf_r+0xd0e>
10012f56:	f1bc 0fff 	cmp.w	ip, #255	@ 0xff
10012f5a:	d0c8      	beq.n	10012eee <_vfiprintf_r+0xd0e>
10012f5c:	2b0a      	cmp	r3, #10
10012f5e:	f171 0100 	sbcs.w	r1, r1, #0
10012f62:	d272      	bcs.n	1001304a <_vfiprintf_r+0xe6a>
10012f64:	f8cd b038 	str.w	fp, [sp, #56]	@ 0x38
10012f68:	464c      	mov	r4, r9
10012f6a:	f8dd b024 	ldr.w	fp, [sp, #36]	@ 0x24
10012f6e:	f8dd 9010 	ldr.w	r9, [sp, #16]
10012f72:	e5ea      	b.n	10012b4a <_vfiprintf_r+0x96a>
10012f74:	9202      	str	r2, [sp, #8]
10012f76:	e441      	b.n	100127fc <_vfiprintf_r+0x61c>
10012f78:	9402      	str	r4, [sp, #8]
10012f7a:	e4e6      	b.n	1001294a <_vfiprintf_r+0x76a>
10012f7c:	4658      	mov	r0, fp
10012f7e:	f000 fd2f 	bl	100139e0 <__sinit>
10012f82:	f7ff b943 	b.w	1001220c <_vfiprintf_r+0x2c>
10012f86:	f443 7300 	orr.w	r3, r3, #512	@ 0x200
10012f8a:	7862      	ldrb	r2, [r4, #1]
10012f8c:	9302      	str	r3, [sp, #8]
10012f8e:	3401      	adds	r4, #1
10012f90:	f7ff b98e 	b.w	100122b0 <_vfiprintf_r+0xd0>
10012f94:	f043 0320 	orr.w	r3, r3, #32
10012f98:	7862      	ldrb	r2, [r4, #1]
10012f9a:	9302      	str	r3, [sp, #8]
10012f9c:	3401      	adds	r4, #1
10012f9e:	f7ff b987 	b.w	100122b0 <_vfiprintf_r+0xd0>
10012fa2:	9b0a      	ldr	r3, [sp, #40]	@ 0x28
10012fa4:	9a07      	ldr	r2, [sp, #28]
10012fa6:	681b      	ldr	r3, [r3, #0]
10012fa8:	601a      	str	r2, [r3, #0]
10012faa:	e47f      	b.n	100128ac <_vfiprintf_r+0x6cc>
10012fac:	9b05      	ldr	r3, [sp, #20]
10012fae:	4c73      	ldr	r4, [pc, #460]	@ (1001317c <_vfiprintf_r+0xf9c>)
10012fb0:	2b06      	cmp	r3, #6
10012fb2:	bf28      	it	cs
10012fb4:	2306      	movcs	r3, #6
10012fb6:	e9cd 3609 	strd	r3, r6, [sp, #36]	@ 0x24
10012fba:	9304      	str	r3, [sp, #16]
10012fbc:	f7ff ba89 	b.w	100124d2 <_vfiprintf_r+0x2f2>
10012fc0:	f414 7100 	ands.w	r1, r4, #512	@ 0x200
10012fc4:	f43f ac00 	beq.w	100127c8 <_vfiprintf_r+0x5e8>
10012fc8:	b2db      	uxtb	r3, r3
10012fca:	4601      	mov	r1, r0
10012fcc:	f7ff bbfc 	b.w	100127c8 <_vfiprintf_r+0x5e8>
10012fd0:	f412 7100 	ands.w	r1, r2, #512	@ 0x200
10012fd4:	bf1c      	itt	ne
10012fd6:	b2db      	uxtbne	r3, r3
10012fd8:	4621      	movne	r1, r4
10012fda:	f7ff bba8 	b.w	1001272e <_vfiprintf_r+0x54e>
10012fde:	9902      	ldr	r1, [sp, #8]
10012fe0:	f411 7100 	ands.w	r1, r1, #512	@ 0x200
10012fe4:	bf1c      	itt	ne
10012fe6:	b2db      	uxtbne	r3, r3
10012fe8:	4621      	movne	r1, r4
10012fea:	e705      	b.n	10012df8 <_vfiprintf_r+0xc18>
10012fec:	ab18      	add	r3, sp, #96	@ 0x60
10012fee:	9300      	str	r3, [sp, #0]
10012ff0:	2300      	movs	r3, #0
10012ff2:	4619      	mov	r1, r3
10012ff4:	aa15      	add	r2, sp, #84	@ 0x54
10012ff6:	4658      	mov	r0, fp
10012ff8:	f001 fa94 	bl	10014524 <_wcsrtombs_r>
10012ffc:	4603      	mov	r3, r0
10012ffe:	3301      	adds	r3, #1
10013000:	9009      	str	r0, [sp, #36]	@ 0x24
10013002:	f000 8085 	beq.w	10013110 <_vfiprintf_r+0xf30>
10013006:	9415      	str	r4, [sp, #84]	@ 0x54
10013008:	9b09      	ldr	r3, [sp, #36]	@ 0x24
1001300a:	b373      	cbz	r3, 1001306a <_vfiprintf_r+0xe8a>
1001300c:	2b63      	cmp	r3, #99	@ 0x63
1001300e:	dc49      	bgt.n	100130a4 <_vfiprintf_r+0xec4>
10013010:	2300      	movs	r3, #0
10013012:	930b      	str	r3, [sp, #44]	@ 0x2c
10013014:	ac2d      	add	r4, sp, #180	@ 0xb4
10013016:	2208      	movs	r2, #8
10013018:	2100      	movs	r1, #0
1001301a:	a818      	add	r0, sp, #96	@ 0x60
1001301c:	f000 fffc 	bl	10014018 <memset>
10013020:	9d09      	ldr	r5, [sp, #36]	@ 0x24
10013022:	ab18      	add	r3, sp, #96	@ 0x60
10013024:	9300      	str	r3, [sp, #0]
10013026:	aa15      	add	r2, sp, #84	@ 0x54
10013028:	462b      	mov	r3, r5
1001302a:	4621      	mov	r1, r4
1001302c:	4658      	mov	r0, fp
1001302e:	f001 fa79 	bl	10014524 <_wcsrtombs_r>
10013032:	4285      	cmp	r5, r0
10013034:	f040 8098 	bne.w	10013168 <_vfiprintf_r+0xf88>
10013038:	9a09      	ldr	r2, [sp, #36]	@ 0x24
1001303a:	960a      	str	r6, [sp, #40]	@ 0x28
1001303c:	2300      	movs	r3, #0
1001303e:	54a3      	strb	r3, [r4, r2]
10013040:	9305      	str	r3, [sp, #20]
10013042:	ea22 73e2 	bic.w	r3, r2, r2, asr #31
10013046:	9304      	str	r3, [sp, #16]
10013048:	e493      	b.n	10012972 <_vfiprintf_r+0x792>
1001304a:	9b0f      	ldr	r3, [sp, #60]	@ 0x3c
1001304c:	9910      	ldr	r1, [sp, #64]	@ 0x40
1001304e:	eba9 0903 	sub.w	r9, r9, r3
10013052:	461a      	mov	r2, r3
10013054:	4648      	mov	r0, r9
10013056:	f001 f831 	bl	100140bc <strncpy>
1001305a:	f89b 3001 	ldrb.w	r3, [fp, #1]
1001305e:	b10b      	cbz	r3, 10013064 <_vfiprintf_r+0xe84>
10013060:	f10b 0b01 	add.w	fp, fp, #1
10013064:	f04f 0c00 	mov.w	ip, #0
10013068:	e745      	b.n	10012ef6 <_vfiprintf_r+0xd16>
1001306a:	9b09      	ldr	r3, [sp, #36]	@ 0x24
1001306c:	960a      	str	r6, [sp, #40]	@ 0x28
1001306e:	e9cd 3304 	strd	r3, r3, [sp, #16]
10013072:	930b      	str	r3, [sp, #44]	@ 0x2c
10013074:	e47d      	b.n	10012972 <_vfiprintf_r+0x792>
10013076:	2101      	movs	r1, #1
10013078:	4662      	mov	r2, ip
1001307a:	f10d 0974 	add.w	r9, sp, #116	@ 0x74
1001307e:	f7ff ba79 	b.w	10012574 <_vfiprintf_r+0x394>
10013082:	f343 11c0 	sbfx	r1, r3, #7, #1
10013086:	460a      	mov	r2, r1
10013088:	b25b      	sxtb	r3, r3
1001308a:	f7ff bb17 	b.w	100126bc <_vfiprintf_r+0x4dc>
1001308e:	4662      	mov	r2, ip
10013090:	2101      	movs	r1, #1
10013092:	f10d 0974 	add.w	r9, sp, #116	@ 0x74
10013096:	f7ff ba4a 	b.w	1001252e <_vfiprintf_r+0x34e>
1001309a:	9b0a      	ldr	r3, [sp, #40]	@ 0x28
1001309c:	9a07      	ldr	r2, [sp, #28]
1001309e:	681b      	ldr	r3, [r3, #0]
100130a0:	801a      	strh	r2, [r3, #0]
100130a2:	e403      	b.n	100128ac <_vfiprintf_r+0x6cc>
100130a4:	1c59      	adds	r1, r3, #1
100130a6:	4658      	mov	r0, fp
100130a8:	f7fc ff1c 	bl	1000fee4 <_malloc_r>
100130ac:	4604      	mov	r4, r0
100130ae:	2800      	cmp	r0, #0
100130b0:	d02e      	beq.n	10013110 <_vfiprintf_r+0xf30>
100130b2:	900b      	str	r0, [sp, #44]	@ 0x2c
100130b4:	e7af      	b.n	10013016 <_vfiprintf_r+0xe36>
100130b6:	6d88      	ldr	r0, [r1, #88]	@ 0x58
100130b8:	f001 f8a8 	bl	1001420c <__retarget_lock_release_recursive>
100130bc:	f7ff b9a0 	b.w	10012400 <_vfiprintf_r+0x220>
100130c0:	9b05      	ldr	r3, [sp, #20]
100130c2:	9304      	str	r3, [sp, #16]
100130c4:	9309      	str	r3, [sp, #36]	@ 0x24
100130c6:	9b0b      	ldr	r3, [sp, #44]	@ 0x2c
100130c8:	960a      	str	r6, [sp, #40]	@ 0x28
100130ca:	9305      	str	r3, [sp, #20]
100130cc:	e451      	b.n	10012972 <_vfiprintf_r+0x792>
100130ce:	4620      	mov	r0, r4
100130d0:	9505      	str	r5, [sp, #20]
100130d2:	960a      	str	r6, [sp, #40]	@ 0x28
100130d4:	f001 f994 	bl	10014400 <strlen>
100130d8:	ea20 73e0 	bic.w	r3, r0, r0, asr #31
100130dc:	9009      	str	r0, [sp, #36]	@ 0x24
100130de:	9304      	str	r3, [sp, #16]
100130e0:	950b      	str	r5, [sp, #44]	@ 0x2c
100130e2:	e446      	b.n	10012972 <_vfiprintf_r+0x792>
100130e4:	2300      	movs	r3, #0
100130e6:	9305      	str	r3, [sp, #20]
100130e8:	f7ff b8e3 	b.w	100122b2 <_vfiprintf_r+0xd2>
100130ec:	4e24      	ldr	r6, [pc, #144]	@ (10013180 <_vfiprintf_r+0xfa0>)
100130ee:	4686      	mov	lr, r0
100130f0:	e56b      	b.n	10012bca <_vfiprintf_r+0x9ea>
100130f2:	2330      	movs	r3, #48	@ 0x30
100130f4:	e430      	b.n	10012958 <_vfiprintf_r+0x778>
100130f6:	9903      	ldr	r1, [sp, #12]
100130f8:	aa1a      	add	r2, sp, #104	@ 0x68
100130fa:	4658      	mov	r0, fp
100130fc:	f7ff f828 	bl	10012150 <__sprint_r.part.0>
10013100:	2800      	cmp	r0, #0
10013102:	f43f a9ab 	beq.w	1001245c <_vfiprintf_r+0x27c>
10013106:	f7ff b9c9 	b.w	1001249c <_vfiprintf_r+0x2bc>
1001310a:	4e1d      	ldr	r6, [pc, #116]	@ (10013180 <_vfiprintf_r+0xfa0>)
1001310c:	1c48      	adds	r0, r1, #1
1001310e:	e5a7      	b.n	10012c60 <_vfiprintf_r+0xa80>
10013110:	9a03      	ldr	r2, [sp, #12]
10013112:	f9b2 300c 	ldrsh.w	r3, [r2, #12]
10013116:	f043 0340 	orr.w	r3, r3, #64	@ 0x40
1001311a:	8193      	strh	r3, [r2, #12]
1001311c:	f7ff b9c1 	b.w	100124a2 <_vfiprintf_r+0x2c2>
10013120:	9b03      	ldr	r3, [sp, #12]
10013122:	6e5b      	ldr	r3, [r3, #100]	@ 0x64
10013124:	07d9      	lsls	r1, r3, #31
10013126:	d407      	bmi.n	10013138 <_vfiprintf_r+0xf58>
10013128:	9b03      	ldr	r3, [sp, #12]
1001312a:	899b      	ldrh	r3, [r3, #12]
1001312c:	059a      	lsls	r2, r3, #22
1001312e:	d403      	bmi.n	10013138 <_vfiprintf_r+0xf58>
10013130:	9b03      	ldr	r3, [sp, #12]
10013132:	6d98      	ldr	r0, [r3, #88]	@ 0x58
10013134:	f001 f86a 	bl	1001420c <__retarget_lock_release_recursive>
10013138:	f04f 33ff 	mov.w	r3, #4294967295	@ 0xffffffff
1001313c:	9307      	str	r3, [sp, #28]
1001313e:	f7ff b9b8 	b.w	100124b2 <_vfiprintf_r+0x2d2>
10013142:	f8df 8040 	ldr.w	r8, [pc, #64]	@ 10013184 <_vfiprintf_r+0xfa4>
10013146:	4608      	mov	r0, r1
10013148:	e460      	b.n	10012a0c <_vfiprintf_r+0x82c>
1001314a:	e9dd 4304 	ldrd	r4, r3, [sp, #16]
1001314e:	9309      	str	r3, [sp, #36]	@ 0x24
10013150:	e75a      	b.n	10013008 <_vfiprintf_r+0xe28>
10013152:	9b0a      	ldr	r3, [sp, #40]	@ 0x28
10013154:	7862      	ldrb	r2, [r4, #1]
10013156:	460c      	mov	r4, r1
10013158:	f853 1b04 	ldr.w	r1, [r3], #4
1001315c:	930a      	str	r3, [sp, #40]	@ 0x28
1001315e:	ea41 71e1 	orr.w	r1, r1, r1, asr #31
10013162:	9105      	str	r1, [sp, #20]
10013164:	f7ff b8a4 	b.w	100122b0 <_vfiprintf_r+0xd0>
10013168:	9a03      	ldr	r2, [sp, #12]
1001316a:	8993      	ldrh	r3, [r2, #12]
1001316c:	f043 0340 	orr.w	r3, r3, #64	@ 0x40
10013170:	8193      	strh	r3, [r2, #12]
10013172:	f7ff b98d 	b.w	10012490 <_vfiprintf_r+0x2b0>
10013176:	bf00      	nop
10013178:	cccccccd 	.word	0xcccccccd
1001317c:	1001929c 	.word	0x1001929c
10013180:	100192d8 	.word	0x100192d8
10013184:	100192c8 	.word	0x100192c8

10013188 <__sbprintf>:
10013188:	b5f0      	push	{r4, r5, r6, r7, lr}
1001318a:	461f      	mov	r7, r3
1001318c:	898b      	ldrh	r3, [r1, #12]
1001318e:	f2ad 4d6c 	subw	sp, sp, #1132	@ 0x46c
10013192:	f023 0302 	bic.w	r3, r3, #2
10013196:	f8ad 300c 	strh.w	r3, [sp, #12]
1001319a:	6e4b      	ldr	r3, [r1, #100]	@ 0x64
1001319c:	9319      	str	r3, [sp, #100]	@ 0x64
1001319e:	89cb      	ldrh	r3, [r1, #14]
100131a0:	f8ad 300e 	strh.w	r3, [sp, #14]
100131a4:	69cb      	ldr	r3, [r1, #28]
100131a6:	9307      	str	r3, [sp, #28]
100131a8:	6a4b      	ldr	r3, [r1, #36]	@ 0x24
100131aa:	9309      	str	r3, [sp, #36]	@ 0x24
100131ac:	ab1a      	add	r3, sp, #104	@ 0x68
100131ae:	9300      	str	r3, [sp, #0]
100131b0:	9304      	str	r3, [sp, #16]
100131b2:	f44f 6380 	mov.w	r3, #1024	@ 0x400
100131b6:	4615      	mov	r5, r2
100131b8:	4606      	mov	r6, r0
100131ba:	9302      	str	r3, [sp, #8]
100131bc:	9305      	str	r3, [sp, #20]
100131be:	a816      	add	r0, sp, #88	@ 0x58
100131c0:	2300      	movs	r3, #0
100131c2:	460c      	mov	r4, r1
100131c4:	9306      	str	r3, [sp, #24]
100131c6:	f001 f81b 	bl	10014200 <__retarget_lock_init_recursive>
100131ca:	462a      	mov	r2, r5
100131cc:	463b      	mov	r3, r7
100131ce:	4669      	mov	r1, sp
100131d0:	4630      	mov	r0, r6
100131d2:	f7ff f805 	bl	100121e0 <_vfiprintf_r>
100131d6:	1e05      	subs	r5, r0, #0
100131d8:	db07      	blt.n	100131ea <__sbprintf+0x62>
100131da:	4669      	mov	r1, sp
100131dc:	4630      	mov	r0, r6
100131de:	f000 fb11 	bl	10013804 <_fflush_r>
100131e2:	2800      	cmp	r0, #0
100131e4:	bf18      	it	ne
100131e6:	f04f 35ff 	movne.w	r5, #4294967295	@ 0xffffffff
100131ea:	f8bd 300c 	ldrh.w	r3, [sp, #12]
100131ee:	065b      	lsls	r3, r3, #25
100131f0:	d503      	bpl.n	100131fa <__sbprintf+0x72>
100131f2:	89a3      	ldrh	r3, [r4, #12]
100131f4:	f043 0340 	orr.w	r3, r3, #64	@ 0x40
100131f8:	81a3      	strh	r3, [r4, #12]
100131fa:	9816      	ldr	r0, [sp, #88]	@ 0x58
100131fc:	f001 f802 	bl	10014204 <__retarget_lock_close_recursive>
10013200:	4628      	mov	r0, r5
10013202:	f20d 4d6c 	addw	sp, sp, #1132	@ 0x46c
10013206:	bdf0      	pop	{r4, r5, r6, r7, pc}

10013208 <__malloc_lock>:
10013208:	4801      	ldr	r0, [pc, #4]	@ (10013210 <__malloc_lock+0x8>)
1001320a:	f000 bffd 	b.w	10014208 <__retarget_lock_acquire_recursive>
1001320e:	bf00      	nop
10013210:	2000119c 	.word	0x2000119c

10013214 <__malloc_unlock>:
10013214:	4801      	ldr	r0, [pc, #4]	@ (1001321c <__malloc_unlock+0x8>)
10013216:	f000 bff9 	b.w	1001420c <__retarget_lock_release_recursive>
1001321a:	bf00      	nop
1001321c:	2000119c 	.word	0x2000119c

10013220 <_puts_r>:
10013220:	b570      	push	{r4, r5, r6, lr}
10013222:	4605      	mov	r5, r0
10013224:	b088      	sub	sp, #32
10013226:	4608      	mov	r0, r1
10013228:	460c      	mov	r4, r1
1001322a:	f001 f8e9 	bl	10014400 <strlen>
1001322e:	4e21      	ldr	r6, [pc, #132]	@ (100132b4 <_puts_r+0x94>)
10013230:	6b6a      	ldr	r2, [r5, #52]	@ 0x34
10013232:	9005      	str	r0, [sp, #20]
10013234:	2101      	movs	r1, #1
10013236:	1843      	adds	r3, r0, r1
10013238:	e9cd 6106 	strd	r6, r1, [sp, #24]
1001323c:	a804      	add	r0, sp, #16
1001323e:	2102      	movs	r1, #2
10013240:	9404      	str	r4, [sp, #16]
10013242:	9303      	str	r3, [sp, #12]
10013244:	68ac      	ldr	r4, [r5, #8]
10013246:	9001      	str	r0, [sp, #4]
10013248:	9102      	str	r1, [sp, #8]
1001324a:	2a00      	cmp	r2, #0
1001324c:	d02e      	beq.n	100132ac <_puts_r+0x8c>
1001324e:	6e62      	ldr	r2, [r4, #100]	@ 0x64
10013250:	f9b4 300c 	ldrsh.w	r3, [r4, #12]
10013254:	07d6      	lsls	r6, r2, #31
10013256:	d401      	bmi.n	1001325c <_puts_r+0x3c>
10013258:	0598      	lsls	r0, r3, #22
1001325a:	d521      	bpl.n	100132a0 <_puts_r+0x80>
1001325c:	0499      	lsls	r1, r3, #18
1001325e:	d406      	bmi.n	1001326e <_puts_r+0x4e>
10013260:	6e62      	ldr	r2, [r4, #100]	@ 0x64
10013262:	f443 5300 	orr.w	r3, r3, #8192	@ 0x2000
10013266:	f422 5200 	bic.w	r2, r2, #8192	@ 0x2000
1001326a:	81a3      	strh	r3, [r4, #12]
1001326c:	6662      	str	r2, [r4, #100]	@ 0x64
1001326e:	4628      	mov	r0, r5
10013270:	aa01      	add	r2, sp, #4
10013272:	4621      	mov	r1, r4
10013274:	f000 fbde 	bl	10013a34 <__sfvwrite_r>
10013278:	6e63      	ldr	r3, [r4, #100]	@ 0x64
1001327a:	2800      	cmp	r0, #0
1001327c:	bf0c      	ite	eq
1001327e:	250a      	moveq	r5, #10
10013280:	f04f 35ff 	movne.w	r5, #4294967295	@ 0xffffffff
10013284:	07da      	lsls	r2, r3, #31
10013286:	d402      	bmi.n	1001328e <_puts_r+0x6e>
10013288:	89a3      	ldrh	r3, [r4, #12]
1001328a:	059b      	lsls	r3, r3, #22
1001328c:	d502      	bpl.n	10013294 <_puts_r+0x74>
1001328e:	4628      	mov	r0, r5
10013290:	b008      	add	sp, #32
10013292:	bd70      	pop	{r4, r5, r6, pc}
10013294:	6da0      	ldr	r0, [r4, #88]	@ 0x58
10013296:	f000 ffb9 	bl	1001420c <__retarget_lock_release_recursive>
1001329a:	4628      	mov	r0, r5
1001329c:	b008      	add	sp, #32
1001329e:	bd70      	pop	{r4, r5, r6, pc}
100132a0:	6da0      	ldr	r0, [r4, #88]	@ 0x58
100132a2:	f000 ffb1 	bl	10014208 <__retarget_lock_acquire_recursive>
100132a6:	f9b4 300c 	ldrsh.w	r3, [r4, #12]
100132aa:	e7d7      	b.n	1001325c <_puts_r+0x3c>
100132ac:	4628      	mov	r0, r5
100132ae:	f000 fb97 	bl	100139e0 <__sinit>
100132b2:	e7cc      	b.n	1001324e <_puts_r+0x2e>
100132b4:	100192e8 	.word	0x100192e8

100132b8 <puts>:
100132b8:	4b02      	ldr	r3, [pc, #8]	@ (100132c4 <puts+0xc>)
100132ba:	4601      	mov	r1, r0
100132bc:	6818      	ldr	r0, [r3, #0]
100132be:	f7ff bfaf 	b.w	10013220 <_puts_r>
100132c2:	bf00      	nop
100132c4:	200005c0 	.word	0x200005c0

100132c8 <_fclose_r>:
100132c8:	b570      	push	{r4, r5, r6, lr}
100132ca:	2900      	cmp	r1, #0
100132cc:	d03f      	beq.n	1001334e <_fclose_r+0x86>
100132ce:	4605      	mov	r5, r0
100132d0:	460c      	mov	r4, r1
100132d2:	b110      	cbz	r0, 100132da <_fclose_r+0x12>
100132d4:	6b43      	ldr	r3, [r0, #52]	@ 0x34
100132d6:	2b00      	cmp	r3, #0
100132d8:	d03c      	beq.n	10013354 <_fclose_r+0x8c>
100132da:	6e63      	ldr	r3, [r4, #100]	@ 0x64
100132dc:	f9b4 200c 	ldrsh.w	r2, [r4, #12]
100132e0:	07de      	lsls	r6, r3, #31
100132e2:	d432      	bmi.n	1001334a <_fclose_r+0x82>
100132e4:	0590      	lsls	r0, r2, #22
100132e6:	d538      	bpl.n	1001335a <_fclose_r+0x92>
100132e8:	4621      	mov	r1, r4
100132ea:	4628      	mov	r0, r5
100132ec:	f000 f9ee 	bl	100136cc <__sflush_r>
100132f0:	6ae3      	ldr	r3, [r4, #44]	@ 0x2c
100132f2:	4606      	mov	r6, r0
100132f4:	b133      	cbz	r3, 10013304 <_fclose_r+0x3c>
100132f6:	69e1      	ldr	r1, [r4, #28]
100132f8:	4628      	mov	r0, r5
100132fa:	4798      	blx	r3
100132fc:	2800      	cmp	r0, #0
100132fe:	bfb8      	it	lt
10013300:	f04f 36ff 	movlt.w	r6, #4294967295	@ 0xffffffff
10013304:	89a3      	ldrh	r3, [r4, #12]
10013306:	061a      	lsls	r2, r3, #24
10013308:	d439      	bmi.n	1001337e <_fclose_r+0xb6>
1001330a:	6b21      	ldr	r1, [r4, #48]	@ 0x30
1001330c:	b141      	cbz	r1, 10013320 <_fclose_r+0x58>
1001330e:	f104 0340 	add.w	r3, r4, #64	@ 0x40
10013312:	4299      	cmp	r1, r3
10013314:	d002      	beq.n	1001331c <_fclose_r+0x54>
10013316:	4628      	mov	r0, r5
10013318:	f002 f96c 	bl	100155f4 <_free_r>
1001331c:	2300      	movs	r3, #0
1001331e:	6323      	str	r3, [r4, #48]	@ 0x30
10013320:	6c61      	ldr	r1, [r4, #68]	@ 0x44
10013322:	b121      	cbz	r1, 1001332e <_fclose_r+0x66>
10013324:	4628      	mov	r0, r5
10013326:	f002 f965 	bl	100155f4 <_free_r>
1001332a:	2300      	movs	r3, #0
1001332c:	6463      	str	r3, [r4, #68]	@ 0x44
1001332e:	f000 fb75 	bl	10013a1c <__sfp_lock_acquire>
10013332:	6e63      	ldr	r3, [r4, #100]	@ 0x64
10013334:	2200      	movs	r2, #0
10013336:	07db      	lsls	r3, r3, #31
10013338:	81a2      	strh	r2, [r4, #12]
1001333a:	d51c      	bpl.n	10013376 <_fclose_r+0xae>
1001333c:	6da0      	ldr	r0, [r4, #88]	@ 0x58
1001333e:	f000 ff61 	bl	10014204 <__retarget_lock_close_recursive>
10013342:	f000 fb71 	bl	10013a28 <__sfp_lock_release>
10013346:	4630      	mov	r0, r6
10013348:	bd70      	pop	{r4, r5, r6, pc}
1001334a:	2a00      	cmp	r2, #0
1001334c:	d1cc      	bne.n	100132e8 <_fclose_r+0x20>
1001334e:	2600      	movs	r6, #0
10013350:	4630      	mov	r0, r6
10013352:	bd70      	pop	{r4, r5, r6, pc}
10013354:	f000 fb44 	bl	100139e0 <__sinit>
10013358:	e7bf      	b.n	100132da <_fclose_r+0x12>
1001335a:	6da0      	ldr	r0, [r4, #88]	@ 0x58
1001335c:	f000 ff54 	bl	10014208 <__retarget_lock_acquire_recursive>
10013360:	f9b4 300c 	ldrsh.w	r3, [r4, #12]
10013364:	2b00      	cmp	r3, #0
10013366:	d1bf      	bne.n	100132e8 <_fclose_r+0x20>
10013368:	6e63      	ldr	r3, [r4, #100]	@ 0x64
1001336a:	07d9      	lsls	r1, r3, #31
1001336c:	d4ef      	bmi.n	1001334e <_fclose_r+0x86>
1001336e:	6da0      	ldr	r0, [r4, #88]	@ 0x58
10013370:	f000 ff4c 	bl	1001420c <__retarget_lock_release_recursive>
10013374:	e7eb      	b.n	1001334e <_fclose_r+0x86>
10013376:	6da0      	ldr	r0, [r4, #88]	@ 0x58
10013378:	f000 ff48 	bl	1001420c <__retarget_lock_release_recursive>
1001337c:	e7de      	b.n	1001333c <_fclose_r+0x74>
1001337e:	6921      	ldr	r1, [r4, #16]
10013380:	4628      	mov	r0, r5
10013382:	f002 f937 	bl	100155f4 <_free_r>
10013386:	e7c0      	b.n	1001330a <_fclose_r+0x42>

10013388 <_realloc_r>:
10013388:	e92d 4ff8 	stmdb	sp!, {r3, r4, r5, r6, r7, r8, r9, sl, fp, lr}
1001338c:	4616      	mov	r6, r2
1001338e:	2900      	cmp	r1, #0
10013390:	f000 8096 	beq.w	100134c0 <_realloc_r+0x138>
10013394:	460c      	mov	r4, r1
10013396:	4680      	mov	r8, r0
10013398:	f106 050b 	add.w	r5, r6, #11
1001339c:	f7ff ff34 	bl	10013208 <__malloc_lock>
100133a0:	f854 1c04 	ldr.w	r1, [r4, #-4]
100133a4:	2d16      	cmp	r5, #22
100133a6:	f1a4 0908 	sub.w	r9, r4, #8
100133aa:	f021 0703 	bic.w	r7, r1, #3
100133ae:	d858      	bhi.n	10013462 <_realloc_r+0xda>
100133b0:	2510      	movs	r5, #16
100133b2:	42ae      	cmp	r6, r5
100133b4:	d858      	bhi.n	10013468 <_realloc_r+0xe0>
100133b6:	42af      	cmp	r7, r5
100133b8:	da60      	bge.n	1001347c <_realloc_r+0xf4>
100133ba:	4bbe      	ldr	r3, [pc, #760]	@ (100136b4 <_realloc_r+0x32c>)
100133bc:	689a      	ldr	r2, [r3, #8]
100133be:	eb09 0c07 	add.w	ip, r9, r7
100133c2:	4562      	cmp	r2, ip
100133c4:	f8dc 0004 	ldr.w	r0, [ip, #4]
100133c8:	f000 8090 	beq.w	100134ec <_realloc_r+0x164>
100133cc:	f020 0301 	bic.w	r3, r0, #1
100133d0:	4463      	add	r3, ip
100133d2:	685b      	ldr	r3, [r3, #4]
100133d4:	07da      	lsls	r2, r3, #31
100133d6:	d468      	bmi.n	100134aa <_realloc_r+0x122>
100133d8:	f020 0003 	bic.w	r0, r0, #3
100133dc:	183b      	adds	r3, r7, r0
100133de:	429d      	cmp	r5, r3
100133e0:	dd47      	ble.n	10013472 <_realloc_r+0xea>
100133e2:	07cb      	lsls	r3, r1, #31
100133e4:	d412      	bmi.n	1001340c <_realloc_r+0x84>
100133e6:	f854 3c08 	ldr.w	r3, [r4, #-8]
100133ea:	eba9 0b03 	sub.w	fp, r9, r3
100133ee:	f8db 3004 	ldr.w	r3, [fp, #4]
100133f2:	f023 0203 	bic.w	r2, r3, #3
100133f6:	4410      	add	r0, r2
100133f8:	eb00 0a07 	add.w	sl, r0, r7
100133fc:	4555      	cmp	r5, sl
100133fe:	f340 80f6 	ble.w	100135ee <_realloc_r+0x266>
10013402:	eb07 0a02 	add.w	sl, r7, r2
10013406:	4555      	cmp	r5, sl
10013408:	f340 80cc 	ble.w	100135a4 <_realloc_r+0x21c>
1001340c:	4631      	mov	r1, r6
1001340e:	4640      	mov	r0, r8
10013410:	f7fc fd68 	bl	1000fee4 <_malloc_r>
10013414:	4606      	mov	r6, r0
10013416:	2800      	cmp	r0, #0
10013418:	f000 8120 	beq.w	1001365c <_realloc_r+0x2d4>
1001341c:	f854 3c04 	ldr.w	r3, [r4, #-4]
10013420:	f023 0301 	bic.w	r3, r3, #1
10013424:	444b      	add	r3, r9
10013426:	f1a0 0208 	sub.w	r2, r0, #8
1001342a:	4293      	cmp	r3, r2
1001342c:	f000 80b4 	beq.w	10013598 <_realloc_r+0x210>
10013430:	1f3a      	subs	r2, r7, #4
10013432:	2a24      	cmp	r2, #36	@ 0x24
10013434:	f200 80d7 	bhi.w	100135e6 <_realloc_r+0x25e>
10013438:	2a13      	cmp	r2, #19
1001343a:	f200 80a2 	bhi.w	10013582 <_realloc_r+0x1fa>
1001343e:	4603      	mov	r3, r0
10013440:	4622      	mov	r2, r4
10013442:	6811      	ldr	r1, [r2, #0]
10013444:	6019      	str	r1, [r3, #0]
10013446:	6851      	ldr	r1, [r2, #4]
10013448:	6059      	str	r1, [r3, #4]
1001344a:	6892      	ldr	r2, [r2, #8]
1001344c:	609a      	str	r2, [r3, #8]
1001344e:	4621      	mov	r1, r4
10013450:	4640      	mov	r0, r8
10013452:	f002 f8cf 	bl	100155f4 <_free_r>
10013456:	4640      	mov	r0, r8
10013458:	f7ff fedc 	bl	10013214 <__malloc_unlock>
1001345c:	4630      	mov	r0, r6
1001345e:	e8bd 8ff8 	ldmia.w	sp!, {r3, r4, r5, r6, r7, r8, r9, sl, fp, pc}
10013462:	f035 0507 	bics.w	r5, r5, #7
10013466:	d5a4      	bpl.n	100133b2 <_realloc_r+0x2a>
10013468:	230c      	movs	r3, #12
1001346a:	f8c8 3000 	str.w	r3, [r8]
1001346e:	2600      	movs	r6, #0
10013470:	e018      	b.n	100134a4 <_realloc_r+0x11c>
10013472:	461f      	mov	r7, r3
10013474:	e9dc 2302 	ldrd	r2, r3, [ip, #8]
10013478:	60d3      	str	r3, [r2, #12]
1001347a:	609a      	str	r2, [r3, #8]
1001347c:	f8d9 3004 	ldr.w	r3, [r9, #4]
10013480:	1b7a      	subs	r2, r7, r5
10013482:	2a0f      	cmp	r2, #15
10013484:	f003 0301 	and.w	r3, r3, #1
10013488:	eb09 0007 	add.w	r0, r9, r7
1001348c:	d81d      	bhi.n	100134ca <_realloc_r+0x142>
1001348e:	433b      	orrs	r3, r7
10013490:	f8c9 3004 	str.w	r3, [r9, #4]
10013494:	6843      	ldr	r3, [r0, #4]
10013496:	f043 0301 	orr.w	r3, r3, #1
1001349a:	6043      	str	r3, [r0, #4]
1001349c:	4640      	mov	r0, r8
1001349e:	f7ff feb9 	bl	10013214 <__malloc_unlock>
100134a2:	4626      	mov	r6, r4
100134a4:	4630      	mov	r0, r6
100134a6:	e8bd 8ff8 	ldmia.w	sp!, {r3, r4, r5, r6, r7, r8, r9, sl, fp, pc}
100134aa:	07c9      	lsls	r1, r1, #31
100134ac:	d4ae      	bmi.n	1001340c <_realloc_r+0x84>
100134ae:	f854 3c08 	ldr.w	r3, [r4, #-8]
100134b2:	eba9 0b03 	sub.w	fp, r9, r3
100134b6:	f8db 3004 	ldr.w	r3, [fp, #4]
100134ba:	f023 0203 	bic.w	r2, r3, #3
100134be:	e7a0      	b.n	10013402 <_realloc_r+0x7a>
100134c0:	e8bd 4ff8 	ldmia.w	sp!, {r3, r4, r5, r6, r7, r8, r9, sl, fp, lr}
100134c4:	4611      	mov	r1, r2
100134c6:	f7fc bd0d 	b.w	1000fee4 <_malloc_r>
100134ca:	eb09 0105 	add.w	r1, r9, r5
100134ce:	432b      	orrs	r3, r5
100134d0:	f042 0201 	orr.w	r2, r2, #1
100134d4:	f8c9 3004 	str.w	r3, [r9, #4]
100134d8:	604a      	str	r2, [r1, #4]
100134da:	6843      	ldr	r3, [r0, #4]
100134dc:	f043 0301 	orr.w	r3, r3, #1
100134e0:	6043      	str	r3, [r0, #4]
100134e2:	3108      	adds	r1, #8
100134e4:	4640      	mov	r0, r8
100134e6:	f002 f885 	bl	100155f4 <_free_r>
100134ea:	e7d7      	b.n	1001349c <_realloc_r+0x114>
100134ec:	f020 0003 	bic.w	r0, r0, #3
100134f0:	19c2      	adds	r2, r0, r7
100134f2:	f105 0c10 	add.w	ip, r5, #16
100134f6:	4562      	cmp	r2, ip
100134f8:	f280 8091 	bge.w	1001361e <_realloc_r+0x296>
100134fc:	07ca      	lsls	r2, r1, #31
100134fe:	d485      	bmi.n	1001340c <_realloc_r+0x84>
10013500:	f854 2c08 	ldr.w	r2, [r4, #-8]
10013504:	eba9 0b02 	sub.w	fp, r9, r2
10013508:	f8db 2004 	ldr.w	r2, [fp, #4]
1001350c:	f022 0203 	bic.w	r2, r2, #3
10013510:	4410      	add	r0, r2
10013512:	eb00 0a07 	add.w	sl, r0, r7
10013516:	45d4      	cmp	ip, sl
10013518:	f73f af73 	bgt.w	10013402 <_realloc_r+0x7a>
1001351c:	465e      	mov	r6, fp
1001351e:	f8db 100c 	ldr.w	r1, [fp, #12]
10013522:	f856 0f08 	ldr.w	r0, [r6, #8]!
10013526:	1f3a      	subs	r2, r7, #4
10013528:	2a24      	cmp	r2, #36	@ 0x24
1001352a:	60c1      	str	r1, [r0, #12]
1001352c:	6088      	str	r0, [r1, #8]
1001352e:	f200 80ae 	bhi.w	1001368e <_realloc_r+0x306>
10013532:	2a13      	cmp	r2, #19
10013534:	f240 80a9 	bls.w	1001368a <_realloc_r+0x302>
10013538:	6821      	ldr	r1, [r4, #0]
1001353a:	f8cb 1008 	str.w	r1, [fp, #8]
1001353e:	6861      	ldr	r1, [r4, #4]
10013540:	f8cb 100c 	str.w	r1, [fp, #12]
10013544:	2a1b      	cmp	r2, #27
10013546:	f200 80a8 	bhi.w	1001369a <_realloc_r+0x312>
1001354a:	3408      	adds	r4, #8
1001354c:	f10b 0210 	add.w	r2, fp, #16
10013550:	6821      	ldr	r1, [r4, #0]
10013552:	6011      	str	r1, [r2, #0]
10013554:	6861      	ldr	r1, [r4, #4]
10013556:	6051      	str	r1, [r2, #4]
10013558:	68a1      	ldr	r1, [r4, #8]
1001355a:	6091      	str	r1, [r2, #8]
1001355c:	eb0b 0105 	add.w	r1, fp, r5
10013560:	ebaa 0205 	sub.w	r2, sl, r5
10013564:	f042 0201 	orr.w	r2, r2, #1
10013568:	6099      	str	r1, [r3, #8]
1001356a:	604a      	str	r2, [r1, #4]
1001356c:	f8db 3004 	ldr.w	r3, [fp, #4]
10013570:	f003 0301 	and.w	r3, r3, #1
10013574:	432b      	orrs	r3, r5
10013576:	4640      	mov	r0, r8
10013578:	f8cb 3004 	str.w	r3, [fp, #4]
1001357c:	f7ff fe4a 	bl	10013214 <__malloc_unlock>
10013580:	e790      	b.n	100134a4 <_realloc_r+0x11c>
10013582:	6823      	ldr	r3, [r4, #0]
10013584:	6003      	str	r3, [r0, #0]
10013586:	6863      	ldr	r3, [r4, #4]
10013588:	6043      	str	r3, [r0, #4]
1001358a:	2a1b      	cmp	r2, #27
1001358c:	d83c      	bhi.n	10013608 <_realloc_r+0x280>
1001358e:	f104 0208 	add.w	r2, r4, #8
10013592:	f100 0308 	add.w	r3, r0, #8
10013596:	e754      	b.n	10013442 <_realloc_r+0xba>
10013598:	f850 3c04 	ldr.w	r3, [r0, #-4]
1001359c:	f023 0303 	bic.w	r3, r3, #3
100135a0:	441f      	add	r7, r3
100135a2:	e76b      	b.n	1001347c <_realloc_r+0xf4>
100135a4:	1f3a      	subs	r2, r7, #4
100135a6:	465e      	mov	r6, fp
100135a8:	f8db 300c 	ldr.w	r3, [fp, #12]
100135ac:	f856 1f08 	ldr.w	r1, [r6, #8]!
100135b0:	2a24      	cmp	r2, #36	@ 0x24
100135b2:	60cb      	str	r3, [r1, #12]
100135b4:	6099      	str	r1, [r3, #8]
100135b6:	d822      	bhi.n	100135fe <_realloc_r+0x276>
100135b8:	2a13      	cmp	r2, #19
100135ba:	d91e      	bls.n	100135fa <_realloc_r+0x272>
100135bc:	6823      	ldr	r3, [r4, #0]
100135be:	f8cb 3008 	str.w	r3, [fp, #8]
100135c2:	6863      	ldr	r3, [r4, #4]
100135c4:	f8cb 300c 	str.w	r3, [fp, #12]
100135c8:	2a1b      	cmp	r2, #27
100135ca:	d83b      	bhi.n	10013644 <_realloc_r+0x2bc>
100135cc:	3408      	adds	r4, #8
100135ce:	f10b 0310 	add.w	r3, fp, #16
100135d2:	6822      	ldr	r2, [r4, #0]
100135d4:	601a      	str	r2, [r3, #0]
100135d6:	6862      	ldr	r2, [r4, #4]
100135d8:	605a      	str	r2, [r3, #4]
100135da:	68a2      	ldr	r2, [r4, #8]
100135dc:	609a      	str	r2, [r3, #8]
100135de:	4634      	mov	r4, r6
100135e0:	4657      	mov	r7, sl
100135e2:	46d9      	mov	r9, fp
100135e4:	e74a      	b.n	1001347c <_realloc_r+0xf4>
100135e6:	4621      	mov	r1, r4
100135e8:	f000 fc96 	bl	10013f18 <memmove>
100135ec:	e72f      	b.n	1001344e <_realloc_r+0xc6>
100135ee:	e9dc 1302 	ldrd	r1, r3, [ip, #8]
100135f2:	1f3a      	subs	r2, r7, #4
100135f4:	60cb      	str	r3, [r1, #12]
100135f6:	6099      	str	r1, [r3, #8]
100135f8:	e7d5      	b.n	100135a6 <_realloc_r+0x21e>
100135fa:	4633      	mov	r3, r6
100135fc:	e7e9      	b.n	100135d2 <_realloc_r+0x24a>
100135fe:	4621      	mov	r1, r4
10013600:	4630      	mov	r0, r6
10013602:	f000 fc89 	bl	10013f18 <memmove>
10013606:	e7ea      	b.n	100135de <_realloc_r+0x256>
10013608:	68a3      	ldr	r3, [r4, #8]
1001360a:	6083      	str	r3, [r0, #8]
1001360c:	68e3      	ldr	r3, [r4, #12]
1001360e:	60c3      	str	r3, [r0, #12]
10013610:	2a24      	cmp	r2, #36	@ 0x24
10013612:	d027      	beq.n	10013664 <_realloc_r+0x2dc>
10013614:	f104 0210 	add.w	r2, r4, #16
10013618:	f100 0310 	add.w	r3, r0, #16
1001361c:	e711      	b.n	10013442 <_realloc_r+0xba>
1001361e:	eb09 0105 	add.w	r1, r9, r5
10013622:	6099      	str	r1, [r3, #8]
10013624:	1b53      	subs	r3, r2, r5
10013626:	f043 0301 	orr.w	r3, r3, #1
1001362a:	604b      	str	r3, [r1, #4]
1001362c:	f854 3c04 	ldr.w	r3, [r4, #-4]
10013630:	f003 0301 	and.w	r3, r3, #1
10013634:	432b      	orrs	r3, r5
10013636:	4640      	mov	r0, r8
10013638:	f844 3c04 	str.w	r3, [r4, #-4]
1001363c:	f7ff fdea 	bl	10013214 <__malloc_unlock>
10013640:	4626      	mov	r6, r4
10013642:	e72f      	b.n	100134a4 <_realloc_r+0x11c>
10013644:	68a3      	ldr	r3, [r4, #8]
10013646:	f8cb 3010 	str.w	r3, [fp, #16]
1001364a:	68e3      	ldr	r3, [r4, #12]
1001364c:	f8cb 3014 	str.w	r3, [fp, #20]
10013650:	2a24      	cmp	r2, #36	@ 0x24
10013652:	d010      	beq.n	10013676 <_realloc_r+0x2ee>
10013654:	3410      	adds	r4, #16
10013656:	f10b 0318 	add.w	r3, fp, #24
1001365a:	e7ba      	b.n	100135d2 <_realloc_r+0x24a>
1001365c:	4640      	mov	r0, r8
1001365e:	f7ff fdd9 	bl	10013214 <__malloc_unlock>
10013662:	e704      	b.n	1001346e <_realloc_r+0xe6>
10013664:	6923      	ldr	r3, [r4, #16]
10013666:	6103      	str	r3, [r0, #16]
10013668:	6961      	ldr	r1, [r4, #20]
1001366a:	6141      	str	r1, [r0, #20]
1001366c:	f104 0218 	add.w	r2, r4, #24
10013670:	f100 0318 	add.w	r3, r0, #24
10013674:	e6e5      	b.n	10013442 <_realloc_r+0xba>
10013676:	6923      	ldr	r3, [r4, #16]
10013678:	f8cb 3018 	str.w	r3, [fp, #24]
1001367c:	6963      	ldr	r3, [r4, #20]
1001367e:	f8cb 301c 	str.w	r3, [fp, #28]
10013682:	3418      	adds	r4, #24
10013684:	f10b 0320 	add.w	r3, fp, #32
10013688:	e7a3      	b.n	100135d2 <_realloc_r+0x24a>
1001368a:	4632      	mov	r2, r6
1001368c:	e760      	b.n	10013550 <_realloc_r+0x1c8>
1001368e:	4621      	mov	r1, r4
10013690:	4630      	mov	r0, r6
10013692:	f000 fc41 	bl	10013f18 <memmove>
10013696:	4b07      	ldr	r3, [pc, #28]	@ (100136b4 <_realloc_r+0x32c>)
10013698:	e760      	b.n	1001355c <_realloc_r+0x1d4>
1001369a:	68a1      	ldr	r1, [r4, #8]
1001369c:	f8cb 1010 	str.w	r1, [fp, #16]
100136a0:	68e1      	ldr	r1, [r4, #12]
100136a2:	f8cb 1014 	str.w	r1, [fp, #20]
100136a6:	2a24      	cmp	r2, #36	@ 0x24
100136a8:	d006      	beq.n	100136b8 <_realloc_r+0x330>
100136aa:	3410      	adds	r4, #16
100136ac:	f10b 0218 	add.w	r2, fp, #24
100136b0:	e74e      	b.n	10013550 <_realloc_r+0x1c8>
100136b2:	bf00      	nop
100136b4:	20000040 	.word	0x20000040
100136b8:	6922      	ldr	r2, [r4, #16]
100136ba:	f8cb 2018 	str.w	r2, [fp, #24]
100136be:	6962      	ldr	r2, [r4, #20]
100136c0:	f8cb 201c 	str.w	r2, [fp, #28]
100136c4:	3418      	adds	r4, #24
100136c6:	f10b 0220 	add.w	r2, fp, #32
100136ca:	e741      	b.n	10013550 <_realloc_r+0x1c8>

100136cc <__sflush_r>:
100136cc:	f9b1 200c 	ldrsh.w	r2, [r1, #12]
100136d0:	e92d 41f0 	stmdb	sp!, {r4, r5, r6, r7, r8, lr}
100136d4:	460c      	mov	r4, r1
100136d6:	0711      	lsls	r1, r2, #28
100136d8:	4680      	mov	r8, r0
100136da:	d44b      	bmi.n	10013774 <__sflush_r+0xa8>
100136dc:	6861      	ldr	r1, [r4, #4]
100136de:	f442 6300 	orr.w	r3, r2, #2048	@ 0x800
100136e2:	2900      	cmp	r1, #0
100136e4:	81a3      	strh	r3, [r4, #12]
100136e6:	dd60      	ble.n	100137aa <__sflush_r+0xde>
100136e8:	6aa5      	ldr	r5, [r4, #40]	@ 0x28
100136ea:	2d00      	cmp	r5, #0
100136ec:	d03f      	beq.n	1001376e <__sflush_r+0xa2>
100136ee:	2100      	movs	r1, #0
100136f0:	f412 5280 	ands.w	r2, r2, #4096	@ 0x1000
100136f4:	f8d8 6000 	ldr.w	r6, [r8]
100136f8:	f8c8 1000 	str.w	r1, [r8]
100136fc:	69e1      	ldr	r1, [r4, #28]
100136fe:	d161      	bne.n	100137c4 <__sflush_r+0xf8>
10013700:	2301      	movs	r3, #1
10013702:	4640      	mov	r0, r8
10013704:	47a8      	blx	r5
10013706:	1c43      	adds	r3, r0, #1
10013708:	4602      	mov	r2, r0
1001370a:	d06b      	beq.n	100137e4 <__sflush_r+0x118>
1001370c:	f9b4 300c 	ldrsh.w	r3, [r4, #12]
10013710:	6aa5      	ldr	r5, [r4, #40]	@ 0x28
10013712:	69e1      	ldr	r1, [r4, #28]
10013714:	075f      	lsls	r7, r3, #29
10013716:	d505      	bpl.n	10013724 <__sflush_r+0x58>
10013718:	6863      	ldr	r3, [r4, #4]
1001371a:	1ad2      	subs	r2, r2, r3
1001371c:	6b23      	ldr	r3, [r4, #48]	@ 0x30
1001371e:	b10b      	cbz	r3, 10013724 <__sflush_r+0x58>
10013720:	6be3      	ldr	r3, [r4, #60]	@ 0x3c
10013722:	1ad2      	subs	r2, r2, r3
10013724:	2300      	movs	r3, #0
10013726:	4640      	mov	r0, r8
10013728:	47a8      	blx	r5
1001372a:	1c45      	adds	r5, r0, #1
1001372c:	d14c      	bne.n	100137c8 <__sflush_r+0xfc>
1001372e:	f8d8 1000 	ldr.w	r1, [r8]
10013732:	291d      	cmp	r1, #29
10013734:	d83d      	bhi.n	100137b2 <__sflush_r+0xe6>
10013736:	4a32      	ldr	r2, [pc, #200]	@ (10013800 <__sflush_r+0x134>)
10013738:	f9b4 300c 	ldrsh.w	r3, [r4, #12]
1001373c:	410a      	asrs	r2, r1
1001373e:	f012 0201 	ands.w	r2, r2, #1
10013742:	d138      	bne.n	100137b6 <__sflush_r+0xea>
10013744:	6062      	str	r2, [r4, #4]
10013746:	6922      	ldr	r2, [r4, #16]
10013748:	6022      	str	r2, [r4, #0]
1001374a:	f423 6200 	bic.w	r2, r3, #2048	@ 0x800
1001374e:	81a2      	strh	r2, [r4, #12]
10013750:	04da      	lsls	r2, r3, #19
10013752:	d452      	bmi.n	100137fa <__sflush_r+0x12e>
10013754:	6b21      	ldr	r1, [r4, #48]	@ 0x30
10013756:	f8c8 6000 	str.w	r6, [r8]
1001375a:	b141      	cbz	r1, 1001376e <__sflush_r+0xa2>
1001375c:	f104 0340 	add.w	r3, r4, #64	@ 0x40
10013760:	4299      	cmp	r1, r3
10013762:	d002      	beq.n	1001376a <__sflush_r+0x9e>
10013764:	4640      	mov	r0, r8
10013766:	f001 ff45 	bl	100155f4 <_free_r>
1001376a:	2300      	movs	r3, #0
1001376c:	6323      	str	r3, [r4, #48]	@ 0x30
1001376e:	2000      	movs	r0, #0
10013770:	e8bd 81f0 	ldmia.w	sp!, {r4, r5, r6, r7, r8, pc}
10013774:	6926      	ldr	r6, [r4, #16]
10013776:	2e00      	cmp	r6, #0
10013778:	d0f9      	beq.n	1001376e <__sflush_r+0xa2>
1001377a:	6825      	ldr	r5, [r4, #0]
1001377c:	6026      	str	r6, [r4, #0]
1001377e:	0791      	lsls	r1, r2, #30
10013780:	bf0c      	ite	eq
10013782:	6963      	ldreq	r3, [r4, #20]
10013784:	2300      	movne	r3, #0
10013786:	1bad      	subs	r5, r5, r6
10013788:	60a3      	str	r3, [r4, #8]
1001378a:	e00b      	b.n	100137a4 <__sflush_r+0xd8>
1001378c:	462b      	mov	r3, r5
1001378e:	4632      	mov	r2, r6
10013790:	69e1      	ldr	r1, [r4, #28]
10013792:	6a67      	ldr	r7, [r4, #36]	@ 0x24
10013794:	4640      	mov	r0, r8
10013796:	47b8      	blx	r7
10013798:	f1b0 0c00 	subs.w	ip, r0, #0
1001379c:	eba5 050c 	sub.w	r5, r5, ip
100137a0:	4466      	add	r6, ip
100137a2:	dd06      	ble.n	100137b2 <__sflush_r+0xe6>
100137a4:	2d00      	cmp	r5, #0
100137a6:	dcf1      	bgt.n	1001378c <__sflush_r+0xc0>
100137a8:	e7e1      	b.n	1001376e <__sflush_r+0xa2>
100137aa:	6be1      	ldr	r1, [r4, #60]	@ 0x3c
100137ac:	2900      	cmp	r1, #0
100137ae:	dc9b      	bgt.n	100136e8 <__sflush_r+0x1c>
100137b0:	e7dd      	b.n	1001376e <__sflush_r+0xa2>
100137b2:	f9b4 300c 	ldrsh.w	r3, [r4, #12]
100137b6:	f043 0340 	orr.w	r3, r3, #64	@ 0x40
100137ba:	81a3      	strh	r3, [r4, #12]
100137bc:	f04f 30ff 	mov.w	r0, #4294967295	@ 0xffffffff
100137c0:	e8bd 81f0 	ldmia.w	sp!, {r4, r5, r6, r7, r8, pc}
100137c4:	6d22      	ldr	r2, [r4, #80]	@ 0x50
100137c6:	e7a5      	b.n	10013714 <__sflush_r+0x48>
100137c8:	f9b4 300c 	ldrsh.w	r3, [r4, #12]
100137cc:	6922      	ldr	r2, [r4, #16]
100137ce:	6022      	str	r2, [r4, #0]
100137d0:	f423 6200 	bic.w	r2, r3, #2048	@ 0x800
100137d4:	81a2      	strh	r2, [r4, #12]
100137d6:	04db      	lsls	r3, r3, #19
100137d8:	f04f 0200 	mov.w	r2, #0
100137dc:	6062      	str	r2, [r4, #4]
100137de:	d5b9      	bpl.n	10013754 <__sflush_r+0x88>
100137e0:	6520      	str	r0, [r4, #80]	@ 0x50
100137e2:	e7b7      	b.n	10013754 <__sflush_r+0x88>
100137e4:	f8d8 3000 	ldr.w	r3, [r8]
100137e8:	2b00      	cmp	r3, #0
100137ea:	d08f      	beq.n	1001370c <__sflush_r+0x40>
100137ec:	2b1d      	cmp	r3, #29
100137ee:	d001      	beq.n	100137f4 <__sflush_r+0x128>
100137f0:	2b16      	cmp	r3, #22
100137f2:	d1de      	bne.n	100137b2 <__sflush_r+0xe6>
100137f4:	f8c8 6000 	str.w	r6, [r8]
100137f8:	e7b9      	b.n	1001376e <__sflush_r+0xa2>
100137fa:	2900      	cmp	r1, #0
100137fc:	d1aa      	bne.n	10013754 <__sflush_r+0x88>
100137fe:	e7ef      	b.n	100137e0 <__sflush_r+0x114>
10013800:	dfbffffe 	.word	0xdfbffffe

10013804 <_fflush_r>:
10013804:	b538      	push	{r3, r4, r5, lr}
10013806:	460c      	mov	r4, r1
10013808:	4605      	mov	r5, r0
1001380a:	b108      	cbz	r0, 10013810 <_fflush_r+0xc>
1001380c:	6b43      	ldr	r3, [r0, #52]	@ 0x34
1001380e:	b303      	cbz	r3, 10013852 <_fflush_r+0x4e>
10013810:	f9b4 000c 	ldrsh.w	r0, [r4, #12]
10013814:	b188      	cbz	r0, 1001383a <_fflush_r+0x36>
10013816:	6e63      	ldr	r3, [r4, #100]	@ 0x64
10013818:	07db      	lsls	r3, r3, #31
1001381a:	d401      	bmi.n	10013820 <_fflush_r+0x1c>
1001381c:	0581      	lsls	r1, r0, #22
1001381e:	d50f      	bpl.n	10013840 <_fflush_r+0x3c>
10013820:	4628      	mov	r0, r5
10013822:	4621      	mov	r1, r4
10013824:	f7ff ff52 	bl	100136cc <__sflush_r>
10013828:	6e63      	ldr	r3, [r4, #100]	@ 0x64
1001382a:	07da      	lsls	r2, r3, #31
1001382c:	4605      	mov	r5, r0
1001382e:	d402      	bmi.n	10013836 <_fflush_r+0x32>
10013830:	89a3      	ldrh	r3, [r4, #12]
10013832:	059b      	lsls	r3, r3, #22
10013834:	d508      	bpl.n	10013848 <_fflush_r+0x44>
10013836:	4628      	mov	r0, r5
10013838:	bd38      	pop	{r3, r4, r5, pc}
1001383a:	4605      	mov	r5, r0
1001383c:	4628      	mov	r0, r5
1001383e:	bd38      	pop	{r3, r4, r5, pc}
10013840:	6da0      	ldr	r0, [r4, #88]	@ 0x58
10013842:	f000 fce1 	bl	10014208 <__retarget_lock_acquire_recursive>
10013846:	e7eb      	b.n	10013820 <_fflush_r+0x1c>
10013848:	6da0      	ldr	r0, [r4, #88]	@ 0x58
1001384a:	f000 fcdf 	bl	1001420c <__retarget_lock_release_recursive>
1001384e:	4628      	mov	r0, r5
10013850:	bd38      	pop	{r3, r4, r5, pc}
10013852:	f000 f8c5 	bl	100139e0 <__sinit>
10013856:	e7db      	b.n	10013810 <_fflush_r+0xc>

10013858 <sprintf>:
10013858:	b40e      	push	{r1, r2, r3}
1001385a:	b510      	push	{r4, lr}
1001385c:	b09d      	sub	sp, #116	@ 0x74
1001385e:	f06f 4100 	mvn.w	r1, #2147483648	@ 0x80000000
10013862:	ab1f      	add	r3, sp, #124	@ 0x7c
10013864:	9104      	str	r1, [sp, #16]
10013866:	9107      	str	r1, [sp, #28]
10013868:	4909      	ldr	r1, [pc, #36]	@ (10013890 <sprintf+0x38>)
1001386a:	f853 2b04 	ldr.w	r2, [r3], #4
1001386e:	9002      	str	r0, [sp, #8]
10013870:	9006      	str	r0, [sp, #24]
10013872:	4c08      	ldr	r4, [pc, #32]	@ (10013894 <sprintf+0x3c>)
10013874:	6808      	ldr	r0, [r1, #0]
10013876:	9301      	str	r3, [sp, #4]
10013878:	a902      	add	r1, sp, #8
1001387a:	9405      	str	r4, [sp, #20]
1001387c:	f001 ffd0 	bl	10015820 <_svfprintf_r>
10013880:	9b02      	ldr	r3, [sp, #8]
10013882:	2200      	movs	r2, #0
10013884:	701a      	strb	r2, [r3, #0]
10013886:	b01d      	add	sp, #116	@ 0x74
10013888:	e8bd 4010 	ldmia.w	sp!, {r4, lr}
1001388c:	b003      	add	sp, #12
1001388e:	4770      	bx	lr
10013890:	200005c0 	.word	0x200005c0
10013894:	ffff0208 	.word	0xffff0208

10013898 <stdio_exit_handler>:
10013898:	4a02      	ldr	r2, [pc, #8]	@ (100138a4 <stdio_exit_handler+0xc>)
1001389a:	4903      	ldr	r1, [pc, #12]	@ (100138a8 <stdio_exit_handler+0x10>)
1001389c:	4803      	ldr	r0, [pc, #12]	@ (100138ac <stdio_exit_handler+0x14>)
1001389e:	f000 ba49 	b.w	10013d34 <_fwalk_sglue>
100138a2:	bf00      	nop
100138a4:	20000448 	.word	0x20000448
100138a8:	100132c9 	.word	0x100132c9
100138ac:	200005c8 	.word	0x200005c8

100138b0 <cleanup_stdio>:
100138b0:	4b0c      	ldr	r3, [pc, #48]	@ (100138e4 <cleanup_stdio+0x34>)
100138b2:	6841      	ldr	r1, [r0, #4]
100138b4:	4299      	cmp	r1, r3
100138b6:	b510      	push	{r4, lr}
100138b8:	4604      	mov	r4, r0
100138ba:	d001      	beq.n	100138c0 <cleanup_stdio+0x10>
100138bc:	f7ff fd04 	bl	100132c8 <_fclose_r>
100138c0:	68a1      	ldr	r1, [r4, #8]
100138c2:	4b09      	ldr	r3, [pc, #36]	@ (100138e8 <cleanup_stdio+0x38>)
100138c4:	4299      	cmp	r1, r3
100138c6:	d002      	beq.n	100138ce <cleanup_stdio+0x1e>
100138c8:	4620      	mov	r0, r4
100138ca:	f7ff fcfd 	bl	100132c8 <_fclose_r>
100138ce:	68e1      	ldr	r1, [r4, #12]
100138d0:	4b06      	ldr	r3, [pc, #24]	@ (100138ec <cleanup_stdio+0x3c>)
100138d2:	4299      	cmp	r1, r3
100138d4:	d004      	beq.n	100138e0 <cleanup_stdio+0x30>
100138d6:	4620      	mov	r0, r4
100138d8:	e8bd 4010 	ldmia.w	sp!, {r4, lr}
100138dc:	f7ff bcf4 	b.w	100132c8 <_fclose_r>
100138e0:	bd10      	pop	{r4, pc}
100138e2:	bf00      	nop
100138e4:	20001060 	.word	0x20001060
100138e8:	200010c8 	.word	0x200010c8
100138ec:	20001130 	.word	0x20001130

100138f0 <global_stdio_init.part.0>:
100138f0:	e92d 43f8 	stmdb	sp!, {r3, r4, r5, r6, r7, r8, r9, lr}
100138f4:	4c31      	ldr	r4, [pc, #196]	@ (100139bc <global_stdio_init.part.0+0xcc>)
100138f6:	4b32      	ldr	r3, [pc, #200]	@ (100139c0 <global_stdio_init.part.0+0xd0>)
100138f8:	4832      	ldr	r0, [pc, #200]	@ (100139c4 <global_stdio_init.part.0+0xd4>)
100138fa:	f8df 90dc 	ldr.w	r9, [pc, #220]	@ 100139d8 <global_stdio_init.part.0+0xe8>
100138fe:	f8df 80dc 	ldr.w	r8, [pc, #220]	@ 100139dc <global_stdio_init.part.0+0xec>
10013902:	4f31      	ldr	r7, [pc, #196]	@ (100139c8 <global_stdio_init.part.0+0xd8>)
10013904:	6018      	str	r0, [r3, #0]
10013906:	2500      	movs	r5, #0
10013908:	4629      	mov	r1, r5
1001390a:	2304      	movs	r3, #4
1001390c:	2208      	movs	r2, #8
1001390e:	f104 005c 	add.w	r0, r4, #92	@ 0x5c
10013912:	4e2e      	ldr	r6, [pc, #184]	@ (100139cc <global_stdio_init.part.0+0xdc>)
10013914:	60e3      	str	r3, [r4, #12]
10013916:	e9c4 5500 	strd	r5, r5, [r4]
1001391a:	e9c4 5504 	strd	r5, r5, [r4, #16]
1001391e:	60a5      	str	r5, [r4, #8]
10013920:	6665      	str	r5, [r4, #100]	@ 0x64
10013922:	61a5      	str	r5, [r4, #24]
10013924:	f000 fb78 	bl	10014018 <memset>
10013928:	f104 0058 	add.w	r0, r4, #88	@ 0x58
1001392c:	e9c4 4907 	strd	r4, r9, [r4, #28]
10013930:	e9c4 8709 	strd	r8, r7, [r4, #36]	@ 0x24
10013934:	62e6      	str	r6, [r4, #44]	@ 0x2c
10013936:	f000 fc63 	bl	10014200 <__retarget_lock_init_recursive>
1001393a:	4629      	mov	r1, r5
1001393c:	4b24      	ldr	r3, [pc, #144]	@ (100139d0 <global_stdio_init.part.0+0xe0>)
1001393e:	6763      	str	r3, [r4, #116]	@ 0x74
10013940:	2208      	movs	r2, #8
10013942:	f104 00c4 	add.w	r0, r4, #196	@ 0xc4
10013946:	e9c4 551a 	strd	r5, r5, [r4, #104]	@ 0x68
1001394a:	e9c4 551e 	strd	r5, r5, [r4, #120]	@ 0x78
1001394e:	6725      	str	r5, [r4, #112]	@ 0x70
10013950:	f8c4 50cc 	str.w	r5, [r4, #204]	@ 0xcc
10013954:	f8c4 5080 	str.w	r5, [r4, #128]	@ 0x80
10013958:	f000 fb5e 	bl	10014018 <memset>
1001395c:	f104 0368 	add.w	r3, r4, #104	@ 0x68
10013960:	f104 00c0 	add.w	r0, r4, #192	@ 0xc0
10013964:	f8c4 3084 	str.w	r3, [r4, #132]	@ 0x84
10013968:	e9c4 9822 	strd	r9, r8, [r4, #136]	@ 0x88
1001396c:	e9c4 7624 	strd	r7, r6, [r4, #144]	@ 0x90
10013970:	f000 fc46 	bl	10014200 <__retarget_lock_init_recursive>
10013974:	4b17      	ldr	r3, [pc, #92]	@ (100139d4 <global_stdio_init.part.0+0xe4>)
10013976:	f8c4 30dc 	str.w	r3, [r4, #220]	@ 0xdc
1001397a:	4629      	mov	r1, r5
1001397c:	f504 7096 	add.w	r0, r4, #300	@ 0x12c
10013980:	2208      	movs	r2, #8
10013982:	e9c4 5534 	strd	r5, r5, [r4, #208]	@ 0xd0
10013986:	e9c4 5538 	strd	r5, r5, [r4, #224]	@ 0xe0
1001398a:	f8c4 50d8 	str.w	r5, [r4, #216]	@ 0xd8
1001398e:	f8c4 5134 	str.w	r5, [r4, #308]	@ 0x134
10013992:	f8c4 50e8 	str.w	r5, [r4, #232]	@ 0xe8
10013996:	f000 fb3f 	bl	10014018 <memset>
1001399a:	f104 03d0 	add.w	r3, r4, #208	@ 0xd0
1001399e:	e9c4 873d 	strd	r8, r7, [r4, #244]	@ 0xf4
100139a2:	f8c4 90f0 	str.w	r9, [r4, #240]	@ 0xf0
100139a6:	f504 7094 	add.w	r0, r4, #296	@ 0x128
100139aa:	f8c4 60fc 	str.w	r6, [r4, #252]	@ 0xfc
100139ae:	f8c4 30ec 	str.w	r3, [r4, #236]	@ 0xec
100139b2:	e8bd 43f8 	ldmia.w	sp!, {r3, r4, r5, r6, r7, r8, r9, lr}
100139b6:	f000 bc23 	b.w	10014200 <__retarget_lock_init_recursive>
100139ba:	bf00      	nop
100139bc:	20001060 	.word	0x20001060
100139c0:	20001198 	.word	0x20001198
100139c4:	10013899 	.word	0x10013899
100139c8:	10017c75 	.word	0x10017c75
100139cc:	10017c99 	.word	0x10017c99
100139d0:	00010009 	.word	0x00010009
100139d4:	00020012 	.word	0x00020012
100139d8:	10017c11 	.word	0x10017c11
100139dc:	10017c35 	.word	0x10017c35

100139e0 <__sinit>:
100139e0:	b510      	push	{r4, lr}
100139e2:	4604      	mov	r4, r0
100139e4:	480a      	ldr	r0, [pc, #40]	@ (10013a10 <__sinit+0x30>)
100139e6:	f000 fc0f 	bl	10014208 <__retarget_lock_acquire_recursive>
100139ea:	6b63      	ldr	r3, [r4, #52]	@ 0x34
100139ec:	b923      	cbnz	r3, 100139f8 <__sinit+0x18>
100139ee:	4b09      	ldr	r3, [pc, #36]	@ (10013a14 <__sinit+0x34>)
100139f0:	4a09      	ldr	r2, [pc, #36]	@ (10013a18 <__sinit+0x38>)
100139f2:	681b      	ldr	r3, [r3, #0]
100139f4:	6362      	str	r2, [r4, #52]	@ 0x34
100139f6:	b123      	cbz	r3, 10013a02 <__sinit+0x22>
100139f8:	e8bd 4010 	ldmia.w	sp!, {r4, lr}
100139fc:	4804      	ldr	r0, [pc, #16]	@ (10013a10 <__sinit+0x30>)
100139fe:	f000 bc05 	b.w	1001420c <__retarget_lock_release_recursive>
10013a02:	f7ff ff75 	bl	100138f0 <global_stdio_init.part.0>
10013a06:	e8bd 4010 	ldmia.w	sp!, {r4, lr}
10013a0a:	4801      	ldr	r0, [pc, #4]	@ (10013a10 <__sinit+0x30>)
10013a0c:	f000 bbfe 	b.w	1001420c <__retarget_lock_release_recursive>
10013a10:	200011a4 	.word	0x200011a4
10013a14:	20001198 	.word	0x20001198
10013a18:	100138b1 	.word	0x100138b1

10013a1c <__sfp_lock_acquire>:
10013a1c:	4801      	ldr	r0, [pc, #4]	@ (10013a24 <__sfp_lock_acquire+0x8>)
10013a1e:	f000 bbf3 	b.w	10014208 <__retarget_lock_acquire_recursive>
10013a22:	bf00      	nop
10013a24:	200011a4 	.word	0x200011a4

10013a28 <__sfp_lock_release>:
10013a28:	4801      	ldr	r0, [pc, #4]	@ (10013a30 <__sfp_lock_release+0x8>)
10013a2a:	f000 bbef 	b.w	1001420c <__retarget_lock_release_recursive>
10013a2e:	bf00      	nop
10013a30:	200011a4 	.word	0x200011a4

10013a34 <__sfvwrite_r>:
10013a34:	6893      	ldr	r3, [r2, #8]
10013a36:	2b00      	cmp	r3, #0
10013a38:	f000 80f8 	beq.w	10013c2c <__sfvwrite_r+0x1f8>
10013a3c:	e92d 4ff0 	stmdb	sp!, {r4, r5, r6, r7, r8, r9, sl, fp, lr}
10013a40:	f9b1 c00c 	ldrsh.w	ip, [r1, #12]
10013a44:	f01c 0f08 	tst.w	ip, #8
10013a48:	b083      	sub	sp, #12
10013a4a:	4690      	mov	r8, r2
10013a4c:	4681      	mov	r9, r0
10013a4e:	460c      	mov	r4, r1
10013a50:	d031      	beq.n	10013ab6 <__sfvwrite_r+0x82>
10013a52:	690b      	ldr	r3, [r1, #16]
10013a54:	b37b      	cbz	r3, 10013ab6 <__sfvwrite_r+0x82>
10013a56:	f01c 0702 	ands.w	r7, ip, #2
10013a5a:	f8d8 6000 	ldr.w	r6, [r8]
10013a5e:	d038      	beq.n	10013ad2 <__sfvwrite_r+0x9e>
10013a60:	2700      	movs	r7, #0
10013a62:	f8d4 b024 	ldr.w	fp, [r4, #36]	@ 0x24
10013a66:	69e1      	ldr	r1, [r4, #28]
10013a68:	f8df a2c4 	ldr.w	sl, [pc, #708]	@ 10013d30 <__sfvwrite_r+0x2fc>
10013a6c:	463d      	mov	r5, r7
10013a6e:	4555      	cmp	r5, sl
10013a70:	462b      	mov	r3, r5
10013a72:	463a      	mov	r2, r7
10013a74:	bf28      	it	cs
10013a76:	4653      	movcs	r3, sl
10013a78:	4648      	mov	r0, r9
10013a7a:	b1c5      	cbz	r5, 10013aae <__sfvwrite_r+0x7a>
10013a7c:	47d8      	blx	fp
10013a7e:	2800      	cmp	r0, #0
10013a80:	f340 80ca 	ble.w	10013c18 <__sfvwrite_r+0x1e4>
10013a84:	f8d8 3008 	ldr.w	r3, [r8, #8]
10013a88:	1a1b      	subs	r3, r3, r0
10013a8a:	4407      	add	r7, r0
10013a8c:	1a2d      	subs	r5, r5, r0
10013a8e:	f8c8 3008 	str.w	r3, [r8, #8]
10013a92:	2b00      	cmp	r3, #0
10013a94:	f000 80b6 	beq.w	10013c04 <__sfvwrite_r+0x1d0>
10013a98:	4555      	cmp	r5, sl
10013a9a:	462b      	mov	r3, r5
10013a9c:	f8d4 b024 	ldr.w	fp, [r4, #36]	@ 0x24
10013aa0:	69e1      	ldr	r1, [r4, #28]
10013aa2:	bf28      	it	cs
10013aa4:	4653      	movcs	r3, sl
10013aa6:	463a      	mov	r2, r7
10013aa8:	4648      	mov	r0, r9
10013aaa:	2d00      	cmp	r5, #0
10013aac:	d1e6      	bne.n	10013a7c <__sfvwrite_r+0x48>
10013aae:	e9d6 7500 	ldrd	r7, r5, [r6]
10013ab2:	3608      	adds	r6, #8
10013ab4:	e7db      	b.n	10013a6e <__sfvwrite_r+0x3a>
10013ab6:	4621      	mov	r1, r4
10013ab8:	4648      	mov	r0, r9
10013aba:	f000 f95f 	bl	10013d7c <__swsetup_r>
10013abe:	2800      	cmp	r0, #0
10013ac0:	f040 80af 	bne.w	10013c22 <__sfvwrite_r+0x1ee>
10013ac4:	f9b4 c00c 	ldrsh.w	ip, [r4, #12]
10013ac8:	f8d8 6000 	ldr.w	r6, [r8]
10013acc:	f01c 0702 	ands.w	r7, ip, #2
10013ad0:	d1c6      	bne.n	10013a60 <__sfvwrite_r+0x2c>
10013ad2:	f01c 0a01 	ands.w	sl, ip, #1
10013ad6:	d163      	bne.n	10013ba0 <__sfvwrite_r+0x16c>
10013ad8:	6823      	ldr	r3, [r4, #0]
10013ada:	68a1      	ldr	r1, [r4, #8]
10013adc:	4657      	mov	r7, sl
10013ade:	4618      	mov	r0, r3
10013ae0:	468b      	mov	fp, r1
10013ae2:	2f00      	cmp	r7, #0
10013ae4:	d058      	beq.n	10013b98 <__sfvwrite_r+0x164>
10013ae6:	f41c 7f00 	tst.w	ip, #512	@ 0x200
10013aea:	f000 80b5 	beq.w	10013c58 <__sfvwrite_r+0x224>
10013aee:	42b9      	cmp	r1, r7
10013af0:	460a      	mov	r2, r1
10013af2:	f200 80e1 	bhi.w	10013cb8 <__sfvwrite_r+0x284>
10013af6:	f41c 6f90 	tst.w	ip, #1152	@ 0x480
10013afa:	d02f      	beq.n	10013b5c <__sfvwrite_r+0x128>
10013afc:	6921      	ldr	r1, [r4, #16]
10013afe:	6962      	ldr	r2, [r4, #20]
10013b00:	1a5d      	subs	r5, r3, r1
10013b02:	eb02 0242 	add.w	r2, r2, r2, lsl #1
10013b06:	eb02 72d2 	add.w	r2, r2, r2, lsr #31
10013b0a:	1c6b      	adds	r3, r5, #1
10013b0c:	1052      	asrs	r2, r2, #1
10013b0e:	443b      	add	r3, r7
10013b10:	4293      	cmp	r3, r2
10013b12:	bf92      	itee	ls
10013b14:	4693      	movls	fp, r2
10013b16:	469b      	movhi	fp, r3
10013b18:	461a      	movhi	r2, r3
10013b1a:	f41c 6f80 	tst.w	ip, #1024	@ 0x400
10013b1e:	f000 80ea 	beq.w	10013cf6 <__sfvwrite_r+0x2c2>
10013b22:	4611      	mov	r1, r2
10013b24:	4648      	mov	r0, r9
10013b26:	f7fc f9dd 	bl	1000fee4 <_malloc_r>
10013b2a:	2800      	cmp	r0, #0
10013b2c:	f000 80f9 	beq.w	10013d22 <__sfvwrite_r+0x2ee>
10013b30:	462a      	mov	r2, r5
10013b32:	6921      	ldr	r1, [r4, #16]
10013b34:	9000      	str	r0, [sp, #0]
10013b36:	f000 fbbb 	bl	100142b0 <memcpy>
10013b3a:	89a2      	ldrh	r2, [r4, #12]
10013b3c:	9b00      	ldr	r3, [sp, #0]
10013b3e:	f422 6290 	bic.w	r2, r2, #1152	@ 0x480
10013b42:	f042 0280 	orr.w	r2, r2, #128	@ 0x80
10013b46:	81a2      	strh	r2, [r4, #12]
10013b48:	1958      	adds	r0, r3, r5
10013b4a:	ebab 0505 	sub.w	r5, fp, r5
10013b4e:	f8c4 b014 	str.w	fp, [r4, #20]
10013b52:	6123      	str	r3, [r4, #16]
10013b54:	60a5      	str	r5, [r4, #8]
10013b56:	6020      	str	r0, [r4, #0]
10013b58:	46bb      	mov	fp, r7
10013b5a:	463a      	mov	r2, r7
10013b5c:	4651      	mov	r1, sl
10013b5e:	9200      	str	r2, [sp, #0]
10013b60:	f000 f9da 	bl	10013f18 <memmove>
10013b64:	68a1      	ldr	r1, [r4, #8]
10013b66:	6823      	ldr	r3, [r4, #0]
10013b68:	9a00      	ldr	r2, [sp, #0]
10013b6a:	eba1 010b 	sub.w	r1, r1, fp
10013b6e:	441a      	add	r2, r3
10013b70:	463d      	mov	r5, r7
10013b72:	60a1      	str	r1, [r4, #8]
10013b74:	6022      	str	r2, [r4, #0]
10013b76:	2700      	movs	r7, #0
10013b78:	f8d8 3008 	ldr.w	r3, [r8, #8]
10013b7c:	1b5b      	subs	r3, r3, r5
10013b7e:	44aa      	add	sl, r5
10013b80:	f8c8 3008 	str.w	r3, [r8, #8]
10013b84:	2b00      	cmp	r3, #0
10013b86:	d03d      	beq.n	10013c04 <__sfvwrite_r+0x1d0>
10013b88:	6823      	ldr	r3, [r4, #0]
10013b8a:	68a1      	ldr	r1, [r4, #8]
10013b8c:	f9b4 c00c 	ldrsh.w	ip, [r4, #12]
10013b90:	4618      	mov	r0, r3
10013b92:	468b      	mov	fp, r1
10013b94:	2f00      	cmp	r7, #0
10013b96:	d1a6      	bne.n	10013ae6 <__sfvwrite_r+0xb2>
10013b98:	e9d6 a700 	ldrd	sl, r7, [r6]
10013b9c:	3608      	adds	r6, #8
10013b9e:	e79e      	b.n	10013ade <__sfvwrite_r+0xaa>
10013ba0:	4638      	mov	r0, r7
10013ba2:	46bb      	mov	fp, r7
10013ba4:	463d      	mov	r5, r7
10013ba6:	9700      	str	r7, [sp, #0]
10013ba8:	2d00      	cmp	r5, #0
10013baa:	d041      	beq.n	10013c30 <__sfvwrite_r+0x1fc>
10013bac:	2800      	cmp	r0, #0
10013bae:	d046      	beq.n	10013c3e <__sfvwrite_r+0x20a>
10013bb0:	9a00      	ldr	r2, [sp, #0]
10013bb2:	6820      	ldr	r0, [r4, #0]
10013bb4:	68a1      	ldr	r1, [r4, #8]
10013bb6:	e9d4 7304 	ldrd	r7, r3, [r4, #16]
10013bba:	42aa      	cmp	r2, r5
10013bbc:	bf28      	it	cs
10013bbe:	462a      	movcs	r2, r5
10013bc0:	42b8      	cmp	r0, r7
10013bc2:	d904      	bls.n	10013bce <__sfvwrite_r+0x19a>
10013bc4:	eb01 0a03 	add.w	sl, r1, r3
10013bc8:	4552      	cmp	r2, sl
10013bca:	f300 8085 	bgt.w	10013cd8 <__sfvwrite_r+0x2a4>
10013bce:	4293      	cmp	r3, r2
10013bd0:	dc75      	bgt.n	10013cbe <__sfvwrite_r+0x28a>
10013bd2:	69e1      	ldr	r1, [r4, #28]
10013bd4:	6a67      	ldr	r7, [r4, #36]	@ 0x24
10013bd6:	465a      	mov	r2, fp
10013bd8:	4648      	mov	r0, r9
10013bda:	47b8      	blx	r7
10013bdc:	f1b0 0a00 	subs.w	sl, r0, #0
10013be0:	dd1a      	ble.n	10013c18 <__sfvwrite_r+0x1e4>
10013be2:	9b00      	ldr	r3, [sp, #0]
10013be4:	ebb3 030a 	subs.w	r3, r3, sl
10013be8:	9300      	str	r3, [sp, #0]
10013bea:	d00f      	beq.n	10013c0c <__sfvwrite_r+0x1d8>
10013bec:	2001      	movs	r0, #1
10013bee:	f8d8 3008 	ldr.w	r3, [r8, #8]
10013bf2:	eba3 030a 	sub.w	r3, r3, sl
10013bf6:	44d3      	add	fp, sl
10013bf8:	eba5 050a 	sub.w	r5, r5, sl
10013bfc:	f8c8 3008 	str.w	r3, [r8, #8]
10013c00:	2b00      	cmp	r3, #0
10013c02:	d1d1      	bne.n	10013ba8 <__sfvwrite_r+0x174>
10013c04:	2000      	movs	r0, #0
10013c06:	b003      	add	sp, #12
10013c08:	e8bd 8ff0 	ldmia.w	sp!, {r4, r5, r6, r7, r8, r9, sl, fp, pc}
10013c0c:	4621      	mov	r1, r4
10013c0e:	4648      	mov	r0, r9
10013c10:	f7ff fdf8 	bl	10013804 <_fflush_r>
10013c14:	2800      	cmp	r0, #0
10013c16:	d0ea      	beq.n	10013bee <__sfvwrite_r+0x1ba>
10013c18:	f9b4 300c 	ldrsh.w	r3, [r4, #12]
10013c1c:	f043 0340 	orr.w	r3, r3, #64	@ 0x40
10013c20:	81a3      	strh	r3, [r4, #12]
10013c22:	f04f 30ff 	mov.w	r0, #4294967295	@ 0xffffffff
10013c26:	b003      	add	sp, #12
10013c28:	e8bd 8ff0 	ldmia.w	sp!, {r4, r5, r6, r7, r8, r9, sl, fp, pc}
10013c2c:	2000      	movs	r0, #0
10013c2e:	4770      	bx	lr
10013c30:	6875      	ldr	r5, [r6, #4]
10013c32:	4633      	mov	r3, r6
10013c34:	3608      	adds	r6, #8
10013c36:	2d00      	cmp	r5, #0
10013c38:	d0fa      	beq.n	10013c30 <__sfvwrite_r+0x1fc>
10013c3a:	f8d3 b000 	ldr.w	fp, [r3]
10013c3e:	462a      	mov	r2, r5
10013c40:	210a      	movs	r1, #10
10013c42:	4658      	mov	r0, fp
10013c44:	f000 fae4 	bl	10014210 <memchr>
10013c48:	2800      	cmp	r0, #0
10013c4a:	d067      	beq.n	10013d1c <__sfvwrite_r+0x2e8>
10013c4c:	3001      	adds	r0, #1
10013c4e:	eba0 030b 	sub.w	r3, r0, fp
10013c52:	9300      	str	r3, [sp, #0]
10013c54:	461a      	mov	r2, r3
10013c56:	e7ac      	b.n	10013bb2 <__sfvwrite_r+0x17e>
10013c58:	6922      	ldr	r2, [r4, #16]
10013c5a:	429a      	cmp	r2, r3
10013c5c:	d314      	bcc.n	10013c88 <__sfvwrite_r+0x254>
10013c5e:	6962      	ldr	r2, [r4, #20]
10013c60:	42ba      	cmp	r2, r7
10013c62:	d811      	bhi.n	10013c88 <__sfvwrite_r+0x254>
10013c64:	f06f 4300 	mvn.w	r3, #2147483648	@ 0x80000000
10013c68:	42bb      	cmp	r3, r7
10013c6a:	bf28      	it	cs
10013c6c:	463b      	movcs	r3, r7
10013c6e:	6a65      	ldr	r5, [r4, #36]	@ 0x24
10013c70:	fb93 f3f2 	sdiv	r3, r3, r2
10013c74:	69e1      	ldr	r1, [r4, #28]
10013c76:	fb02 f303 	mul.w	r3, r2, r3
10013c7a:	4648      	mov	r0, r9
10013c7c:	4652      	mov	r2, sl
10013c7e:	47a8      	blx	r5
10013c80:	1e05      	subs	r5, r0, #0
10013c82:	ddc9      	ble.n	10013c18 <__sfvwrite_r+0x1e4>
10013c84:	1b7f      	subs	r7, r7, r5
10013c86:	e777      	b.n	10013b78 <__sfvwrite_r+0x144>
10013c88:	42b9      	cmp	r1, r7
10013c8a:	bf28      	it	cs
10013c8c:	4639      	movcs	r1, r7
10013c8e:	460d      	mov	r5, r1
10013c90:	4618      	mov	r0, r3
10013c92:	460a      	mov	r2, r1
10013c94:	4651      	mov	r1, sl
10013c96:	f000 f93f 	bl	10013f18 <memmove>
10013c9a:	68a1      	ldr	r1, [r4, #8]
10013c9c:	6823      	ldr	r3, [r4, #0]
10013c9e:	1b49      	subs	r1, r1, r5
10013ca0:	442b      	add	r3, r5
10013ca2:	60a1      	str	r1, [r4, #8]
10013ca4:	6023      	str	r3, [r4, #0]
10013ca6:	2900      	cmp	r1, #0
10013ca8:	d1ec      	bne.n	10013c84 <__sfvwrite_r+0x250>
10013caa:	4621      	mov	r1, r4
10013cac:	4648      	mov	r0, r9
10013cae:	f7ff fda9 	bl	10013804 <_fflush_r>
10013cb2:	2800      	cmp	r0, #0
10013cb4:	d0e6      	beq.n	10013c84 <__sfvwrite_r+0x250>
10013cb6:	e7af      	b.n	10013c18 <__sfvwrite_r+0x1e4>
10013cb8:	46bb      	mov	fp, r7
10013cba:	463a      	mov	r2, r7
10013cbc:	e74e      	b.n	10013b5c <__sfvwrite_r+0x128>
10013cbe:	4659      	mov	r1, fp
10013cc0:	9201      	str	r2, [sp, #4]
10013cc2:	f000 f929 	bl	10013f18 <memmove>
10013cc6:	9a01      	ldr	r2, [sp, #4]
10013cc8:	68a3      	ldr	r3, [r4, #8]
10013cca:	1a9b      	subs	r3, r3, r2
10013ccc:	60a3      	str	r3, [r4, #8]
10013cce:	6823      	ldr	r3, [r4, #0]
10013cd0:	4413      	add	r3, r2
10013cd2:	6023      	str	r3, [r4, #0]
10013cd4:	4692      	mov	sl, r2
10013cd6:	e784      	b.n	10013be2 <__sfvwrite_r+0x1ae>
10013cd8:	4659      	mov	r1, fp
10013cda:	4652      	mov	r2, sl
10013cdc:	f000 f91c 	bl	10013f18 <memmove>
10013ce0:	6823      	ldr	r3, [r4, #0]
10013ce2:	4453      	add	r3, sl
10013ce4:	6023      	str	r3, [r4, #0]
10013ce6:	4621      	mov	r1, r4
10013ce8:	4648      	mov	r0, r9
10013cea:	f7ff fd8b 	bl	10013804 <_fflush_r>
10013cee:	2800      	cmp	r0, #0
10013cf0:	f43f af77 	beq.w	10013be2 <__sfvwrite_r+0x1ae>
10013cf4:	e790      	b.n	10013c18 <__sfvwrite_r+0x1e4>
10013cf6:	4648      	mov	r0, r9
10013cf8:	f7ff fb46 	bl	10013388 <_realloc_r>
10013cfc:	4603      	mov	r3, r0
10013cfe:	2800      	cmp	r0, #0
10013d00:	f47f af22 	bne.w	10013b48 <__sfvwrite_r+0x114>
10013d04:	6921      	ldr	r1, [r4, #16]
10013d06:	4648      	mov	r0, r9
10013d08:	f001 fc74 	bl	100155f4 <_free_r>
10013d0c:	f9b4 300c 	ldrsh.w	r3, [r4, #12]
10013d10:	220c      	movs	r2, #12
10013d12:	f023 0380 	bic.w	r3, r3, #128	@ 0x80
10013d16:	f8c9 2000 	str.w	r2, [r9]
10013d1a:	e77f      	b.n	10013c1c <__sfvwrite_r+0x1e8>
10013d1c:	1c6a      	adds	r2, r5, #1
10013d1e:	9200      	str	r2, [sp, #0]
10013d20:	e747      	b.n	10013bb2 <__sfvwrite_r+0x17e>
10013d22:	220c      	movs	r2, #12
10013d24:	f9b4 300c 	ldrsh.w	r3, [r4, #12]
10013d28:	f8c9 2000 	str.w	r2, [r9]
10013d2c:	e776      	b.n	10013c1c <__sfvwrite_r+0x1e8>
10013d2e:	bf00      	nop
10013d30:	7ffffc00 	.word	0x7ffffc00

10013d34 <_fwalk_sglue>:
10013d34:	e92d 43f8 	stmdb	sp!, {r3, r4, r5, r6, r7, r8, r9, lr}
10013d38:	4680      	mov	r8, r0
10013d3a:	460f      	mov	r7, r1
10013d3c:	4616      	mov	r6, r2
10013d3e:	f04f 0900 	mov.w	r9, #0
10013d42:	e9d6 5401 	ldrd	r5, r4, [r6, #4]
10013d46:	3d01      	subs	r5, #1
10013d48:	d411      	bmi.n	10013d6e <_fwalk_sglue+0x3a>
10013d4a:	89a3      	ldrh	r3, [r4, #12]
10013d4c:	2b01      	cmp	r3, #1
10013d4e:	f105 35ff 	add.w	r5, r5, #4294967295	@ 0xffffffff
10013d52:	d908      	bls.n	10013d66 <_fwalk_sglue+0x32>
10013d54:	f9b4 300e 	ldrsh.w	r3, [r4, #14]
10013d58:	3301      	adds	r3, #1
10013d5a:	4621      	mov	r1, r4
10013d5c:	d003      	beq.n	10013d66 <_fwalk_sglue+0x32>
10013d5e:	4640      	mov	r0, r8
10013d60:	47b8      	blx	r7
10013d62:	ea49 0900 	orr.w	r9, r9, r0
10013d66:	1c6b      	adds	r3, r5, #1
10013d68:	f104 0468 	add.w	r4, r4, #104	@ 0x68
10013d6c:	d1ed      	bne.n	10013d4a <_fwalk_sglue+0x16>
10013d6e:	6836      	ldr	r6, [r6, #0]
10013d70:	2e00      	cmp	r6, #0
10013d72:	d1e6      	bne.n	10013d42 <_fwalk_sglue+0xe>
10013d74:	4648      	mov	r0, r9
10013d76:	e8bd 83f8 	ldmia.w	sp!, {r3, r4, r5, r6, r7, r8, r9, pc}
10013d7a:	bf00      	nop

10013d7c <__swsetup_r>:
10013d7c:	b538      	push	{r3, r4, r5, lr}
10013d7e:	4b2e      	ldr	r3, [pc, #184]	@ (10013e38 <__swsetup_r+0xbc>)
10013d80:	681b      	ldr	r3, [r3, #0]
10013d82:	4605      	mov	r5, r0
10013d84:	460c      	mov	r4, r1
10013d86:	b113      	cbz	r3, 10013d8e <__swsetup_r+0x12>
10013d88:	6b5a      	ldr	r2, [r3, #52]	@ 0x34
10013d8a:	2a00      	cmp	r2, #0
10013d8c:	d04b      	beq.n	10013e26 <__swsetup_r+0xaa>
10013d8e:	f9b4 300c 	ldrsh.w	r3, [r4, #12]
10013d92:	0718      	lsls	r0, r3, #28
10013d94:	d51c      	bpl.n	10013dd0 <__swsetup_r+0x54>
10013d96:	6922      	ldr	r2, [r4, #16]
10013d98:	b322      	cbz	r2, 10013de4 <__swsetup_r+0x68>
10013d9a:	f013 0101 	ands.w	r1, r3, #1
10013d9e:	d007      	beq.n	10013db0 <__swsetup_r+0x34>
10013da0:	6961      	ldr	r1, [r4, #20]
10013da2:	2000      	movs	r0, #0
10013da4:	4249      	negs	r1, r1
10013da6:	60a0      	str	r0, [r4, #8]
10013da8:	61a1      	str	r1, [r4, #24]
10013daa:	b13a      	cbz	r2, 10013dbc <__swsetup_r+0x40>
10013dac:	2000      	movs	r0, #0
10013dae:	bd38      	pop	{r3, r4, r5, pc}
10013db0:	0798      	lsls	r0, r3, #30
10013db2:	bf58      	it	pl
10013db4:	6961      	ldrpl	r1, [r4, #20]
10013db6:	60a1      	str	r1, [r4, #8]
10013db8:	2a00      	cmp	r2, #0
10013dba:	d1f7      	bne.n	10013dac <__swsetup_r+0x30>
10013dbc:	0619      	lsls	r1, r3, #24
10013dbe:	bf58      	it	pl
10013dc0:	4610      	movpl	r0, r2
10013dc2:	d5f4      	bpl.n	10013dae <__swsetup_r+0x32>
10013dc4:	f043 0340 	orr.w	r3, r3, #64	@ 0x40
10013dc8:	81a3      	strh	r3, [r4, #12]
10013dca:	f04f 30ff 	mov.w	r0, #4294967295	@ 0xffffffff
10013dce:	bd38      	pop	{r3, r4, r5, pc}
10013dd0:	06d9      	lsls	r1, r3, #27
10013dd2:	d52c      	bpl.n	10013e2e <__swsetup_r+0xb2>
10013dd4:	075a      	lsls	r2, r3, #29
10013dd6:	d412      	bmi.n	10013dfe <__swsetup_r+0x82>
10013dd8:	6922      	ldr	r2, [r4, #16]
10013dda:	f043 0308 	orr.w	r3, r3, #8
10013dde:	81a3      	strh	r3, [r4, #12]
10013de0:	2a00      	cmp	r2, #0
10013de2:	d1da      	bne.n	10013d9a <__swsetup_r+0x1e>
10013de4:	f403 7120 	and.w	r1, r3, #640	@ 0x280
10013de8:	f5b1 7f00 	cmp.w	r1, #512	@ 0x200
10013dec:	d0d5      	beq.n	10013d9a <__swsetup_r+0x1e>
10013dee:	4621      	mov	r1, r4
10013df0:	4628      	mov	r0, r5
10013df2:	f003 fae5 	bl	100173c0 <__smakebuf_r>
10013df6:	f9b4 300c 	ldrsh.w	r3, [r4, #12]
10013dfa:	6922      	ldr	r2, [r4, #16]
10013dfc:	e7cd      	b.n	10013d9a <__swsetup_r+0x1e>
10013dfe:	6b21      	ldr	r1, [r4, #48]	@ 0x30
10013e00:	b151      	cbz	r1, 10013e18 <__swsetup_r+0x9c>
10013e02:	f104 0240 	add.w	r2, r4, #64	@ 0x40
10013e06:	4291      	cmp	r1, r2
10013e08:	d004      	beq.n	10013e14 <__swsetup_r+0x98>
10013e0a:	4628      	mov	r0, r5
10013e0c:	f001 fbf2 	bl	100155f4 <_free_r>
10013e10:	f9b4 300c 	ldrsh.w	r3, [r4, #12]
10013e14:	2200      	movs	r2, #0
10013e16:	6322      	str	r2, [r4, #48]	@ 0x30
10013e18:	6922      	ldr	r2, [r4, #16]
10013e1a:	2100      	movs	r1, #0
10013e1c:	e9c4 2100 	strd	r2, r1, [r4]
10013e20:	f023 0324 	bic.w	r3, r3, #36	@ 0x24
10013e24:	e7d9      	b.n	10013dda <__swsetup_r+0x5e>
10013e26:	4618      	mov	r0, r3
10013e28:	f7ff fdda 	bl	100139e0 <__sinit>
10013e2c:	e7af      	b.n	10013d8e <__swsetup_r+0x12>
10013e2e:	2209      	movs	r2, #9
10013e30:	602a      	str	r2, [r5, #0]
10013e32:	f043 0340 	orr.w	r3, r3, #64	@ 0x40
10013e36:	e7c7      	b.n	10013dc8 <__swsetup_r+0x4c>
10013e38:	200005c0 	.word	0x200005c0

10013e3c <__fputwc>:
10013e3c:	b570      	push	{r4, r5, r6, lr}
10013e3e:	b082      	sub	sp, #8
10013e40:	4606      	mov	r6, r0
10013e42:	460d      	mov	r5, r1
10013e44:	4614      	mov	r4, r2
10013e46:	f000 f96d 	bl	10014124 <__locale_mb_cur_max>
10013e4a:	2801      	cmp	r0, #1
10013e4c:	d102      	bne.n	10013e54 <__fputwc+0x18>
10013e4e:	1e6b      	subs	r3, r5, #1
10013e50:	2bfe      	cmp	r3, #254	@ 0xfe
10013e52:	d926      	bls.n	10013ea2 <__fputwc+0x66>
10013e54:	f104 035c 	add.w	r3, r4, #92	@ 0x5c
10013e58:	462a      	mov	r2, r5
10013e5a:	a901      	add	r1, sp, #4
10013e5c:	4630      	mov	r0, r6
10013e5e:	f000 fb3b 	bl	100144d8 <_wcrtomb_r>
10013e62:	1c43      	adds	r3, r0, #1
10013e64:	d020      	beq.n	10013ea8 <__fputwc+0x6c>
10013e66:	b178      	cbz	r0, 10013e88 <__fputwc+0x4c>
10013e68:	68a3      	ldr	r3, [r4, #8]
10013e6a:	f89d 1004 	ldrb.w	r1, [sp, #4]
10013e6e:	3b01      	subs	r3, #1
10013e70:	2b00      	cmp	r3, #0
10013e72:	60a3      	str	r3, [r4, #8]
10013e74:	da04      	bge.n	10013e80 <__fputwc+0x44>
10013e76:	69a2      	ldr	r2, [r4, #24]
10013e78:	4293      	cmp	r3, r2
10013e7a:	db08      	blt.n	10013e8e <__fputwc+0x52>
10013e7c:	290a      	cmp	r1, #10
10013e7e:	d006      	beq.n	10013e8e <__fputwc+0x52>
10013e80:	6823      	ldr	r3, [r4, #0]
10013e82:	1c5a      	adds	r2, r3, #1
10013e84:	6022      	str	r2, [r4, #0]
10013e86:	7019      	strb	r1, [r3, #0]
10013e88:	4628      	mov	r0, r5
10013e8a:	b002      	add	sp, #8
10013e8c:	bd70      	pop	{r4, r5, r6, pc}
10013e8e:	4622      	mov	r2, r4
10013e90:	4630      	mov	r0, r6
10013e92:	f003 ff13 	bl	10017cbc <__swbuf_r>
10013e96:	3001      	adds	r0, #1
10013e98:	d1f6      	bne.n	10013e88 <__fputwc+0x4c>
10013e9a:	f04f 30ff 	mov.w	r0, #4294967295	@ 0xffffffff
10013e9e:	b002      	add	sp, #8
10013ea0:	bd70      	pop	{r4, r5, r6, pc}
10013ea2:	f88d 5004 	strb.w	r5, [sp, #4]
10013ea6:	e7df      	b.n	10013e68 <__fputwc+0x2c>
10013ea8:	89a3      	ldrh	r3, [r4, #12]
10013eaa:	f043 0340 	orr.w	r3, r3, #64	@ 0x40
10013eae:	81a3      	strh	r3, [r4, #12]
10013eb0:	f04f 30ff 	mov.w	r0, #4294967295	@ 0xffffffff
10013eb4:	e7f3      	b.n	10013e9e <__fputwc+0x62>
10013eb6:	bf00      	nop

10013eb8 <_fputwc_r>:
10013eb8:	b530      	push	{r4, r5, lr}
10013eba:	4614      	mov	r4, r2
10013ebc:	6e52      	ldr	r2, [r2, #100]	@ 0x64
10013ebe:	f9b4 300c 	ldrsh.w	r3, [r4, #12]
10013ec2:	4605      	mov	r5, r0
10013ec4:	07d0      	lsls	r0, r2, #31
10013ec6:	b083      	sub	sp, #12
10013ec8:	d401      	bmi.n	10013ece <_fputwc_r+0x16>
10013eca:	059a      	lsls	r2, r3, #22
10013ecc:	d51c      	bpl.n	10013f08 <_fputwc_r+0x50>
10013ece:	0498      	lsls	r0, r3, #18
10013ed0:	d406      	bmi.n	10013ee0 <_fputwc_r+0x28>
10013ed2:	6e62      	ldr	r2, [r4, #100]	@ 0x64
10013ed4:	f443 5300 	orr.w	r3, r3, #8192	@ 0x2000
10013ed8:	f442 5200 	orr.w	r2, r2, #8192	@ 0x2000
10013edc:	81a3      	strh	r3, [r4, #12]
10013ede:	6662      	str	r2, [r4, #100]	@ 0x64
10013ee0:	4622      	mov	r2, r4
10013ee2:	4628      	mov	r0, r5
10013ee4:	f7ff ffaa 	bl	10013e3c <__fputwc>
10013ee8:	6e63      	ldr	r3, [r4, #100]	@ 0x64
10013eea:	07da      	lsls	r2, r3, #31
10013eec:	4605      	mov	r5, r0
10013eee:	d402      	bmi.n	10013ef6 <_fputwc_r+0x3e>
10013ef0:	89a3      	ldrh	r3, [r4, #12]
10013ef2:	059b      	lsls	r3, r3, #22
10013ef4:	d502      	bpl.n	10013efc <_fputwc_r+0x44>
10013ef6:	4628      	mov	r0, r5
10013ef8:	b003      	add	sp, #12
10013efa:	bd30      	pop	{r4, r5, pc}
10013efc:	6da0      	ldr	r0, [r4, #88]	@ 0x58
10013efe:	f000 f985 	bl	1001420c <__retarget_lock_release_recursive>
10013f02:	4628      	mov	r0, r5
10013f04:	b003      	add	sp, #12
10013f06:	bd30      	pop	{r4, r5, pc}
10013f08:	6da0      	ldr	r0, [r4, #88]	@ 0x58
10013f0a:	9101      	str	r1, [sp, #4]
10013f0c:	f000 f97c 	bl	10014208 <__retarget_lock_acquire_recursive>
10013f10:	f9b4 300c 	ldrsh.w	r3, [r4, #12]
10013f14:	9901      	ldr	r1, [sp, #4]
10013f16:	e7da      	b.n	10013ece <_fputwc_r+0x16>

10013f18 <memmove>:
10013f18:	4288      	cmp	r0, r1
10013f1a:	d90e      	bls.n	10013f3a <memmove+0x22>
10013f1c:	188b      	adds	r3, r1, r2
10013f1e:	4283      	cmp	r3, r0
10013f20:	d90b      	bls.n	10013f3a <memmove+0x22>
10013f22:	eb00 0c02 	add.w	ip, r0, r2
10013f26:	2a00      	cmp	r2, #0
10013f28:	d06e      	beq.n	10014008 <memmove+0xf0>
10013f2a:	4662      	mov	r2, ip
10013f2c:	f813 cd01 	ldrb.w	ip, [r3, #-1]!
10013f30:	f802 cd01 	strb.w	ip, [r2, #-1]!
10013f34:	4299      	cmp	r1, r3
10013f36:	d1f9      	bne.n	10013f2c <memmove+0x14>
10013f38:	4770      	bx	lr
10013f3a:	2a0f      	cmp	r2, #15
10013f3c:	d80f      	bhi.n	10013f5e <memmove+0x46>
10013f3e:	4603      	mov	r3, r0
10013f40:	f102 3cff 	add.w	ip, r2, #4294967295	@ 0xffffffff
10013f44:	2a00      	cmp	r2, #0
10013f46:	d05f      	beq.n	10014008 <memmove+0xf0>
10013f48:	f10c 0c01 	add.w	ip, ip, #1
10013f4c:	3b01      	subs	r3, #1
10013f4e:	448c      	add	ip, r1
10013f50:	f811 2b01 	ldrb.w	r2, [r1], #1
10013f54:	f803 2f01 	strb.w	r2, [r3, #1]!
10013f58:	4561      	cmp	r1, ip
10013f5a:	d1f9      	bne.n	10013f50 <memmove+0x38>
10013f5c:	4770      	bx	lr
10013f5e:	ea40 0301 	orr.w	r3, r0, r1
10013f62:	079b      	lsls	r3, r3, #30
10013f64:	d151      	bne.n	1001400a <memmove+0xf2>
10013f66:	f1a2 0310 	sub.w	r3, r2, #16
10013f6a:	b570      	push	{r4, r5, r6, lr}
10013f6c:	f101 0c20 	add.w	ip, r1, #32
10013f70:	f023 050f 	bic.w	r5, r3, #15
10013f74:	f101 0e10 	add.w	lr, r1, #16
10013f78:	f100 0410 	add.w	r4, r0, #16
10013f7c:	44ac      	add	ip, r5
10013f7e:	091b      	lsrs	r3, r3, #4
10013f80:	f85e 5c10 	ldr.w	r5, [lr, #-16]
10013f84:	f844 5c10 	str.w	r5, [r4, #-16]
10013f88:	f85e 5c0c 	ldr.w	r5, [lr, #-12]
10013f8c:	f844 5c0c 	str.w	r5, [r4, #-12]
10013f90:	f85e 5c08 	ldr.w	r5, [lr, #-8]
10013f94:	f844 5c08 	str.w	r5, [r4, #-8]
10013f98:	f85e 5c04 	ldr.w	r5, [lr, #-4]
10013f9c:	f844 5c04 	str.w	r5, [r4, #-4]
10013fa0:	f10e 0e10 	add.w	lr, lr, #16
10013fa4:	45e6      	cmp	lr, ip
10013fa6:	f104 0410 	add.w	r4, r4, #16
10013faa:	d1e9      	bne.n	10013f80 <memmove+0x68>
10013fac:	3301      	adds	r3, #1
10013fae:	f012 0f0c 	tst.w	r2, #12
10013fb2:	eb01 1103 	add.w	r1, r1, r3, lsl #4
10013fb6:	f002 040f 	and.w	r4, r2, #15
10013fba:	eb00 1303 	add.w	r3, r0, r3, lsl #4
10013fbe:	d028      	beq.n	10014012 <memmove+0xfa>
10013fc0:	3c04      	subs	r4, #4
10013fc2:	f024 0603 	bic.w	r6, r4, #3
10013fc6:	ea4f 0c94 	mov.w	ip, r4, lsr #2
10013fca:	441e      	add	r6, r3
10013fcc:	1f1c      	subs	r4, r3, #4
10013fce:	468e      	mov	lr, r1
10013fd0:	f85e 5b04 	ldr.w	r5, [lr], #4
10013fd4:	f844 5f04 	str.w	r5, [r4, #4]!
10013fd8:	42b4      	cmp	r4, r6
10013fda:	d1f9      	bne.n	10013fd0 <memmove+0xb8>
10013fdc:	f10c 0401 	add.w	r4, ip, #1
10013fe0:	f002 0203 	and.w	r2, r2, #3
10013fe4:	eb03 0384 	add.w	r3, r3, r4, lsl #2
10013fe8:	eb01 0184 	add.w	r1, r1, r4, lsl #2
10013fec:	f102 3cff 	add.w	ip, r2, #4294967295	@ 0xffffffff
10013ff0:	b14a      	cbz	r2, 10014006 <memmove+0xee>
10013ff2:	f10c 0c01 	add.w	ip, ip, #1
10013ff6:	3b01      	subs	r3, #1
10013ff8:	448c      	add	ip, r1
10013ffa:	f811 2b01 	ldrb.w	r2, [r1], #1
10013ffe:	f803 2f01 	strb.w	r2, [r3, #1]!
10014002:	4561      	cmp	r1, ip
10014004:	d1f9      	bne.n	10013ffa <memmove+0xe2>
10014006:	bd70      	pop	{r4, r5, r6, pc}
10014008:	4770      	bx	lr
1001400a:	f102 3cff 	add.w	ip, r2, #4294967295	@ 0xffffffff
1001400e:	4603      	mov	r3, r0
10014010:	e79a      	b.n	10013f48 <memmove+0x30>
10014012:	4622      	mov	r2, r4
10014014:	e7ea      	b.n	10013fec <memmove+0xd4>
10014016:	bf00      	nop

10014018 <memset>:
10014018:	0783      	lsls	r3, r0, #30
1001401a:	b530      	push	{r4, r5, lr}
1001401c:	d047      	beq.n	100140ae <memset+0x96>
1001401e:	1e54      	subs	r4, r2, #1
10014020:	2a00      	cmp	r2, #0
10014022:	d03e      	beq.n	100140a2 <memset+0x8a>
10014024:	b2ca      	uxtb	r2, r1
10014026:	4603      	mov	r3, r0
10014028:	e001      	b.n	1001402e <memset+0x16>
1001402a:	3c01      	subs	r4, #1
1001402c:	d339      	bcc.n	100140a2 <memset+0x8a>
1001402e:	f803 2b01 	strb.w	r2, [r3], #1
10014032:	079d      	lsls	r5, r3, #30
10014034:	d1f9      	bne.n	1001402a <memset+0x12>
10014036:	2c03      	cmp	r4, #3
10014038:	d92c      	bls.n	10014094 <memset+0x7c>
1001403a:	b2cd      	uxtb	r5, r1
1001403c:	eb05 2505 	add.w	r5, r5, r5, lsl #8
10014040:	2c0f      	cmp	r4, #15
10014042:	eb05 4505 	add.w	r5, r5, r5, lsl #16
10014046:	d935      	bls.n	100140b4 <memset+0x9c>
10014048:	f1a4 0210 	sub.w	r2, r4, #16
1001404c:	f022 0c0f 	bic.w	ip, r2, #15
10014050:	f103 0e10 	add.w	lr, r3, #16
10014054:	44e6      	add	lr, ip
10014056:	ea4f 1c12 	mov.w	ip, r2, lsr #4
1001405a:	461a      	mov	r2, r3
1001405c:	6015      	str	r5, [r2, #0]
1001405e:	6055      	str	r5, [r2, #4]
10014060:	6095      	str	r5, [r2, #8]
10014062:	60d5      	str	r5, [r2, #12]
10014064:	3210      	adds	r2, #16
10014066:	4572      	cmp	r2, lr
10014068:	d1f8      	bne.n	1001405c <memset+0x44>
1001406a:	f10c 0201 	add.w	r2, ip, #1
1001406e:	f014 0f0c 	tst.w	r4, #12
10014072:	eb03 1202 	add.w	r2, r3, r2, lsl #4
10014076:	f004 0c0f 	and.w	ip, r4, #15
1001407a:	d013      	beq.n	100140a4 <memset+0x8c>
1001407c:	f1ac 0304 	sub.w	r3, ip, #4
10014080:	f023 0303 	bic.w	r3, r3, #3
10014084:	3304      	adds	r3, #4
10014086:	4413      	add	r3, r2
10014088:	f842 5b04 	str.w	r5, [r2], #4
1001408c:	429a      	cmp	r2, r3
1001408e:	d1fb      	bne.n	10014088 <memset+0x70>
10014090:	f00c 0403 	and.w	r4, ip, #3
10014094:	b12c      	cbz	r4, 100140a2 <memset+0x8a>
10014096:	b2c9      	uxtb	r1, r1
10014098:	441c      	add	r4, r3
1001409a:	f803 1b01 	strb.w	r1, [r3], #1
1001409e:	429c      	cmp	r4, r3
100140a0:	d1fb      	bne.n	1001409a <memset+0x82>
100140a2:	bd30      	pop	{r4, r5, pc}
100140a4:	4664      	mov	r4, ip
100140a6:	4613      	mov	r3, r2
100140a8:	2c00      	cmp	r4, #0
100140aa:	d1f4      	bne.n	10014096 <memset+0x7e>
100140ac:	e7f9      	b.n	100140a2 <memset+0x8a>
100140ae:	4603      	mov	r3, r0
100140b0:	4614      	mov	r4, r2
100140b2:	e7c0      	b.n	10014036 <memset+0x1e>
100140b4:	461a      	mov	r2, r3
100140b6:	46a4      	mov	ip, r4
100140b8:	e7e0      	b.n	1001407c <memset+0x64>
100140ba:	bf00      	nop

100140bc <strncpy>:
100140bc:	ea40 0301 	orr.w	r3, r0, r1
100140c0:	079b      	lsls	r3, r3, #30
100140c2:	b510      	push	{r4, lr}
100140c4:	d101      	bne.n	100140ca <strncpy+0xe>
100140c6:	2a03      	cmp	r2, #3
100140c8:	d817      	bhi.n	100140fa <strncpy+0x3e>
100140ca:	4684      	mov	ip, r0
100140cc:	f101 3eff 	add.w	lr, r1, #4294967295	@ 0xffffffff
100140d0:	e007      	b.n	100140e2 <strncpy+0x26>
100140d2:	f81e 1f01 	ldrb.w	r1, [lr, #1]!
100140d6:	f803 1b01 	strb.w	r1, [r3], #1
100140da:	1e54      	subs	r4, r2, #1
100140dc:	b129      	cbz	r1, 100140ea <strncpy+0x2e>
100140de:	469c      	mov	ip, r3
100140e0:	4622      	mov	r2, r4
100140e2:	4663      	mov	r3, ip
100140e4:	2a00      	cmp	r2, #0
100140e6:	d1f4      	bne.n	100140d2 <strncpy+0x16>
100140e8:	bd10      	pop	{r4, pc}
100140ea:	4494      	add	ip, r2
100140ec:	2c00      	cmp	r4, #0
100140ee:	d0fb      	beq.n	100140e8 <strncpy+0x2c>
100140f0:	f803 1b01 	strb.w	r1, [r3], #1
100140f4:	4563      	cmp	r3, ip
100140f6:	d1fb      	bne.n	100140f0 <strncpy+0x34>
100140f8:	bd10      	pop	{r4, pc}
100140fa:	468e      	mov	lr, r1
100140fc:	4684      	mov	ip, r0
100140fe:	f8de 4000 	ldr.w	r4, [lr]
10014102:	f1a4 3301 	sub.w	r3, r4, #16843009	@ 0x1010101
10014106:	ea23 0304 	bic.w	r3, r3, r4
1001410a:	f013 3f80 	tst.w	r3, #2155905152	@ 0x80808080
1001410e:	4671      	mov	r1, lr
10014110:	f10e 0e04 	add.w	lr, lr, #4
10014114:	d1da      	bne.n	100140cc <strncpy+0x10>
10014116:	3a04      	subs	r2, #4
10014118:	2a03      	cmp	r2, #3
1001411a:	f84c 4b04 	str.w	r4, [ip], #4
1001411e:	d8ee      	bhi.n	100140fe <strncpy+0x42>
10014120:	4671      	mov	r1, lr
10014122:	e7d3      	b.n	100140cc <strncpy+0x10>

10014124 <__locale_mb_cur_max>:
10014124:	4b01      	ldr	r3, [pc, #4]	@ (1001412c <__locale_mb_cur_max+0x8>)
10014126:	f893 0128 	ldrb.w	r0, [r3, #296]	@ 0x128
1001412a:	4770      	bx	lr
1001412c:	20000454 	.word	0x20000454

10014130 <_localeconv_r>:
10014130:	4800      	ldr	r0, [pc, #0]	@ (10014134 <_localeconv_r+0x4>)
10014132:	4770      	bx	lr
10014134:	20000544 	.word	0x20000544

10014138 <_fstat_r>:
10014138:	b570      	push	{r4, r5, r6, lr}
1001413a:	460c      	mov	r4, r1
1001413c:	4d08      	ldr	r5, [pc, #32]	@ (10014160 <_fstat_r+0x28>)
1001413e:	4603      	mov	r3, r0
10014140:	2600      	movs	r6, #0
10014142:	4620      	mov	r0, r4
10014144:	4611      	mov	r1, r2
10014146:	461c      	mov	r4, r3
10014148:	602e      	str	r6, [r5, #0]
1001414a:	f7fa fb35 	bl	1000e7b8 <_fstat>
1001414e:	1c43      	adds	r3, r0, #1
10014150:	d000      	beq.n	10014154 <_fstat_r+0x1c>
10014152:	bd70      	pop	{r4, r5, r6, pc}
10014154:	682b      	ldr	r3, [r5, #0]
10014156:	2b00      	cmp	r3, #0
10014158:	d0fb      	beq.n	10014152 <_fstat_r+0x1a>
1001415a:	6023      	str	r3, [r4, #0]
1001415c:	bd70      	pop	{r4, r5, r6, pc}
1001415e:	bf00      	nop
10014160:	200011ac 	.word	0x200011ac

10014164 <_sbrk_r>:
10014164:	b538      	push	{r3, r4, r5, lr}
10014166:	4d07      	ldr	r5, [pc, #28]	@ (10014184 <_sbrk_r+0x20>)
10014168:	2200      	movs	r2, #0
1001416a:	4604      	mov	r4, r0
1001416c:	4608      	mov	r0, r1
1001416e:	602a      	str	r2, [r5, #0]
10014170:	f7fa fc9e 	bl	1000eab0 <_sbrk>
10014174:	1c43      	adds	r3, r0, #1
10014176:	d000      	beq.n	1001417a <_sbrk_r+0x16>
10014178:	bd38      	pop	{r3, r4, r5, pc}
1001417a:	682b      	ldr	r3, [r5, #0]
1001417c:	2b00      	cmp	r3, #0
1001417e:	d0fb      	beq.n	10014178 <_sbrk_r+0x14>
10014180:	6023      	str	r3, [r4, #0]
10014182:	bd38      	pop	{r3, r4, r5, pc}
10014184:	200011ac 	.word	0x200011ac

10014188 <__errno>:
10014188:	4b01      	ldr	r3, [pc, #4]	@ (10014190 <__errno+0x8>)
1001418a:	6818      	ldr	r0, [r3, #0]
1001418c:	4770      	bx	lr
1001418e:	bf00      	nop
10014190:	200005c0 	.word	0x200005c0

10014194 <sysconf>:
10014194:	2808      	cmp	r0, #8
10014196:	d102      	bne.n	1001419e <sysconf+0xa>
10014198:	f44f 5080 	mov.w	r0, #4096	@ 0x1000
1001419c:	4770      	bx	lr
1001419e:	b508      	push	{r3, lr}
100141a0:	f7ff fff2 	bl	10014188 <__errno>
100141a4:	2316      	movs	r3, #22
100141a6:	6003      	str	r3, [r0, #0]
100141a8:	f04f 30ff 	mov.w	r0, #4294967295	@ 0xffffffff
100141ac:	bd08      	pop	{r3, pc}
100141ae:	bf00      	nop

100141b0 <__libc_init_array>:
100141b0:	b570      	push	{r4, r5, r6, lr}
100141b2:	4b0f      	ldr	r3, [pc, #60]	@ (100141f0 <__libc_init_array+0x40>)
100141b4:	4d0f      	ldr	r5, [pc, #60]	@ (100141f4 <__libc_init_array+0x44>)
100141b6:	42ab      	cmp	r3, r5
100141b8:	eba3 0605 	sub.w	r6, r3, r5
100141bc:	d007      	beq.n	100141ce <__libc_init_array+0x1e>
100141be:	10b6      	asrs	r6, r6, #2
100141c0:	2400      	movs	r4, #0
100141c2:	f855 3b04 	ldr.w	r3, [r5], #4
100141c6:	3401      	adds	r4, #1
100141c8:	4798      	blx	r3
100141ca:	42a6      	cmp	r6, r4
100141cc:	d8f9      	bhi.n	100141c2 <__libc_init_array+0x12>
100141ce:	f005 fa57 	bl	10019680 <_init>
100141d2:	4d09      	ldr	r5, [pc, #36]	@ (100141f8 <__libc_init_array+0x48>)
100141d4:	4b09      	ldr	r3, [pc, #36]	@ (100141fc <__libc_init_array+0x4c>)
100141d6:	1b5e      	subs	r6, r3, r5
100141d8:	42ab      	cmp	r3, r5
100141da:	ea4f 06a6 	mov.w	r6, r6, asr #2
100141de:	d006      	beq.n	100141ee <__libc_init_array+0x3e>
100141e0:	2400      	movs	r4, #0
100141e2:	f855 3b04 	ldr.w	r3, [r5], #4
100141e6:	3401      	adds	r4, #1
100141e8:	4798      	blx	r3
100141ea:	42a6      	cmp	r6, r4
100141ec:	d8f9      	bhi.n	100141e2 <__libc_init_array+0x32>
100141ee:	bd70      	pop	{r4, r5, r6, pc}
100141f0:	200006ec 	.word	0x200006ec
100141f4:	200006ec 	.word	0x200006ec
100141f8:	200006ec 	.word	0x200006ec
100141fc:	200006f4 	.word	0x200006f4

10014200 <__retarget_lock_init_recursive>:
10014200:	4770      	bx	lr
10014202:	bf00      	nop

10014204 <__retarget_lock_close_recursive>:
10014204:	4770      	bx	lr
10014206:	bf00      	nop

10014208 <__retarget_lock_acquire_recursive>:
10014208:	4770      	bx	lr
1001420a:	bf00      	nop

1001420c <__retarget_lock_release_recursive>:
1001420c:	4770      	bx	lr
1001420e:	bf00      	nop

10014210 <memchr>:
10014210:	f001 01ff 	and.w	r1, r1, #255	@ 0xff
10014214:	2a10      	cmp	r2, #16
10014216:	db2b      	blt.n	10014270 <memchr+0x60>
10014218:	f010 0f07 	tst.w	r0, #7
1001421c:	d008      	beq.n	10014230 <memchr+0x20>
1001421e:	f810 3b01 	ldrb.w	r3, [r0], #1
10014222:	3a01      	subs	r2, #1
10014224:	428b      	cmp	r3, r1
10014226:	d02d      	beq.n	10014284 <memchr+0x74>
10014228:	f010 0f07 	tst.w	r0, #7
1001422c:	b342      	cbz	r2, 10014280 <memchr+0x70>
1001422e:	d1f6      	bne.n	1001421e <memchr+0xe>
10014230:	b4f0      	push	{r4, r5, r6, r7}
10014232:	ea41 2101 	orr.w	r1, r1, r1, lsl #8
10014236:	ea41 4101 	orr.w	r1, r1, r1, lsl #16
1001423a:	f022 0407 	bic.w	r4, r2, #7
1001423e:	f07f 0700 	mvns.w	r7, #0
10014242:	2300      	movs	r3, #0
10014244:	e8f0 5602 	ldrd	r5, r6, [r0], #8
10014248:	3c08      	subs	r4, #8
1001424a:	ea85 0501 	eor.w	r5, r5, r1
1001424e:	ea86 0601 	eor.w	r6, r6, r1
10014252:	fa85 f547 	uadd8	r5, r5, r7
10014256:	faa3 f587 	sel	r5, r3, r7
1001425a:	fa86 f647 	uadd8	r6, r6, r7
1001425e:	faa5 f687 	sel	r6, r5, r7
10014262:	b98e      	cbnz	r6, 10014288 <memchr+0x78>
10014264:	d1ee      	bne.n	10014244 <memchr+0x34>
10014266:	bcf0      	pop	{r4, r5, r6, r7}
10014268:	f001 01ff 	and.w	r1, r1, #255	@ 0xff
1001426c:	f002 0207 	and.w	r2, r2, #7
10014270:	b132      	cbz	r2, 10014280 <memchr+0x70>
10014272:	f810 3b01 	ldrb.w	r3, [r0], #1
10014276:	3a01      	subs	r2, #1
10014278:	ea83 0301 	eor.w	r3, r3, r1
1001427c:	b113      	cbz	r3, 10014284 <memchr+0x74>
1001427e:	d1f8      	bne.n	10014272 <memchr+0x62>
10014280:	2000      	movs	r0, #0
10014282:	4770      	bx	lr
10014284:	3801      	subs	r0, #1
10014286:	4770      	bx	lr
10014288:	2d00      	cmp	r5, #0
1001428a:	bf06      	itte	eq
1001428c:	4635      	moveq	r5, r6
1001428e:	3803      	subeq	r0, #3
10014290:	3807      	subne	r0, #7
10014292:	f015 0f01 	tst.w	r5, #1
10014296:	d107      	bne.n	100142a8 <memchr+0x98>
10014298:	3001      	adds	r0, #1
1001429a:	f415 7f80 	tst.w	r5, #256	@ 0x100
1001429e:	bf02      	ittt	eq
100142a0:	3001      	addeq	r0, #1
100142a2:	f415 3fc0 	tsteq.w	r5, #98304	@ 0x18000
100142a6:	3001      	addeq	r0, #1
100142a8:	bcf0      	pop	{r4, r5, r6, r7}
100142aa:	3801      	subs	r0, #1
100142ac:	4770      	bx	lr
100142ae:	bf00      	nop

100142b0 <memcpy>:
100142b0:	4684      	mov	ip, r0
100142b2:	ea41 0300 	orr.w	r3, r1, r0
100142b6:	f013 0303 	ands.w	r3, r3, #3
100142ba:	d16d      	bne.n	10014398 <memcpy+0xe8>
100142bc:	3a40      	subs	r2, #64	@ 0x40
100142be:	d341      	bcc.n	10014344 <memcpy+0x94>
100142c0:	f851 3b04 	ldr.w	r3, [r1], #4
100142c4:	f840 3b04 	str.w	r3, [r0], #4
100142c8:	f851 3b04 	ldr.w	r3, [r1], #4
100142cc:	f840 3b04 	str.w	r3, [r0], #4
100142d0:	f851 3b04 	ldr.w	r3, [r1], #4
100142d4:	f840 3b04 	str.w	r3, [r0], #4
100142d8:	f851 3b04 	ldr.w	r3, [r1], #4
100142dc:	f840 3b04 	str.w	r3, [r0], #4
100142e0:	f851 3b04 	ldr.w	r3, [r1], #4
100142e4:	f840 3b04 	str.w	r3, [r0], #4
100142e8:	f851 3b04 	ldr.w	r3, [r1], #4
100142ec:	f840 3b04 	str.w	r3, [r0], #4
100142f0:	f851 3b04 	ldr.w	r3, [r1], #4
100142f4:	f840 3b04 	str.w	r3, [r0], #4
100142f8:	f851 3b04 	ldr.w	r3, [r1], #4
100142fc:	f840 3b04 	str.w	r3, [r0], #4
10014300:	f851 3b04 	ldr.w	r3, [r1], #4
10014304:	f840 3b04 	str.w	r3, [r0], #4
10014308:	f851 3b04 	ldr.w	r3, [r1], #4
1001430c:	f840 3b04 	str.w	r3, [r0], #4
10014310:	f851 3b04 	ldr.w	r3, [r1], #4
10014314:	f840 3b04 	str.w	r3, [r0], #4
10014318:	f851 3b04 	ldr.w	r3, [r1], #4
1001431c:	f840 3b04 	str.w	r3, [r0], #4
10014320:	f851 3b04 	ldr.w	r3, [r1], #4
10014324:	f840 3b04 	str.w	r3, [r0], #4
10014328:	f851 3b04 	ldr.w	r3, [r1], #4
1001432c:	f840 3b04 	str.w	r3, [r0], #4
10014330:	f851 3b04 	ldr.w	r3, [r1], #4
10014334:	f840 3b04 	str.w	r3, [r0], #4
10014338:	f851 3b04 	ldr.w	r3, [r1], #4
1001433c:	f840 3b04 	str.w	r3, [r0], #4
10014340:	3a40      	subs	r2, #64	@ 0x40
10014342:	d2bd      	bcs.n	100142c0 <memcpy+0x10>
10014344:	3230      	adds	r2, #48	@ 0x30
10014346:	d311      	bcc.n	1001436c <memcpy+0xbc>
10014348:	f851 3b04 	ldr.w	r3, [r1], #4
1001434c:	f840 3b04 	str.w	r3, [r0], #4
10014350:	f851 3b04 	ldr.w	r3, [r1], #4
10014354:	f840 3b04 	str.w	r3, [r0], #4
10014358:	f851 3b04 	ldr.w	r3, [r1], #4
1001435c:	f840 3b04 	str.w	r3, [r0], #4
10014360:	f851 3b04 	ldr.w	r3, [r1], #4
10014364:	f840 3b04 	str.w	r3, [r0], #4
10014368:	3a10      	subs	r2, #16
1001436a:	d2ed      	bcs.n	10014348 <memcpy+0x98>
1001436c:	320c      	adds	r2, #12
1001436e:	d305      	bcc.n	1001437c <memcpy+0xcc>
10014370:	f851 3b04 	ldr.w	r3, [r1], #4
10014374:	f840 3b04 	str.w	r3, [r0], #4
10014378:	3a04      	subs	r2, #4
1001437a:	d2f9      	bcs.n	10014370 <memcpy+0xc0>
1001437c:	3204      	adds	r2, #4
1001437e:	d008      	beq.n	10014392 <memcpy+0xe2>
10014380:	07d2      	lsls	r2, r2, #31
10014382:	bf1c      	itt	ne
10014384:	f811 3b01 	ldrbne.w	r3, [r1], #1
10014388:	f800 3b01 	strbne.w	r3, [r0], #1
1001438c:	d301      	bcc.n	10014392 <memcpy+0xe2>
1001438e:	880b      	ldrh	r3, [r1, #0]
10014390:	8003      	strh	r3, [r0, #0]
10014392:	4660      	mov	r0, ip
10014394:	4770      	bx	lr
10014396:	bf00      	nop
10014398:	2a08      	cmp	r2, #8
1001439a:	d313      	bcc.n	100143c4 <memcpy+0x114>
1001439c:	078b      	lsls	r3, r1, #30
1001439e:	d08d      	beq.n	100142bc <memcpy+0xc>
100143a0:	f010 0303 	ands.w	r3, r0, #3
100143a4:	d08a      	beq.n	100142bc <memcpy+0xc>
100143a6:	f1c3 0304 	rsb	r3, r3, #4
100143aa:	1ad2      	subs	r2, r2, r3
100143ac:	07db      	lsls	r3, r3, #31
100143ae:	bf1c      	itt	ne
100143b0:	f811 3b01 	ldrbne.w	r3, [r1], #1
100143b4:	f800 3b01 	strbne.w	r3, [r0], #1
100143b8:	d380      	bcc.n	100142bc <memcpy+0xc>
100143ba:	f831 3b02 	ldrh.w	r3, [r1], #2
100143be:	f820 3b02 	strh.w	r3, [r0], #2
100143c2:	e77b      	b.n	100142bc <memcpy+0xc>
100143c4:	3a04      	subs	r2, #4
100143c6:	d3d9      	bcc.n	1001437c <memcpy+0xcc>
100143c8:	3a01      	subs	r2, #1
100143ca:	f811 3b01 	ldrb.w	r3, [r1], #1
100143ce:	f800 3b01 	strb.w	r3, [r0], #1
100143d2:	d2f9      	bcs.n	100143c8 <memcpy+0x118>
100143d4:	780b      	ldrb	r3, [r1, #0]
100143d6:	7003      	strb	r3, [r0, #0]
100143d8:	784b      	ldrb	r3, [r1, #1]
100143da:	7043      	strb	r3, [r0, #1]
100143dc:	788b      	ldrb	r3, [r1, #2]
100143de:	7083      	strb	r3, [r0, #2]
100143e0:	4660      	mov	r0, ip
100143e2:	4770      	bx	lr
	...

10014400 <strlen>:
10014400:	b430      	push	{r4, r5}
10014402:	f890 f000 	pld	[r0]
10014406:	f020 0107 	bic.w	r1, r0, #7
1001440a:	f06f 0c00 	mvn.w	ip, #0
1001440e:	f010 0407 	ands.w	r4, r0, #7
10014412:	f891 f020 	pld	[r1, #32]
10014416:	f040 8048 	bne.w	100144aa <strlen+0xaa>
1001441a:	f04f 0400 	mov.w	r4, #0
1001441e:	f06f 0007 	mvn.w	r0, #7
10014422:	e9d1 2300 	ldrd	r2, r3, [r1]
10014426:	f891 f040 	pld	[r1, #64]	@ 0x40
1001442a:	f100 0008 	add.w	r0, r0, #8
1001442e:	fa82 f24c 	uadd8	r2, r2, ip
10014432:	faa4 f28c 	sel	r2, r4, ip
10014436:	fa83 f34c 	uadd8	r3, r3, ip
1001443a:	faa2 f38c 	sel	r3, r2, ip
1001443e:	bb4b      	cbnz	r3, 10014494 <strlen+0x94>
10014440:	e9d1 2302 	ldrd	r2, r3, [r1, #8]
10014444:	fa82 f24c 	uadd8	r2, r2, ip
10014448:	f100 0008 	add.w	r0, r0, #8
1001444c:	faa4 f28c 	sel	r2, r4, ip
10014450:	fa83 f34c 	uadd8	r3, r3, ip
10014454:	faa2 f38c 	sel	r3, r2, ip
10014458:	b9e3      	cbnz	r3, 10014494 <strlen+0x94>
1001445a:	e9d1 2304 	ldrd	r2, r3, [r1, #16]
1001445e:	fa82 f24c 	uadd8	r2, r2, ip
10014462:	f100 0008 	add.w	r0, r0, #8
10014466:	faa4 f28c 	sel	r2, r4, ip
1001446a:	fa83 f34c 	uadd8	r3, r3, ip
1001446e:	faa2 f38c 	sel	r3, r2, ip
10014472:	b97b      	cbnz	r3, 10014494 <strlen+0x94>
10014474:	e9d1 2306 	ldrd	r2, r3, [r1, #24]
10014478:	f101 0120 	add.w	r1, r1, #32
1001447c:	fa82 f24c 	uadd8	r2, r2, ip
10014480:	f100 0008 	add.w	r0, r0, #8
10014484:	faa4 f28c 	sel	r2, r4, ip
10014488:	fa83 f34c 	uadd8	r3, r3, ip
1001448c:	faa2 f38c 	sel	r3, r2, ip
10014490:	2b00      	cmp	r3, #0
10014492:	d0c6      	beq.n	10014422 <strlen+0x22>
10014494:	2a00      	cmp	r2, #0
10014496:	bf04      	itt	eq
10014498:	3004      	addeq	r0, #4
1001449a:	461a      	moveq	r2, r3
1001449c:	ba12      	rev	r2, r2
1001449e:	fab2 f282 	clz	r2, r2
100144a2:	eb00 00d2 	add.w	r0, r0, r2, lsr #3
100144a6:	bc30      	pop	{r4, r5}
100144a8:	4770      	bx	lr
100144aa:	e9d1 2300 	ldrd	r2, r3, [r1]
100144ae:	f004 0503 	and.w	r5, r4, #3
100144b2:	f1c4 0000 	rsb	r0, r4, #0
100144b6:	ea4f 05c5 	mov.w	r5, r5, lsl #3
100144ba:	f014 0f04 	tst.w	r4, #4
100144be:	f891 f040 	pld	[r1, #64]	@ 0x40
100144c2:	fa0c f505 	lsl.w	r5, ip, r5
100144c6:	ea62 0205 	orn	r2, r2, r5
100144ca:	bf1c      	itt	ne
100144cc:	ea63 0305 	ornne	r3, r3, r5
100144d0:	4662      	movne	r2, ip
100144d2:	f04f 0400 	mov.w	r4, #0
100144d6:	e7aa      	b.n	1001442e <strlen+0x2e>

100144d8 <_wcrtomb_r>:
100144d8:	b570      	push	{r4, r5, r6, lr}
100144da:	4605      	mov	r5, r0
100144dc:	b084      	sub	sp, #16
100144de:	b15b      	cbz	r3, 100144f8 <_wcrtomb_r+0x20>
100144e0:	461c      	mov	r4, r3
100144e2:	4b0f      	ldr	r3, [pc, #60]	@ (10014520 <_wcrtomb_r+0x48>)
100144e4:	f8d3 60e0 	ldr.w	r6, [r3, #224]	@ 0xe0
100144e8:	4623      	mov	r3, r4
100144ea:	b169      	cbz	r1, 10014508 <_wcrtomb_r+0x30>
100144ec:	4628      	mov	r0, r5
100144ee:	47b0      	blx	r6
100144f0:	1c43      	adds	r3, r0, #1
100144f2:	d00f      	beq.n	10014514 <_wcrtomb_r+0x3c>
100144f4:	b004      	add	sp, #16
100144f6:	bd70      	pop	{r4, r5, r6, pc}
100144f8:	4b09      	ldr	r3, [pc, #36]	@ (10014520 <_wcrtomb_r+0x48>)
100144fa:	f500 7482 	add.w	r4, r0, #260	@ 0x104
100144fe:	f8d3 60e0 	ldr.w	r6, [r3, #224]	@ 0xe0
10014502:	4623      	mov	r3, r4
10014504:	2900      	cmp	r1, #0
10014506:	d1f1      	bne.n	100144ec <_wcrtomb_r+0x14>
10014508:	460a      	mov	r2, r1
1001450a:	4628      	mov	r0, r5
1001450c:	a901      	add	r1, sp, #4
1001450e:	47b0      	blx	r6
10014510:	1c43      	adds	r3, r0, #1
10014512:	d1ef      	bne.n	100144f4 <_wcrtomb_r+0x1c>
10014514:	2200      	movs	r2, #0
10014516:	238a      	movs	r3, #138	@ 0x8a
10014518:	6022      	str	r2, [r4, #0]
1001451a:	602b      	str	r3, [r5, #0]
1001451c:	b004      	add	sp, #16
1001451e:	bd70      	pop	{r4, r5, r6, pc}
10014520:	20000454 	.word	0x20000454

10014524 <_wcsrtombs_r>:
10014524:	b510      	push	{r4, lr}
10014526:	b082      	sub	sp, #8
10014528:	9c04      	ldr	r4, [sp, #16]
1001452a:	e9cd 3400 	strd	r3, r4, [sp]
1001452e:	f04f 33ff 	mov.w	r3, #4294967295	@ 0xffffffff
10014532:	f003 fd11 	bl	10017f58 <_wcsnrtombs_r>
10014536:	b002      	add	sp, #8
10014538:	bd10      	pop	{r4, pc}
1001453a:	bf00      	nop

1001453c <frexp>:
1001453c:	f8df c064 	ldr.w	ip, [pc, #100]	@ 100145a4 <frexp+0x68>
10014540:	b5f8      	push	{r3, r4, r5, r6, r7, lr}
10014542:	f021 4300 	bic.w	r3, r1, #2147483648	@ 0x80000000
10014546:	2700      	movs	r7, #0
10014548:	4563      	cmp	r3, ip
1001454a:	4604      	mov	r4, r0
1001454c:	460d      	mov	r5, r1
1001454e:	4616      	mov	r6, r2
10014550:	6017      	str	r7, [r2, #0]
10014552:	d822      	bhi.n	1001459a <frexp+0x5e>
10014554:	4684      	mov	ip, r0
10014556:	ea53 0c0c 	orrs.w	ip, r3, ip
1001455a:	d01e      	beq.n	1001459a <frexp+0x5e>
1001455c:	f8df c048 	ldr.w	ip, [pc, #72]	@ 100145a8 <frexp+0x6c>
10014560:	ea01 0c0c 	and.w	ip, r1, ip
10014564:	460a      	mov	r2, r1
10014566:	f1bc 0f00 	cmp.w	ip, #0
1001456a:	d109      	bne.n	10014580 <frexp+0x44>
1001456c:	4b0c      	ldr	r3, [pc, #48]	@ (100145a0 <frexp+0x64>)
1001456e:	2200      	movs	r2, #0
10014570:	f004 f84c 	bl	1001860c <__aeabi_dmul>
10014574:	f06f 0735 	mvn.w	r7, #53	@ 0x35
10014578:	4604      	mov	r4, r0
1001457a:	460a      	mov	r2, r1
1001457c:	f021 4300 	bic.w	r3, r1, #2147483648	@ 0x80000000
10014580:	f022 42ff 	bic.w	r2, r2, #2139095040	@ 0x7f800000
10014584:	151b      	asrs	r3, r3, #20
10014586:	f422 02e0 	bic.w	r2, r2, #7340032	@ 0x700000
1001458a:	f2a3 33fe 	subw	r3, r3, #1022	@ 0x3fe
1001458e:	f042 557f 	orr.w	r5, r2, #1069547520	@ 0x3fc00000
10014592:	443b      	add	r3, r7
10014594:	f445 1500 	orr.w	r5, r5, #2097152	@ 0x200000
10014598:	6033      	str	r3, [r6, #0]
1001459a:	4620      	mov	r0, r4
1001459c:	4629      	mov	r1, r5
1001459e:	bdf8      	pop	{r3, r4, r5, r6, r7, pc}
100145a0:	43500000 	.word	0x43500000
100145a4:	7fefffff 	.word	0x7fefffff
100145a8:	7ff00000 	.word	0x7ff00000

100145ac <register_fini>:
100145ac:	4b02      	ldr	r3, [pc, #8]	@ (100145b8 <register_fini+0xc>)
100145ae:	b113      	cbz	r3, 100145b6 <register_fini+0xa>
100145b0:	4802      	ldr	r0, [pc, #8]	@ (100145bc <register_fini+0x10>)
100145b2:	f000 b805 	b.w	100145c0 <atexit>
100145b6:	4770      	bx	lr
100145b8:	00000000 	.word	0x00000000
100145bc:	10017e35 	.word	0x10017e35

100145c0 <atexit>:
100145c0:	2300      	movs	r3, #0
100145c2:	4601      	mov	r1, r0
100145c4:	461a      	mov	r2, r3
100145c6:	4618      	mov	r0, r3
100145c8:	f003 bcd8 	b.w	10017f7c <__register_exitproc>

100145cc <quorem>:
100145cc:	e92d 4ff0 	stmdb	sp!, {r4, r5, r6, r7, r8, r9, sl, fp, lr}
100145d0:	6903      	ldr	r3, [r0, #16]
100145d2:	690c      	ldr	r4, [r1, #16]
100145d4:	42a3      	cmp	r3, r4
100145d6:	b083      	sub	sp, #12
100145d8:	f2c0 808a 	blt.w	100146f0 <quorem+0x124>
100145dc:	3c01      	subs	r4, #1
100145de:	f101 0514 	add.w	r5, r1, #20
100145e2:	f100 0814 	add.w	r8, r0, #20
100145e6:	f855 3024 	ldr.w	r3, [r5, r4, lsl #2]
100145ea:	f858 2024 	ldr.w	r2, [r8, r4, lsl #2]
100145ee:	3301      	adds	r3, #1
100145f0:	429a      	cmp	r2, r3
100145f2:	468e      	mov	lr, r1
100145f4:	4681      	mov	r9, r0
100145f6:	ea4f 0184 	mov.w	r1, r4, lsl #2
100145fa:	eb05 0784 	add.w	r7, r5, r4, lsl #2
100145fe:	eb08 0a84 	add.w	sl, r8, r4, lsl #2
10014602:	fbb2 f6f3 	udiv	r6, r2, r3
10014606:	d33a      	bcc.n	1001467e <quorem+0xb2>
10014608:	e9cd 1500 	strd	r1, r5, [sp]
1001460c:	2200      	movs	r2, #0
1001460e:	46ac      	mov	ip, r5
10014610:	4640      	mov	r0, r8
10014612:	4613      	mov	r3, r2
10014614:	f85c 1b04 	ldr.w	r1, [ip], #4
10014618:	6805      	ldr	r5, [r0, #0]
1001461a:	fa1f fb81 	uxth.w	fp, r1
1001461e:	fb06 220b 	mla	r2, r6, fp, r2
10014622:	0c09      	lsrs	r1, r1, #16
10014624:	ea4f 4b12 	mov.w	fp, r2, lsr #16
10014628:	fb06 bb01 	mla	fp, r6, r1, fp
1001462c:	b292      	uxth	r2, r2
1001462e:	b2a9      	uxth	r1, r5
10014630:	1a89      	subs	r1, r1, r2
10014632:	4419      	add	r1, r3
10014634:	fa1f f38b 	uxth.w	r3, fp
10014638:	ebc3 4321 	rsb	r3, r3, r1, asr #16
1001463c:	eb03 4315 	add.w	r3, r3, r5, lsr #16
10014640:	b289      	uxth	r1, r1
10014642:	ea41 4103 	orr.w	r1, r1, r3, lsl #16
10014646:	4567      	cmp	r7, ip
10014648:	f840 1b04 	str.w	r1, [r0], #4
1001464c:	ea4f 421b 	mov.w	r2, fp, lsr #16
10014650:	ea4f 4323 	mov.w	r3, r3, asr #16
10014654:	d2de      	bcs.n	10014614 <quorem+0x48>
10014656:	e9dd 1500 	ldrd	r1, r5, [sp]
1001465a:	f858 3001 	ldr.w	r3, [r8, r1]
1001465e:	b973      	cbnz	r3, 1001467e <quorem+0xb2>
10014660:	f1aa 0a04 	sub.w	sl, sl, #4
10014664:	45d0      	cmp	r8, sl
10014666:	d304      	bcc.n	10014672 <quorem+0xa6>
10014668:	e007      	b.n	1001467a <quorem+0xae>
1001466a:	45d0      	cmp	r8, sl
1001466c:	f104 34ff 	add.w	r4, r4, #4294967295	@ 0xffffffff
10014670:	d203      	bcs.n	1001467a <quorem+0xae>
10014672:	f85a 3904 	ldr.w	r3, [sl], #-4
10014676:	2b00      	cmp	r3, #0
10014678:	d0f7      	beq.n	1001466a <quorem+0x9e>
1001467a:	f8c9 4010 	str.w	r4, [r9, #16]
1001467e:	4671      	mov	r1, lr
10014680:	4648      	mov	r0, r9
10014682:	f003 f993 	bl	100179ac <__mcmp>
10014686:	2800      	cmp	r0, #0
10014688:	db2e      	blt.n	100146e8 <quorem+0x11c>
1001468a:	4641      	mov	r1, r8
1001468c:	2200      	movs	r2, #0
1001468e:	f855 0b04 	ldr.w	r0, [r5], #4
10014692:	f8d1 c000 	ldr.w	ip, [r1]
10014696:	fa1f fe80 	uxth.w	lr, r0
1001469a:	fa1f f38c 	uxth.w	r3, ip
1001469e:	eba3 030e 	sub.w	r3, r3, lr
100146a2:	4413      	add	r3, r2
100146a4:	0c02      	lsrs	r2, r0, #16
100146a6:	ebc2 4223 	rsb	r2, r2, r3, asr #16
100146aa:	eb02 421c 	add.w	r2, r2, ip, lsr #16
100146ae:	b29b      	uxth	r3, r3
100146b0:	ea43 4302 	orr.w	r3, r3, r2, lsl #16
100146b4:	42af      	cmp	r7, r5
100146b6:	f841 3b04 	str.w	r3, [r1], #4
100146ba:	ea4f 4222 	mov.w	r2, r2, asr #16
100146be:	d2e6      	bcs.n	1001468e <quorem+0xc2>
100146c0:	f858 2024 	ldr.w	r2, [r8, r4, lsl #2]
100146c4:	eb08 0384 	add.w	r3, r8, r4, lsl #2
100146c8:	b96a      	cbnz	r2, 100146e6 <quorem+0x11a>
100146ca:	3b04      	subs	r3, #4
100146cc:	4598      	cmp	r8, r3
100146ce:	d304      	bcc.n	100146da <quorem+0x10e>
100146d0:	e007      	b.n	100146e2 <quorem+0x116>
100146d2:	4598      	cmp	r8, r3
100146d4:	f104 34ff 	add.w	r4, r4, #4294967295	@ 0xffffffff
100146d8:	d203      	bcs.n	100146e2 <quorem+0x116>
100146da:	f853 2904 	ldr.w	r2, [r3], #-4
100146de:	2a00      	cmp	r2, #0
100146e0:	d0f7      	beq.n	100146d2 <quorem+0x106>
100146e2:	f8c9 4010 	str.w	r4, [r9, #16]
100146e6:	3601      	adds	r6, #1
100146e8:	4630      	mov	r0, r6
100146ea:	b003      	add	sp, #12
100146ec:	e8bd 8ff0 	ldmia.w	sp!, {r4, r5, r6, r7, r8, r9, sl, fp, pc}
100146f0:	2000      	movs	r0, #0
100146f2:	b003      	add	sp, #12
100146f4:	e8bd 8ff0 	ldmia.w	sp!, {r4, r5, r6, r7, r8, r9, sl, fp, pc}

100146f8 <_dtoa_r>:
100146f8:	e92d 4ff0 	stmdb	sp!, {r4, r5, r6, r7, r8, r9, sl, fp, lr}
100146fc:	6b81      	ldr	r1, [r0, #56]	@ 0x38
100146fe:	b09d      	sub	sp, #116	@ 0x74
10014700:	4616      	mov	r6, r2
10014702:	461f      	mov	r7, r3
10014704:	e9cd 6704 	strd	r6, r7, [sp, #16]
10014708:	9d29      	ldr	r5, [sp, #164]	@ 0xa4
1001470a:	9002      	str	r0, [sp, #8]
1001470c:	b149      	cbz	r1, 10014722 <_dtoa_r+0x2a>
1001470e:	6bc2      	ldr	r2, [r0, #60]	@ 0x3c
10014710:	604a      	str	r2, [r1, #4]
10014712:	2301      	movs	r3, #1
10014714:	4093      	lsls	r3, r2
10014716:	4604      	mov	r4, r0
10014718:	608b      	str	r3, [r1, #8]
1001471a:	f002 fee5 	bl	100174e8 <_Bfree>
1001471e:	2300      	movs	r3, #0
10014720:	63a3      	str	r3, [r4, #56]	@ 0x38
10014722:	f1b7 0900 	subs.w	r9, r7, #0
10014726:	bfb4      	ite	lt
10014728:	2301      	movlt	r3, #1
1001472a:	2300      	movge	r3, #0
1001472c:	602b      	str	r3, [r5, #0]
1001472e:	4b76      	ldr	r3, [pc, #472]	@ (10014908 <_dtoa_r+0x210>)
10014730:	bfbc      	itt	lt
10014732:	f029 4900 	biclt.w	r9, r9, #2147483648	@ 0x80000000
10014736:	f8cd 9014 	strlt.w	r9, [sp, #20]
1001473a:	ea33 0309 	bics.w	r3, r3, r9
1001473e:	f000 80aa 	beq.w	10014896 <_dtoa_r+0x19e>
10014742:	ed9d 7b04 	vldr	d7, [sp, #16]
10014746:	2200      	movs	r2, #0
10014748:	ec51 0b17 	vmov	r0, r1, d7
1001474c:	2300      	movs	r3, #0
1001474e:	ed8d 7b06 	vstr	d7, [sp, #24]
10014752:	f004 f9c3 	bl	10018adc <__aeabi_dcmpeq>
10014756:	4680      	mov	r8, r0
10014758:	b168      	cbz	r0, 10014776 <_dtoa_r+0x7e>
1001475a:	9a28      	ldr	r2, [sp, #160]	@ 0xa0
1001475c:	2301      	movs	r3, #1
1001475e:	6013      	str	r3, [r2, #0]
10014760:	9b2a      	ldr	r3, [sp, #168]	@ 0xa8
10014762:	b113      	cbz	r3, 1001476a <_dtoa_r+0x72>
10014764:	9a2a      	ldr	r2, [sp, #168]	@ 0xa8
10014766:	4b69      	ldr	r3, [pc, #420]	@ (1001490c <_dtoa_r+0x214>)
10014768:	6013      	str	r3, [r2, #0]
1001476a:	4b69      	ldr	r3, [pc, #420]	@ (10014910 <_dtoa_r+0x218>)
1001476c:	9303      	str	r3, [sp, #12]
1001476e:	9803      	ldr	r0, [sp, #12]
10014770:	b01d      	add	sp, #116	@ 0x74
10014772:	e8bd 8ff0 	ldmia.w	sp!, {r4, r5, r6, r7, r8, r9, sl, fp, pc}
10014776:	ab1a      	add	r3, sp, #104	@ 0x68
10014778:	9301      	str	r3, [sp, #4]
1001477a:	ab1b      	add	r3, sp, #108	@ 0x6c
1001477c:	9300      	str	r3, [sp, #0]
1001477e:	9802      	ldr	r0, [sp, #8]
10014780:	e9dd 2306 	ldrd	r2, r3, [sp, #24]
10014784:	f003 f9e6 	bl	10017b54 <__d2b>
10014788:	ea5f 5519 	movs.w	r5, r9, lsr #20
1001478c:	4682      	mov	sl, r0
1001478e:	f040 8098 	bne.w	100148c2 <_dtoa_r+0x1ca>
10014792:	e9dd 851a 	ldrd	r8, r5, [sp, #104]	@ 0x68
10014796:	4445      	add	r5, r8
10014798:	f205 4332 	addw	r3, r5, #1074	@ 0x432
1001479c:	2b20      	cmp	r3, #32
1001479e:	f340 8381 	ble.w	10014ea4 <_dtoa_r+0x7ac>
100147a2:	f1c3 0340 	rsb	r3, r3, #64	@ 0x40
100147a6:	fa09 f903 	lsl.w	r9, r9, r3
100147aa:	f205 4312 	addw	r3, r5, #1042	@ 0x412
100147ae:	fa26 f303 	lsr.w	r3, r6, r3
100147b2:	ea49 0003 	orr.w	r0, r9, r3
100147b6:	f003 feaf 	bl	10018518 <__aeabi_ui2d>
100147ba:	2301      	movs	r3, #1
100147bc:	3d01      	subs	r5, #1
100147be:	930f      	str	r3, [sp, #60]	@ 0x3c
100147c0:	f1a1 71f8 	sub.w	r1, r1, #32505856	@ 0x1f00000
100147c4:	4b53      	ldr	r3, [pc, #332]	@ (10014914 <_dtoa_r+0x21c>)
100147c6:	2200      	movs	r2, #0
100147c8:	f003 fd68 	bl	1001829c <__aeabi_dsub>
100147cc:	a348      	add	r3, pc, #288	@ (adr r3, 100148f0 <_dtoa_r+0x1f8>)
100147ce:	e9d3 2300 	ldrd	r2, r3, [r3]
100147d2:	f003 ff1b 	bl	1001860c <__aeabi_dmul>
100147d6:	a348      	add	r3, pc, #288	@ (adr r3, 100148f8 <_dtoa_r+0x200>)
100147d8:	e9d3 2300 	ldrd	r2, r3, [r3]
100147dc:	f003 fd60 	bl	100182a0 <__adddf3>
100147e0:	4606      	mov	r6, r0
100147e2:	4628      	mov	r0, r5
100147e4:	460f      	mov	r7, r1
100147e6:	f003 fea7 	bl	10018538 <__aeabi_i2d>
100147ea:	a345      	add	r3, pc, #276	@ (adr r3, 10014900 <_dtoa_r+0x208>)
100147ec:	e9d3 2300 	ldrd	r2, r3, [r3]
100147f0:	f003 ff0c 	bl	1001860c <__aeabi_dmul>
100147f4:	4602      	mov	r2, r0
100147f6:	460b      	mov	r3, r1
100147f8:	4630      	mov	r0, r6
100147fa:	4639      	mov	r1, r7
100147fc:	f003 fd50 	bl	100182a0 <__adddf3>
10014800:	4606      	mov	r6, r0
10014802:	460f      	mov	r7, r1
10014804:	f004 f9b2 	bl	10018b6c <__aeabi_d2iz>
10014808:	2200      	movs	r2, #0
1001480a:	4683      	mov	fp, r0
1001480c:	2300      	movs	r3, #0
1001480e:	4630      	mov	r0, r6
10014810:	4639      	mov	r1, r7
10014812:	f004 f96d 	bl	10018af0 <__aeabi_dcmplt>
10014816:	2800      	cmp	r0, #0
10014818:	f040 8318 	bne.w	10014e4c <_dtoa_r+0x754>
1001481c:	eba8 0805 	sub.w	r8, r8, r5
10014820:	f1bb 0f16 	cmp.w	fp, #22
10014824:	f108 34ff 	add.w	r4, r8, #4294967295	@ 0xffffffff
10014828:	f200 818a 	bhi.w	10014b40 <_dtoa_r+0x448>
1001482c:	4d3a      	ldr	r5, [pc, #232]	@ (10014918 <_dtoa_r+0x220>)
1001482e:	eb05 05cb 	add.w	r5, r5, fp, lsl #3
10014832:	e9d5 2300 	ldrd	r2, r3, [r5]
10014836:	e9dd 0106 	ldrd	r0, r1, [sp, #24]
1001483a:	f004 f959 	bl	10018af0 <__aeabi_dcmplt>
1001483e:	2800      	cmp	r0, #0
10014840:	d070      	beq.n	10014924 <_dtoa_r+0x22c>
10014842:	2300      	movs	r3, #0
10014844:	2c00      	cmp	r4, #0
10014846:	f10b 3bff 	add.w	fp, fp, #4294967295	@ 0xffffffff
1001484a:	930e      	str	r3, [sp, #56]	@ 0x38
1001484c:	f2c0 817d 	blt.w	10014b4a <_dtoa_r+0x452>
10014850:	2300      	movs	r3, #0
10014852:	9309      	str	r3, [sp, #36]	@ 0x24
10014854:	f1bb 0f00 	cmp.w	fp, #0
10014858:	da6a      	bge.n	10014930 <_dtoa_r+0x238>
1001485a:	9b09      	ldr	r3, [sp, #36]	@ 0x24
1001485c:	eba3 030b 	sub.w	r3, r3, fp
10014860:	9309      	str	r3, [sp, #36]	@ 0x24
10014862:	f1cb 0300 	rsb	r3, fp, #0
10014866:	e9cd b30c 	strd	fp, r3, [sp, #48]	@ 0x30
1001486a:	9b26      	ldr	r3, [sp, #152]	@ 0x98
1001486c:	2b09      	cmp	r3, #9
1001486e:	f04f 0b00 	mov.w	fp, #0
10014872:	d865      	bhi.n	10014940 <_dtoa_r+0x248>
10014874:	2b05      	cmp	r3, #5
10014876:	f340 831a 	ble.w	10014eae <_dtoa_r+0x7b6>
1001487a:	3b04      	subs	r3, #4
1001487c:	9326      	str	r3, [sp, #152]	@ 0x98
1001487e:	2500      	movs	r5, #0
10014880:	9b26      	ldr	r3, [sp, #152]	@ 0x98
10014882:	3b02      	subs	r3, #2
10014884:	2b03      	cmp	r3, #3
10014886:	f200 8621 	bhi.w	100154cc <_dtoa_r+0xdd4>
1001488a:	e8df f013 	tbh	[pc, r3, lsl #1]
1001488e:	045e      	.short	0x045e
10014890:	0452045b 	.word	0x0452045b
10014894:	0436      	.short	0x0436
10014896:	9a28      	ldr	r2, [sp, #160]	@ 0xa0
10014898:	f3c9 0913 	ubfx	r9, r9, #0, #20
1001489c:	f242 730f 	movw	r3, #9999	@ 0x270f
100148a0:	ea59 0906 	orrs.w	r9, r9, r6
100148a4:	6013      	str	r3, [r2, #0]
100148a6:	d11c      	bne.n	100148e2 <_dtoa_r+0x1ea>
100148a8:	9b2a      	ldr	r3, [sp, #168]	@ 0xa8
100148aa:	2b00      	cmp	r3, #0
100148ac:	f000 8629 	beq.w	10015502 <_dtoa_r+0xe0a>
100148b0:	4b1a      	ldr	r3, [pc, #104]	@ (1001491c <_dtoa_r+0x224>)
100148b2:	9303      	str	r3, [sp, #12]
100148b4:	3308      	adds	r3, #8
100148b6:	9a2a      	ldr	r2, [sp, #168]	@ 0xa8
100148b8:	9803      	ldr	r0, [sp, #12]
100148ba:	6013      	str	r3, [r2, #0]
100148bc:	b01d      	add	sp, #116	@ 0x74
100148be:	e8bd 8ff0 	ldmia.w	sp!, {r4, r5, r6, r7, r8, r9, sl, fp, pc}
100148c2:	e9dd 1206 	ldrd	r1, r2, [sp, #24]
100148c6:	f3c2 0313 	ubfx	r3, r2, #0, #20
100148ca:	4608      	mov	r0, r1
100148cc:	f043 517f 	orr.w	r1, r3, #1069547520	@ 0x3fc00000
100148d0:	f8cd 803c 	str.w	r8, [sp, #60]	@ 0x3c
100148d4:	f2a5 35ff 	subw	r5, r5, #1023	@ 0x3ff
100148d8:	f8dd 8068 	ldr.w	r8, [sp, #104]	@ 0x68
100148dc:	f441 1140 	orr.w	r1, r1, #3145728	@ 0x300000
100148e0:	e770      	b.n	100147c4 <_dtoa_r+0xcc>
100148e2:	9b2a      	ldr	r3, [sp, #168]	@ 0xa8
100148e4:	2b00      	cmp	r3, #0
100148e6:	f040 83e5 	bne.w	100150b4 <_dtoa_r+0x9bc>
100148ea:	4b0d      	ldr	r3, [pc, #52]	@ (10014920 <_dtoa_r+0x228>)
100148ec:	9303      	str	r3, [sp, #12]
100148ee:	e73e      	b.n	1001476e <_dtoa_r+0x76>
100148f0:	636f4361 	.word	0x636f4361
100148f4:	3fd287a7 	.word	0x3fd287a7
100148f8:	8b60c8b3 	.word	0x8b60c8b3
100148fc:	3fc68a28 	.word	0x3fc68a28
10014900:	509f79fb 	.word	0x509f79fb
10014904:	3fd34413 	.word	0x3fd34413
10014908:	7ff00000 	.word	0x7ff00000
1001490c:	100192a5 	.word	0x100192a5
10014910:	100192a4 	.word	0x100192a4
10014914:	3ff80000 	.word	0x3ff80000
10014918:	10019578 	.word	0x10019578
1001491c:	10019434 	.word	0x10019434
10014920:	10019440 	.word	0x10019440
10014924:	f1b8 0f00 	cmp.w	r8, #0
10014928:	f340 845e 	ble.w	100151e8 <_dtoa_r+0xaf0>
1001492c:	900e      	str	r0, [sp, #56]	@ 0x38
1001492e:	9009      	str	r0, [sp, #36]	@ 0x24
10014930:	2300      	movs	r3, #0
10014932:	930d      	str	r3, [sp, #52]	@ 0x34
10014934:	9b26      	ldr	r3, [sp, #152]	@ 0x98
10014936:	f8cd b030 	str.w	fp, [sp, #48]	@ 0x30
1001493a:	2b09      	cmp	r3, #9
1001493c:	445c      	add	r4, fp
1001493e:	d999      	bls.n	10014874 <_dtoa_r+0x17c>
10014940:	2300      	movs	r3, #0
10014942:	e9cd 3326 	strd	r3, r3, [sp, #152]	@ 0x98
10014946:	2501      	movs	r5, #1
10014948:	f04f 33ff 	mov.w	r3, #4294967295	@ 0xffffffff
1001494c:	950a      	str	r5, [sp, #40]	@ 0x28
1001494e:	9308      	str	r3, [sp, #32]
10014950:	9b02      	ldr	r3, [sp, #8]
10014952:	2100      	movs	r1, #0
10014954:	63d9      	str	r1, [r3, #60]	@ 0x3c
10014956:	9b08      	ldr	r3, [sp, #32]
10014958:	9316      	str	r3, [sp, #88]	@ 0x58
1001495a:	9802      	ldr	r0, [sp, #8]
1001495c:	f002 fd9e 	bl	1001749c <_Balloc>
10014960:	9003      	str	r0, [sp, #12]
10014962:	2800      	cmp	r0, #0
10014964:	f000 85bb 	beq.w	100154de <_dtoa_r+0xde6>
10014968:	e9dd 3202 	ldrd	r3, r2, [sp, #8]
1001496c:	639a      	str	r2, [r3, #56]	@ 0x38
1001496e:	9b08      	ldr	r3, [sp, #32]
10014970:	2b0e      	cmp	r3, #14
10014972:	f200 8114 	bhi.w	10014b9e <_dtoa_r+0x4a6>
10014976:	2d00      	cmp	r5, #0
10014978:	f000 8111 	beq.w	10014b9e <_dtoa_r+0x4a6>
1001497c:	9a0c      	ldr	r2, [sp, #48]	@ 0x30
1001497e:	2a00      	cmp	r2, #0
10014980:	f340 8439 	ble.w	100151f6 <_dtoa_r+0xafe>
10014984:	4db1      	ldr	r5, [pc, #708]	@ (10014c4c <_dtoa_r+0x554>)
10014986:	f002 030f 	and.w	r3, r2, #15
1001498a:	eb05 03c3 	add.w	r3, r5, r3, lsl #3
1001498e:	1115      	asrs	r5, r2, #4
10014990:	05d2      	lsls	r2, r2, #23
10014992:	e9d3 8900 	ldrd	r8, r9, [r3]
10014996:	f140 83f9 	bpl.w	1001518c <_dtoa_r+0xa94>
1001499a:	4bad      	ldr	r3, [pc, #692]	@ (10014c50 <_dtoa_r+0x558>)
1001499c:	e9dd 0106 	ldrd	r0, r1, [sp, #24]
100149a0:	e9d3 2308 	ldrd	r2, r3, [r3, #32]
100149a4:	f003 ff5c 	bl	10018860 <__aeabi_ddiv>
100149a8:	e9cd 0110 	strd	r0, r1, [sp, #64]	@ 0x40
100149ac:	f005 050f 	and.w	r5, r5, #15
100149b0:	2703      	movs	r7, #3
100149b2:	b17d      	cbz	r5, 100149d4 <_dtoa_r+0x2dc>
100149b4:	4ea6      	ldr	r6, [pc, #664]	@ (10014c50 <_dtoa_r+0x558>)
100149b6:	07eb      	lsls	r3, r5, #31
100149b8:	d508      	bpl.n	100149cc <_dtoa_r+0x2d4>
100149ba:	4640      	mov	r0, r8
100149bc:	4649      	mov	r1, r9
100149be:	e9d6 2300 	ldrd	r2, r3, [r6]
100149c2:	f003 fe23 	bl	1001860c <__aeabi_dmul>
100149c6:	3701      	adds	r7, #1
100149c8:	4680      	mov	r8, r0
100149ca:	4689      	mov	r9, r1
100149cc:	106d      	asrs	r5, r5, #1
100149ce:	f106 0608 	add.w	r6, r6, #8
100149d2:	d1f0      	bne.n	100149b6 <_dtoa_r+0x2be>
100149d4:	4642      	mov	r2, r8
100149d6:	464b      	mov	r3, r9
100149d8:	e9dd 0110 	ldrd	r0, r1, [sp, #64]	@ 0x40
100149dc:	f003 ff40 	bl	10018860 <__aeabi_ddiv>
100149e0:	4680      	mov	r8, r0
100149e2:	4689      	mov	r9, r1
100149e4:	9b0e      	ldr	r3, [sp, #56]	@ 0x38
100149e6:	b143      	cbz	r3, 100149fa <_dtoa_r+0x302>
100149e8:	4b9a      	ldr	r3, [pc, #616]	@ (10014c54 <_dtoa_r+0x55c>)
100149ea:	2200      	movs	r2, #0
100149ec:	4640      	mov	r0, r8
100149ee:	4649      	mov	r1, r9
100149f0:	f004 f87e 	bl	10018af0 <__aeabi_dcmplt>
100149f4:	2800      	cmp	r0, #0
100149f6:	f040 84f0 	bne.w	100153da <_dtoa_r+0xce2>
100149fa:	4638      	mov	r0, r7
100149fc:	f003 fd9c 	bl	10018538 <__aeabi_i2d>
10014a00:	4642      	mov	r2, r8
10014a02:	464b      	mov	r3, r9
10014a04:	f003 fe02 	bl	1001860c <__aeabi_dmul>
10014a08:	4b93      	ldr	r3, [pc, #588]	@ (10014c58 <_dtoa_r+0x560>)
10014a0a:	2200      	movs	r2, #0
10014a0c:	f003 fc48 	bl	100182a0 <__adddf3>
10014a10:	9b08      	ldr	r3, [sp, #32]
10014a12:	4606      	mov	r6, r0
10014a14:	f1a1 7750 	sub.w	r7, r1, #54525952	@ 0x3400000
10014a18:	2b00      	cmp	r3, #0
10014a1a:	f000 80a9 	beq.w	10014b70 <_dtoa_r+0x478>
10014a1e:	9b0c      	ldr	r3, [sp, #48]	@ 0x30
10014a20:	9317      	str	r3, [sp, #92]	@ 0x5c
10014a22:	9b08      	ldr	r3, [sp, #32]
10014a24:	9310      	str	r3, [sp, #64]	@ 0x40
10014a26:	9b03      	ldr	r3, [sp, #12]
10014a28:	4d88      	ldr	r5, [pc, #544]	@ (10014c4c <_dtoa_r+0x554>)
10014a2a:	4649      	mov	r1, r9
10014a2c:	4640      	mov	r0, r8
10014a2e:	e9cd 6712 	strd	r6, r7, [sp, #72]	@ 0x48
10014a32:	1c5e      	adds	r6, r3, #1
10014a34:	f004 f89a 	bl	10018b6c <__aeabi_d2iz>
10014a38:	9910      	ldr	r1, [sp, #64]	@ 0x40
10014a3a:	eb05 03c1 	add.w	r3, r5, r1, lsl #3
10014a3e:	ed13 7b02 	vldr	d7, [r3, #-8]
10014a42:	4607      	mov	r7, r0
10014a44:	ed8d 7b14 	vstr	d7, [sp, #80]	@ 0x50
10014a48:	f003 fd76 	bl	10018538 <__aeabi_i2d>
10014a4c:	4602      	mov	r2, r0
10014a4e:	460b      	mov	r3, r1
10014a50:	4640      	mov	r0, r8
10014a52:	4649      	mov	r1, r9
10014a54:	f003 fc22 	bl	1001829c <__aeabi_dsub>
10014a58:	4689      	mov	r9, r1
10014a5a:	990a      	ldr	r1, [sp, #40]	@ 0x28
10014a5c:	3730      	adds	r7, #48	@ 0x30
10014a5e:	e9dd 2314 	ldrd	r2, r3, [sp, #80]	@ 0x50
10014a62:	4680      	mov	r8, r0
10014a64:	b2ff      	uxtb	r7, r7
10014a66:	2900      	cmp	r1, #0
10014a68:	f000 8452 	beq.w	10015310 <_dtoa_r+0xc18>
10014a6c:	497b      	ldr	r1, [pc, #492]	@ (10014c5c <_dtoa_r+0x564>)
10014a6e:	2000      	movs	r0, #0
10014a70:	f003 fef6 	bl	10018860 <__aeabi_ddiv>
10014a74:	e9dd 2312 	ldrd	r2, r3, [sp, #72]	@ 0x48
10014a78:	f003 fc10 	bl	1001829c <__aeabi_dsub>
10014a7c:	9d03      	ldr	r5, [sp, #12]
10014a7e:	4602      	mov	r2, r0
10014a80:	460b      	mov	r3, r1
10014a82:	e9cd 2312 	strd	r2, r3, [sp, #72]	@ 0x48
10014a86:	702f      	strb	r7, [r5, #0]
10014a88:	4642      	mov	r2, r8
10014a8a:	464b      	mov	r3, r9
10014a8c:	f004 f84e 	bl	10018b2c <__aeabi_dcmpgt>
10014a90:	2800      	cmp	r0, #0
10014a92:	f040 8496 	bne.w	100153c2 <_dtoa_r+0xcca>
10014a96:	e9cd b418 	strd	fp, r4, [sp, #96]	@ 0x60
10014a9a:	f8cd a050 	str.w	sl, [sp, #80]	@ 0x50
10014a9e:	9d10      	ldr	r5, [sp, #64]	@ 0x40
10014aa0:	e9dd ab12 	ldrd	sl, fp, [sp, #72]	@ 0x48
10014aa4:	2700      	movs	r7, #0
10014aa6:	e02a      	b.n	10014afe <_dtoa_r+0x406>
10014aa8:	3701      	adds	r7, #1
10014aaa:	42af      	cmp	r7, r5
10014aac:	f280 84dd 	bge.w	1001546a <_dtoa_r+0xd72>
10014ab0:	4b6b      	ldr	r3, [pc, #428]	@ (10014c60 <_dtoa_r+0x568>)
10014ab2:	4650      	mov	r0, sl
10014ab4:	4659      	mov	r1, fp
10014ab6:	2200      	movs	r2, #0
10014ab8:	f003 fda8 	bl	1001860c <__aeabi_dmul>
10014abc:	4b68      	ldr	r3, [pc, #416]	@ (10014c60 <_dtoa_r+0x568>)
10014abe:	2200      	movs	r2, #0
10014ac0:	4682      	mov	sl, r0
10014ac2:	468b      	mov	fp, r1
10014ac4:	4640      	mov	r0, r8
10014ac6:	4649      	mov	r1, r9
10014ac8:	f003 fda0 	bl	1001860c <__aeabi_dmul>
10014acc:	4689      	mov	r9, r1
10014ace:	4680      	mov	r8, r0
10014ad0:	f004 f84c 	bl	10018b6c <__aeabi_d2iz>
10014ad4:	4604      	mov	r4, r0
10014ad6:	f003 fd2f 	bl	10018538 <__aeabi_i2d>
10014ada:	4602      	mov	r2, r0
10014adc:	460b      	mov	r3, r1
10014ade:	4640      	mov	r0, r8
10014ae0:	4649      	mov	r1, r9
10014ae2:	f003 fbdb 	bl	1001829c <__aeabi_dsub>
10014ae6:	3430      	adds	r4, #48	@ 0x30
10014ae8:	f806 4b01 	strb.w	r4, [r6], #1
10014aec:	4652      	mov	r2, sl
10014aee:	465b      	mov	r3, fp
10014af0:	4680      	mov	r8, r0
10014af2:	4689      	mov	r9, r1
10014af4:	f003 fffc 	bl	10018af0 <__aeabi_dcmplt>
10014af8:	2800      	cmp	r0, #0
10014afa:	f040 84b3 	bne.w	10015464 <_dtoa_r+0xd6c>
10014afe:	4642      	mov	r2, r8
10014b00:	464b      	mov	r3, r9
10014b02:	4954      	ldr	r1, [pc, #336]	@ (10014c54 <_dtoa_r+0x55c>)
10014b04:	2000      	movs	r0, #0
10014b06:	f003 fbc9 	bl	1001829c <__aeabi_dsub>
10014b0a:	4652      	mov	r2, sl
10014b0c:	465b      	mov	r3, fp
10014b0e:	f003 ffef 	bl	10018af0 <__aeabi_dcmplt>
10014b12:	2800      	cmp	r0, #0
10014b14:	d0c8      	beq.n	10014aa8 <_dtoa_r+0x3b0>
10014b16:	9b17      	ldr	r3, [sp, #92]	@ 0x5c
10014b18:	f8dd a050 	ldr.w	sl, [sp, #80]	@ 0x50
10014b1c:	9a03      	ldr	r2, [sp, #12]
10014b1e:	4637      	mov	r7, r6
10014b20:	f103 0801 	add.w	r8, r3, #1
10014b24:	e002      	b.n	10014b2c <_dtoa_r+0x434>
10014b26:	4297      	cmp	r7, r2
10014b28:	f000 847b 	beq.w	10015422 <_dtoa_r+0xd2a>
10014b2c:	463e      	mov	r6, r7
10014b2e:	f817 3d01 	ldrb.w	r3, [r7, #-1]!
10014b32:	2b39      	cmp	r3, #57	@ 0x39
10014b34:	d0f7      	beq.n	10014b26 <_dtoa_r+0x42e>
10014b36:	3301      	adds	r3, #1
10014b38:	b2db      	uxtb	r3, r3
10014b3a:	703b      	strb	r3, [r7, #0]
10014b3c:	4645      	mov	r5, r8
10014b3e:	e174      	b.n	10014e2a <_dtoa_r+0x732>
10014b40:	2301      	movs	r3, #1
10014b42:	2c00      	cmp	r4, #0
10014b44:	930e      	str	r3, [sp, #56]	@ 0x38
10014b46:	f6bf ae83 	bge.w	10014850 <_dtoa_r+0x158>
10014b4a:	f1c8 0301 	rsb	r3, r8, #1
10014b4e:	9309      	str	r3, [sp, #36]	@ 0x24
10014b50:	2400      	movs	r4, #0
10014b52:	e67f      	b.n	10014854 <_dtoa_r+0x15c>
10014b54:	4638      	mov	r0, r7
10014b56:	f003 fcef 	bl	10018538 <__aeabi_i2d>
10014b5a:	4642      	mov	r2, r8
10014b5c:	464b      	mov	r3, r9
10014b5e:	f003 fd55 	bl	1001860c <__aeabi_dmul>
10014b62:	4b3d      	ldr	r3, [pc, #244]	@ (10014c58 <_dtoa_r+0x560>)
10014b64:	2200      	movs	r2, #0
10014b66:	f003 fb9b 	bl	100182a0 <__adddf3>
10014b6a:	4606      	mov	r6, r0
10014b6c:	f1a1 7750 	sub.w	r7, r1, #54525952	@ 0x3400000
10014b70:	4b3c      	ldr	r3, [pc, #240]	@ (10014c64 <_dtoa_r+0x56c>)
10014b72:	4640      	mov	r0, r8
10014b74:	4649      	mov	r1, r9
10014b76:	2200      	movs	r2, #0
10014b78:	f003 fb90 	bl	1001829c <__aeabi_dsub>
10014b7c:	4632      	mov	r2, r6
10014b7e:	463b      	mov	r3, r7
10014b80:	4680      	mov	r8, r0
10014b82:	4689      	mov	r9, r1
10014b84:	f003 ffd2 	bl	10018b2c <__aeabi_dcmpgt>
10014b88:	2800      	cmp	r0, #0
10014b8a:	f040 8459 	bne.w	10015440 <_dtoa_r+0xd48>
10014b8e:	4640      	mov	r0, r8
10014b90:	4649      	mov	r1, r9
10014b92:	4632      	mov	r2, r6
10014b94:	f107 4300 	add.w	r3, r7, #2147483648	@ 0x80000000
10014b98:	f003 ffaa 	bl	10018af0 <__aeabi_dcmplt>
10014b9c:	bb28      	cbnz	r0, 10014bea <_dtoa_r+0x4f2>
10014b9e:	9b1b      	ldr	r3, [sp, #108]	@ 0x6c
10014ba0:	2b00      	cmp	r3, #0
10014ba2:	f2c0 8091 	blt.w	10014cc8 <_dtoa_r+0x5d0>
10014ba6:	9a0c      	ldr	r2, [sp, #48]	@ 0x30
10014ba8:	2a0e      	cmp	r2, #14
10014baa:	f300 808d 	bgt.w	10014cc8 <_dtoa_r+0x5d0>
10014bae:	4d27      	ldr	r5, [pc, #156]	@ (10014c4c <_dtoa_r+0x554>)
10014bb0:	9b0c      	ldr	r3, [sp, #48]	@ 0x30
10014bb2:	eb05 05c3 	add.w	r5, r5, r3, lsl #3
10014bb6:	ed95 7b00 	vldr	d7, [r5]
10014bba:	9b27      	ldr	r3, [sp, #156]	@ 0x9c
10014bbc:	2b00      	cmp	r3, #0
10014bbe:	ed8d 7b04 	vstr	d7, [sp, #16]
10014bc2:	da19      	bge.n	10014bf8 <_dtoa_r+0x500>
10014bc4:	9b08      	ldr	r3, [sp, #32]
10014bc6:	2b00      	cmp	r3, #0
10014bc8:	dc16      	bgt.n	10014bf8 <_dtoa_r+0x500>
10014bca:	d10e      	bne.n	10014bea <_dtoa_r+0x4f2>
10014bcc:	4b25      	ldr	r3, [pc, #148]	@ (10014c64 <_dtoa_r+0x56c>)
10014bce:	2200      	movs	r2, #0
10014bd0:	e9dd 0104 	ldrd	r0, r1, [sp, #16]
10014bd4:	f003 fd1a 	bl	1001860c <__aeabi_dmul>
10014bd8:	4602      	mov	r2, r0
10014bda:	460b      	mov	r3, r1
10014bdc:	e9dd 0106 	ldrd	r0, r1, [sp, #24]
10014be0:	f003 ff90 	bl	10018b04 <__aeabi_dcmple>
10014be4:	2800      	cmp	r0, #0
10014be6:	f000 842b 	beq.w	10015440 <_dtoa_r+0xd48>
10014bea:	f04f 0900 	mov.w	r9, #0
10014bee:	9e03      	ldr	r6, [sp, #12]
10014bf0:	464f      	mov	r7, r9
10014bf2:	9b27      	ldr	r3, [sp, #156]	@ 0x9c
10014bf4:	43dd      	mvns	r5, r3
10014bf6:	e224      	b.n	10015042 <_dtoa_r+0x94a>
10014bf8:	e9dd 4504 	ldrd	r4, r5, [sp, #16]
10014bfc:	e9dd 8906 	ldrd	r8, r9, [sp, #24]
10014c00:	4622      	mov	r2, r4
10014c02:	462b      	mov	r3, r5
10014c04:	4640      	mov	r0, r8
10014c06:	4649      	mov	r1, r9
10014c08:	f003 fe2a 	bl	10018860 <__aeabi_ddiv>
10014c0c:	f003 ffae 	bl	10018b6c <__aeabi_d2iz>
10014c10:	4606      	mov	r6, r0
10014c12:	f003 fc91 	bl	10018538 <__aeabi_i2d>
10014c16:	4622      	mov	r2, r4
10014c18:	462b      	mov	r3, r5
10014c1a:	f003 fcf7 	bl	1001860c <__aeabi_dmul>
10014c1e:	9f03      	ldr	r7, [sp, #12]
10014c20:	460b      	mov	r3, r1
10014c22:	4602      	mov	r2, r0
10014c24:	4649      	mov	r1, r9
10014c26:	4640      	mov	r0, r8
10014c28:	f003 fb38 	bl	1001829c <__aeabi_dsub>
10014c2c:	f106 0330 	add.w	r3, r6, #48	@ 0x30
10014c30:	f807 3b01 	strb.w	r3, [r7], #1
10014c34:	9b08      	ldr	r3, [sp, #32]
10014c36:	2b01      	cmp	r3, #1
10014c38:	f000 8311 	beq.w	1001525e <_dtoa_r+0xb66>
10014c3c:	2501      	movs	r5, #1
10014c3e:	f8cd a018 	str.w	sl, [sp, #24]
10014c42:	4699      	mov	r9, r3
10014c44:	e9dd ab04 	ldrd	sl, fp, [sp, #16]
10014c48:	46a8      	mov	r8, r5
10014c4a:	e02b      	b.n	10014ca4 <_dtoa_r+0x5ac>
10014c4c:	10019578 	.word	0x10019578
10014c50:	10019550 	.word	0x10019550
10014c54:	3ff00000 	.word	0x3ff00000
10014c58:	401c0000 	.word	0x401c0000
10014c5c:	3fe00000 	.word	0x3fe00000
10014c60:	40240000 	.word	0x40240000
10014c64:	40140000 	.word	0x40140000
10014c68:	4652      	mov	r2, sl
10014c6a:	465b      	mov	r3, fp
10014c6c:	4620      	mov	r0, r4
10014c6e:	4629      	mov	r1, r5
10014c70:	f003 fdf6 	bl	10018860 <__aeabi_ddiv>
10014c74:	f003 ff7a 	bl	10018b6c <__aeabi_d2iz>
10014c78:	4606      	mov	r6, r0
10014c7a:	f003 fc5d 	bl	10018538 <__aeabi_i2d>
10014c7e:	4652      	mov	r2, sl
10014c80:	465b      	mov	r3, fp
10014c82:	f003 fcc3 	bl	1001860c <__aeabi_dmul>
10014c86:	f108 0801 	add.w	r8, r8, #1
10014c8a:	460b      	mov	r3, r1
10014c8c:	4602      	mov	r2, r0
10014c8e:	4629      	mov	r1, r5
10014c90:	4620      	mov	r0, r4
10014c92:	f003 fb03 	bl	1001829c <__aeabi_dsub>
10014c96:	f106 0330 	add.w	r3, r6, #48	@ 0x30
10014c9a:	45c8      	cmp	r8, r9
10014c9c:	f807 3b01 	strb.w	r3, [r7], #1
10014ca0:	f000 82db 	beq.w	1001525a <_dtoa_r+0xb62>
10014ca4:	4bb9      	ldr	r3, [pc, #740]	@ (10014f8c <_dtoa_r+0x894>)
10014ca6:	2200      	movs	r2, #0
10014ca8:	f003 fcb0 	bl	1001860c <__aeabi_dmul>
10014cac:	2200      	movs	r2, #0
10014cae:	2300      	movs	r3, #0
10014cb0:	4604      	mov	r4, r0
10014cb2:	460d      	mov	r5, r1
10014cb4:	f003 ff12 	bl	10018adc <__aeabi_dcmpeq>
10014cb8:	2800      	cmp	r0, #0
10014cba:	d0d5      	beq.n	10014c68 <_dtoa_r+0x570>
10014cbc:	9d0c      	ldr	r5, [sp, #48]	@ 0x30
10014cbe:	f8dd a018 	ldr.w	sl, [sp, #24]
10014cc2:	3501      	adds	r5, #1
10014cc4:	463e      	mov	r6, r7
10014cc6:	e0b0      	b.n	10014e2a <_dtoa_r+0x732>
10014cc8:	9a0a      	ldr	r2, [sp, #40]	@ 0x28
10014cca:	2a00      	cmp	r2, #0
10014ccc:	f040 80d2 	bne.w	10014e74 <_dtoa_r+0x77c>
10014cd0:	2300      	movs	r3, #0
10014cd2:	9d0d      	ldr	r5, [sp, #52]	@ 0x34
10014cd4:	9e09      	ldr	r6, [sp, #36]	@ 0x24
10014cd6:	930a      	str	r3, [sp, #40]	@ 0x28
10014cd8:	461f      	mov	r7, r3
10014cda:	b156      	cbz	r6, 10014cf2 <_dtoa_r+0x5fa>
10014cdc:	2c00      	cmp	r4, #0
10014cde:	dd08      	ble.n	10014cf2 <_dtoa_r+0x5fa>
10014ce0:	42a6      	cmp	r6, r4
10014ce2:	9a09      	ldr	r2, [sp, #36]	@ 0x24
10014ce4:	4633      	mov	r3, r6
10014ce6:	bfa8      	it	ge
10014ce8:	4623      	movge	r3, r4
10014cea:	1ad2      	subs	r2, r2, r3
10014cec:	9209      	str	r2, [sp, #36]	@ 0x24
10014cee:	1af6      	subs	r6, r6, r3
10014cf0:	1ae4      	subs	r4, r4, r3
10014cf2:	9b0d      	ldr	r3, [sp, #52]	@ 0x34
10014cf4:	b153      	cbz	r3, 10014d0c <_dtoa_r+0x614>
10014cf6:	9b0a      	ldr	r3, [sp, #40]	@ 0x28
10014cf8:	b113      	cbz	r3, 10014d00 <_dtoa_r+0x608>
10014cfa:	2d00      	cmp	r5, #0
10014cfc:	f040 82e8 	bne.w	100152d0 <_dtoa_r+0xbd8>
10014d00:	4651      	mov	r1, sl
10014d02:	9a0d      	ldr	r2, [sp, #52]	@ 0x34
10014d04:	9802      	ldr	r0, [sp, #8]
10014d06:	f002 fd7f 	bl	10017808 <__pow5mult>
10014d0a:	4682      	mov	sl, r0
10014d0c:	9802      	ldr	r0, [sp, #8]
10014d0e:	2101      	movs	r1, #1
10014d10:	f002 fc96 	bl	10017640 <__i2b>
10014d14:	4681      	mov	r9, r0
10014d16:	f1bb 0f00 	cmp.w	fp, #0
10014d1a:	f040 81b6 	bne.w	1001508a <_dtoa_r+0x992>
10014d1e:	9b26      	ldr	r3, [sp, #152]	@ 0x98
10014d20:	2b01      	cmp	r3, #1
10014d22:	f340 81cc 	ble.w	100150be <_dtoa_r+0x9c6>
10014d26:	2001      	movs	r0, #1
10014d28:	4420      	add	r0, r4
10014d2a:	f010 001f 	ands.w	r0, r0, #31
10014d2e:	f000 809a 	beq.w	10014e66 <_dtoa_r+0x76e>
10014d32:	f1c0 0320 	rsb	r3, r0, #32
10014d36:	2b04      	cmp	r3, #4
10014d38:	f340 81da 	ble.w	100150f0 <_dtoa_r+0x9f8>
10014d3c:	9b09      	ldr	r3, [sp, #36]	@ 0x24
10014d3e:	f1c0 001c 	rsb	r0, r0, #28
10014d42:	4403      	add	r3, r0
10014d44:	9309      	str	r3, [sp, #36]	@ 0x24
10014d46:	4406      	add	r6, r0
10014d48:	4404      	add	r4, r0
10014d4a:	9b09      	ldr	r3, [sp, #36]	@ 0x24
10014d4c:	2b00      	cmp	r3, #0
10014d4e:	dd05      	ble.n	10014d5c <_dtoa_r+0x664>
10014d50:	4651      	mov	r1, sl
10014d52:	9802      	ldr	r0, [sp, #8]
10014d54:	461a      	mov	r2, r3
10014d56:	f002 fdb1 	bl	100178bc <__lshift>
10014d5a:	4682      	mov	sl, r0
10014d5c:	2c00      	cmp	r4, #0
10014d5e:	dd05      	ble.n	10014d6c <_dtoa_r+0x674>
10014d60:	4649      	mov	r1, r9
10014d62:	9802      	ldr	r0, [sp, #8]
10014d64:	4622      	mov	r2, r4
10014d66:	f002 fda9 	bl	100178bc <__lshift>
10014d6a:	4681      	mov	r9, r0
10014d6c:	9b0e      	ldr	r3, [sp, #56]	@ 0x38
10014d6e:	2b00      	cmp	r3, #0
10014d70:	f040 8170 	bne.w	10015054 <_dtoa_r+0x95c>
10014d74:	9b08      	ldr	r3, [sp, #32]
10014d76:	2b00      	cmp	r3, #0
10014d78:	f340 8148 	ble.w	1001500c <_dtoa_r+0x914>
10014d7c:	9b0a      	ldr	r3, [sp, #40]	@ 0x28
10014d7e:	2b00      	cmp	r3, #0
10014d80:	f040 80a4 	bne.w	10014ecc <_dtoa_r+0x7d4>
10014d84:	9d0c      	ldr	r5, [sp, #48]	@ 0x30
10014d86:	3501      	adds	r5, #1
10014d88:	f8dd 800c 	ldr.w	r8, [sp, #12]
10014d8c:	9c08      	ldr	r4, [sp, #32]
10014d8e:	f8dd b008 	ldr.w	fp, [sp, #8]
10014d92:	2601      	movs	r6, #1
10014d94:	e007      	b.n	10014da6 <_dtoa_r+0x6ae>
10014d96:	4651      	mov	r1, sl
10014d98:	2300      	movs	r3, #0
10014d9a:	220a      	movs	r2, #10
10014d9c:	4658      	mov	r0, fp
10014d9e:	f002 fbad 	bl	100174fc <__multadd>
10014da2:	3601      	adds	r6, #1
10014da4:	4682      	mov	sl, r0
10014da6:	4649      	mov	r1, r9
10014da8:	4650      	mov	r0, sl
10014daa:	f7ff fc0f 	bl	100145cc <quorem>
10014dae:	42a6      	cmp	r6, r4
10014db0:	f100 0330 	add.w	r3, r0, #48	@ 0x30
10014db4:	f808 3b01 	strb.w	r3, [r8], #1
10014db8:	dbed      	blt.n	10014d96 <_dtoa_r+0x69e>
10014dba:	9a08      	ldr	r2, [sp, #32]
10014dbc:	2a00      	cmp	r2, #0
10014dbe:	bfc8      	it	gt
10014dc0:	4616      	movgt	r6, r2
10014dc2:	9a03      	ldr	r2, [sp, #12]
10014dc4:	bfd8      	it	le
10014dc6:	2601      	movle	r6, #1
10014dc8:	eb02 0b06 	add.w	fp, r2, r6
10014dcc:	2400      	movs	r4, #0
10014dce:	4651      	mov	r1, sl
10014dd0:	2201      	movs	r2, #1
10014dd2:	9802      	ldr	r0, [sp, #8]
10014dd4:	9304      	str	r3, [sp, #16]
10014dd6:	f002 fd71 	bl	100178bc <__lshift>
10014dda:	4649      	mov	r1, r9
10014ddc:	4682      	mov	sl, r0
10014dde:	f002 fde5 	bl	100179ac <__mcmp>
10014de2:	2800      	cmp	r0, #0
10014de4:	f340 81e3 	ble.w	100151ae <_dtoa_r+0xab6>
10014de8:	9a03      	ldr	r2, [sp, #12]
10014dea:	e002      	b.n	10014df2 <_dtoa_r+0x6fa>
10014dec:	455a      	cmp	r2, fp
10014dee:	f000 81e9 	beq.w	100151c4 <_dtoa_r+0xacc>
10014df2:	465e      	mov	r6, fp
10014df4:	f10b 3bff 	add.w	fp, fp, #4294967295	@ 0xffffffff
10014df8:	f816 3c01 	ldrb.w	r3, [r6, #-1]
10014dfc:	2b39      	cmp	r3, #57	@ 0x39
10014dfe:	d0f5      	beq.n	10014dec <_dtoa_r+0x6f4>
10014e00:	3301      	adds	r3, #1
10014e02:	f88b 3000 	strb.w	r3, [fp]
10014e06:	f8dd 8008 	ldr.w	r8, [sp, #8]
10014e0a:	4649      	mov	r1, r9
10014e0c:	4640      	mov	r0, r8
10014e0e:	f002 fb6b 	bl	100174e8 <_Bfree>
10014e12:	b157      	cbz	r7, 10014e2a <_dtoa_r+0x732>
10014e14:	b12c      	cbz	r4, 10014e22 <_dtoa_r+0x72a>
10014e16:	42bc      	cmp	r4, r7
10014e18:	d003      	beq.n	10014e22 <_dtoa_r+0x72a>
10014e1a:	4621      	mov	r1, r4
10014e1c:	4640      	mov	r0, r8
10014e1e:	f002 fb63 	bl	100174e8 <_Bfree>
10014e22:	9802      	ldr	r0, [sp, #8]
10014e24:	4639      	mov	r1, r7
10014e26:	f002 fb5f 	bl	100174e8 <_Bfree>
10014e2a:	9802      	ldr	r0, [sp, #8]
10014e2c:	4651      	mov	r1, sl
10014e2e:	f002 fb5b 	bl	100174e8 <_Bfree>
10014e32:	2300      	movs	r3, #0
10014e34:	7033      	strb	r3, [r6, #0]
10014e36:	9b28      	ldr	r3, [sp, #160]	@ 0xa0
10014e38:	601d      	str	r5, [r3, #0]
10014e3a:	9b2a      	ldr	r3, [sp, #168]	@ 0xa8
10014e3c:	2b00      	cmp	r3, #0
10014e3e:	f43f ac96 	beq.w	1001476e <_dtoa_r+0x76>
10014e42:	9803      	ldr	r0, [sp, #12]
10014e44:	601e      	str	r6, [r3, #0]
10014e46:	b01d      	add	sp, #116	@ 0x74
10014e48:	e8bd 8ff0 	ldmia.w	sp!, {r4, r5, r6, r7, r8, r9, sl, fp, pc}
10014e4c:	4658      	mov	r0, fp
10014e4e:	f003 fb73 	bl	10018538 <__aeabi_i2d>
10014e52:	4632      	mov	r2, r6
10014e54:	463b      	mov	r3, r7
10014e56:	f003 fe41 	bl	10018adc <__aeabi_dcmpeq>
10014e5a:	2800      	cmp	r0, #0
10014e5c:	f47f acde 	bne.w	1001481c <_dtoa_r+0x124>
10014e60:	f10b 3bff 	add.w	fp, fp, #4294967295	@ 0xffffffff
10014e64:	e4da      	b.n	1001481c <_dtoa_r+0x124>
10014e66:	231c      	movs	r3, #28
10014e68:	9a09      	ldr	r2, [sp, #36]	@ 0x24
10014e6a:	441a      	add	r2, r3
10014e6c:	9209      	str	r2, [sp, #36]	@ 0x24
10014e6e:	441e      	add	r6, r3
10014e70:	441c      	add	r4, r3
10014e72:	e76a      	b.n	10014d4a <_dtoa_r+0x652>
10014e74:	9a26      	ldr	r2, [sp, #152]	@ 0x98
10014e76:	2a01      	cmp	r2, #1
10014e78:	f340 81a9 	ble.w	100151ce <_dtoa_r+0xad6>
10014e7c:	9b08      	ldr	r3, [sp, #32]
10014e7e:	9a0d      	ldr	r2, [sp, #52]	@ 0x34
10014e80:	1e5d      	subs	r5, r3, #1
10014e82:	42aa      	cmp	r2, r5
10014e84:	f2c0 816b 	blt.w	1001515e <_dtoa_r+0xa66>
10014e88:	2b00      	cmp	r3, #0
10014e8a:	eba2 0505 	sub.w	r5, r2, r5
10014e8e:	f280 82dd 	bge.w	1001544c <_dtoa_r+0xd54>
10014e92:	e9dd 2308 	ldrd	r2, r3, [sp, #32]
10014e96:	1a9e      	subs	r6, r3, r2
10014e98:	9802      	ldr	r0, [sp, #8]
10014e9a:	2101      	movs	r1, #1
10014e9c:	f002 fbd0 	bl	10017640 <__i2b>
10014ea0:	4607      	mov	r7, r0
10014ea2:	e71a      	b.n	10014cda <_dtoa_r+0x5e2>
10014ea4:	f1c3 0320 	rsb	r3, r3, #32
10014ea8:	fa06 f003 	lsl.w	r0, r6, r3
10014eac:	e483      	b.n	100147b6 <_dtoa_r+0xbe>
10014eae:	2501      	movs	r5, #1
10014eb0:	e4e6      	b.n	10014880 <_dtoa_r+0x188>
10014eb2:	4639      	mov	r1, r7
10014eb4:	2300      	movs	r3, #0
10014eb6:	9802      	ldr	r0, [sp, #8]
10014eb8:	220a      	movs	r2, #10
10014eba:	f002 fb1f 	bl	100174fc <__multadd>
10014ebe:	9b16      	ldr	r3, [sp, #88]	@ 0x58
10014ec0:	2b00      	cmp	r3, #0
10014ec2:	4607      	mov	r7, r0
10014ec4:	f340 82ef 	ble.w	100154a6 <_dtoa_r+0xdae>
10014ec8:	950c      	str	r5, [sp, #48]	@ 0x30
10014eca:	9308      	str	r3, [sp, #32]
10014ecc:	2e00      	cmp	r6, #0
10014ece:	f300 813f 	bgt.w	10015150 <_dtoa_r+0xa58>
10014ed2:	f1bb 0f00 	cmp.w	fp, #0
10014ed6:	f040 81df 	bne.w	10015298 <_dtoa_r+0xba0>
10014eda:	46b8      	mov	r8, r7
10014edc:	9e03      	ldr	r6, [sp, #12]
10014ede:	9c08      	ldr	r4, [sp, #32]
10014ee0:	1e73      	subs	r3, r6, #1
10014ee2:	441c      	add	r4, r3
10014ee4:	9b04      	ldr	r3, [sp, #16]
10014ee6:	940a      	str	r4, [sp, #40]	@ 0x28
10014ee8:	f003 0301 	and.w	r3, r3, #1
10014eec:	9c02      	ldr	r4, [sp, #8]
10014eee:	930d      	str	r3, [sp, #52]	@ 0x34
10014ef0:	4649      	mov	r1, r9
10014ef2:	4650      	mov	r0, sl
10014ef4:	f7ff fb6a 	bl	100145cc <quorem>
10014ef8:	4639      	mov	r1, r7
10014efa:	4683      	mov	fp, r0
10014efc:	4650      	mov	r0, sl
10014efe:	f002 fd55 	bl	100179ac <__mcmp>
10014f02:	4642      	mov	r2, r8
10014f04:	4649      	mov	r1, r9
10014f06:	4605      	mov	r5, r0
10014f08:	4620      	mov	r0, r4
10014f0a:	f002 fd71 	bl	100179f0 <__mdiff>
10014f0e:	68c2      	ldr	r2, [r0, #12]
10014f10:	4601      	mov	r1, r0
10014f12:	f10b 0330 	add.w	r3, fp, #48	@ 0x30
10014f16:	2a00      	cmp	r2, #0
10014f18:	d13a      	bne.n	10014f90 <_dtoa_r+0x898>
10014f1a:	e9cd 0308 	strd	r0, r3, [sp, #32]
10014f1e:	4650      	mov	r0, sl
10014f20:	f002 fd44 	bl	100179ac <__mcmp>
10014f24:	9908      	ldr	r1, [sp, #32]
10014f26:	9006      	str	r0, [sp, #24]
10014f28:	4620      	mov	r0, r4
10014f2a:	f002 fadd 	bl	100174e8 <_Bfree>
10014f2e:	9a06      	ldr	r2, [sp, #24]
10014f30:	9b09      	ldr	r3, [sp, #36]	@ 0x24
10014f32:	2a00      	cmp	r2, #0
10014f34:	d15a      	bne.n	10014fec <_dtoa_r+0x8f4>
10014f36:	9a26      	ldr	r2, [sp, #152]	@ 0x98
10014f38:	b91a      	cbnz	r2, 10014f42 <_dtoa_r+0x84a>
10014f3a:	9a0d      	ldr	r2, [sp, #52]	@ 0x34
10014f3c:	2a00      	cmp	r2, #0
10014f3e:	f000 829a 	beq.w	10015476 <_dtoa_r+0xd7e>
10014f42:	2d00      	cmp	r5, #0
10014f44:	db45      	blt.n	10014fd2 <_dtoa_r+0x8da>
10014f46:	9a0a      	ldr	r2, [sp, #40]	@ 0x28
10014f48:	46b3      	mov	fp, r6
10014f4a:	42b2      	cmp	r2, r6
10014f4c:	f80b 3b01 	strb.w	r3, [fp], #1
10014f50:	f000 81b9 	beq.w	100152c6 <_dtoa_r+0xbce>
10014f54:	4651      	mov	r1, sl
10014f56:	2300      	movs	r3, #0
10014f58:	220a      	movs	r2, #10
10014f5a:	4620      	mov	r0, r4
10014f5c:	f002 face 	bl	100174fc <__multadd>
10014f60:	4547      	cmp	r7, r8
10014f62:	4682      	mov	sl, r0
10014f64:	4639      	mov	r1, r7
10014f66:	f04f 0300 	mov.w	r3, #0
10014f6a:	f04f 020a 	mov.w	r2, #10
10014f6e:	4620      	mov	r0, r4
10014f70:	d036      	beq.n	10014fe0 <_dtoa_r+0x8e8>
10014f72:	f002 fac3 	bl	100174fc <__multadd>
10014f76:	4641      	mov	r1, r8
10014f78:	4607      	mov	r7, r0
10014f7a:	2300      	movs	r3, #0
10014f7c:	220a      	movs	r2, #10
10014f7e:	4620      	mov	r0, r4
10014f80:	f002 fabc 	bl	100174fc <__multadd>
10014f84:	465e      	mov	r6, fp
10014f86:	4680      	mov	r8, r0
10014f88:	e7b2      	b.n	10014ef0 <_dtoa_r+0x7f8>
10014f8a:	bf00      	nop
10014f8c:	40240000 	.word	0x40240000
10014f90:	9802      	ldr	r0, [sp, #8]
10014f92:	9306      	str	r3, [sp, #24]
10014f94:	f002 faa8 	bl	100174e8 <_Bfree>
10014f98:	2d00      	cmp	r5, #0
10014f9a:	9b06      	ldr	r3, [sp, #24]
10014f9c:	db06      	blt.n	10014fac <_dtoa_r+0x8b4>
10014f9e:	9a04      	ldr	r2, [sp, #16]
10014fa0:	9926      	ldr	r1, [sp, #152]	@ 0x98
10014fa2:	f002 0201 	and.w	r2, r2, #1
10014fa6:	430d      	orrs	r5, r1
10014fa8:	432a      	orrs	r2, r5
10014faa:	d12a      	bne.n	10015002 <_dtoa_r+0x90a>
10014fac:	4651      	mov	r1, sl
10014fae:	2201      	movs	r2, #1
10014fb0:	9802      	ldr	r0, [sp, #8]
10014fb2:	9304      	str	r3, [sp, #16]
10014fb4:	f002 fc82 	bl	100178bc <__lshift>
10014fb8:	4649      	mov	r1, r9
10014fba:	4682      	mov	sl, r0
10014fbc:	f002 fcf6 	bl	100179ac <__mcmp>
10014fc0:	2800      	cmp	r0, #0
10014fc2:	9b04      	ldr	r3, [sp, #16]
10014fc4:	f340 80e8 	ble.w	10015198 <_dtoa_r+0xaa0>
10014fc8:	2b39      	cmp	r3, #57	@ 0x39
10014fca:	f000 822f 	beq.w	1001542c <_dtoa_r+0xd34>
10014fce:	f10b 0331 	add.w	r3, fp, #49	@ 0x31
10014fd2:	9d0c      	ldr	r5, [sp, #48]	@ 0x30
10014fd4:	f806 3b01 	strb.w	r3, [r6], #1
10014fd8:	463c      	mov	r4, r7
10014fda:	3501      	adds	r5, #1
10014fdc:	4647      	mov	r7, r8
10014fde:	e712      	b.n	10014e06 <_dtoa_r+0x70e>
10014fe0:	f002 fa8c 	bl	100174fc <__multadd>
10014fe4:	465e      	mov	r6, fp
10014fe6:	4607      	mov	r7, r0
10014fe8:	4680      	mov	r8, r0
10014fea:	e781      	b.n	10014ef0 <_dtoa_r+0x7f8>
10014fec:	2d00      	cmp	r5, #0
10014fee:	f2c0 827d 	blt.w	100154ec <_dtoa_r+0xdf4>
10014ff2:	9926      	ldr	r1, [sp, #152]	@ 0x98
10014ff4:	430d      	orrs	r5, r1
10014ff6:	990d      	ldr	r1, [sp, #52]	@ 0x34
10014ff8:	430d      	orrs	r5, r1
10014ffa:	f000 8277 	beq.w	100154ec <_dtoa_r+0xdf4>
10014ffe:	2a00      	cmp	r2, #0
10015000:	dda1      	ble.n	10014f46 <_dtoa_r+0x84e>
10015002:	2b39      	cmp	r3, #57	@ 0x39
10015004:	f000 8212 	beq.w	1001542c <_dtoa_r+0xd34>
10015008:	3301      	adds	r3, #1
1001500a:	e7e2      	b.n	10014fd2 <_dtoa_r+0x8da>
1001500c:	9b26      	ldr	r3, [sp, #152]	@ 0x98
1001500e:	2b02      	cmp	r3, #2
10015010:	f77f aeb4 	ble.w	10014d7c <_dtoa_r+0x684>
10015014:	9b08      	ldr	r3, [sp, #32]
10015016:	2b00      	cmp	r3, #0
10015018:	f040 811d 	bne.w	10015256 <_dtoa_r+0xb5e>
1001501c:	4649      	mov	r1, r9
1001501e:	2205      	movs	r2, #5
10015020:	9802      	ldr	r0, [sp, #8]
10015022:	f002 fa6b 	bl	100174fc <__multadd>
10015026:	4601      	mov	r1, r0
10015028:	4681      	mov	r9, r0
1001502a:	4650      	mov	r0, sl
1001502c:	f002 fcbe 	bl	100179ac <__mcmp>
10015030:	2800      	cmp	r0, #0
10015032:	f340 8110 	ble.w	10015256 <_dtoa_r+0xb5e>
10015036:	9e03      	ldr	r6, [sp, #12]
10015038:	9d0c      	ldr	r5, [sp, #48]	@ 0x30
1001503a:	2331      	movs	r3, #49	@ 0x31
1001503c:	f806 3b01 	strb.w	r3, [r6], #1
10015040:	3501      	adds	r5, #1
10015042:	9802      	ldr	r0, [sp, #8]
10015044:	4649      	mov	r1, r9
10015046:	3501      	adds	r5, #1
10015048:	f002 fa4e 	bl	100174e8 <_Bfree>
1001504c:	2f00      	cmp	r7, #0
1001504e:	f47f aee8 	bne.w	10014e22 <_dtoa_r+0x72a>
10015052:	e6ea      	b.n	10014e2a <_dtoa_r+0x732>
10015054:	4649      	mov	r1, r9
10015056:	4650      	mov	r0, sl
10015058:	f002 fca8 	bl	100179ac <__mcmp>
1001505c:	2800      	cmp	r0, #0
1001505e:	f6bf ae89 	bge.w	10014d74 <_dtoa_r+0x67c>
10015062:	4651      	mov	r1, sl
10015064:	2300      	movs	r3, #0
10015066:	9802      	ldr	r0, [sp, #8]
10015068:	220a      	movs	r2, #10
1001506a:	f002 fa47 	bl	100174fc <__multadd>
1001506e:	9b0c      	ldr	r3, [sp, #48]	@ 0x30
10015070:	1e5d      	subs	r5, r3, #1
10015072:	9b0a      	ldr	r3, [sp, #40]	@ 0x28
10015074:	4682      	mov	sl, r0
10015076:	2b00      	cmp	r3, #0
10015078:	f47f af1b 	bne.w	10014eb2 <_dtoa_r+0x7ba>
1001507c:	9b16      	ldr	r3, [sp, #88]	@ 0x58
1001507e:	2b00      	cmp	r3, #0
10015080:	f340 81ff 	ble.w	10015482 <_dtoa_r+0xd8a>
10015084:	9d0c      	ldr	r5, [sp, #48]	@ 0x30
10015086:	9308      	str	r3, [sp, #32]
10015088:	e67e      	b.n	10014d88 <_dtoa_r+0x690>
1001508a:	4601      	mov	r1, r0
1001508c:	465a      	mov	r2, fp
1001508e:	9802      	ldr	r0, [sp, #8]
10015090:	f002 fbba 	bl	10017808 <__pow5mult>
10015094:	9b26      	ldr	r3, [sp, #152]	@ 0x98
10015096:	2b01      	cmp	r3, #1
10015098:	4681      	mov	r9, r0
1001509a:	dd6c      	ble.n	10015176 <_dtoa_r+0xa7e>
1001509c:	f04f 0b00 	mov.w	fp, #0
100150a0:	f8d9 3010 	ldr.w	r3, [r9, #16]
100150a4:	eb09 0383 	add.w	r3, r9, r3, lsl #2
100150a8:	6918      	ldr	r0, [r3, #16]
100150aa:	f002 fa77 	bl	1001759c <__hi0bits>
100150ae:	f1c0 0020 	rsb	r0, r0, #32
100150b2:	e639      	b.n	10014d28 <_dtoa_r+0x630>
100150b4:	4b92      	ldr	r3, [pc, #584]	@ (10015300 <_dtoa_r+0xc08>)
100150b6:	9303      	str	r3, [sp, #12]
100150b8:	3303      	adds	r3, #3
100150ba:	f7ff bbfc 	b.w	100148b6 <_dtoa_r+0x1be>
100150be:	9b04      	ldr	r3, [sp, #16]
100150c0:	2b00      	cmp	r3, #0
100150c2:	f47f ae30 	bne.w	10014d26 <_dtoa_r+0x62e>
100150c6:	e9dd 1204 	ldrd	r1, r2, [sp, #16]
100150ca:	f3c2 0313 	ubfx	r3, r2, #0, #20
100150ce:	2b00      	cmp	r3, #0
100150d0:	f47f ae29 	bne.w	10014d26 <_dtoa_r+0x62e>
100150d4:	4b8b      	ldr	r3, [pc, #556]	@ (10015304 <_dtoa_r+0xc0c>)
100150d6:	4013      	ands	r3, r2
100150d8:	b123      	cbz	r3, 100150e4 <_dtoa_r+0x9ec>
100150da:	9b09      	ldr	r3, [sp, #36]	@ 0x24
100150dc:	3301      	adds	r3, #1
100150de:	9309      	str	r3, [sp, #36]	@ 0x24
100150e0:	3401      	adds	r4, #1
100150e2:	2301      	movs	r3, #1
100150e4:	f1bb 0f00 	cmp.w	fp, #0
100150e8:	f040 81ae 	bne.w	10015448 <_dtoa_r+0xd50>
100150ec:	469b      	mov	fp, r3
100150ee:	e61a      	b.n	10014d26 <_dtoa_r+0x62e>
100150f0:	f43f ae2b 	beq.w	10014d4a <_dtoa_r+0x652>
100150f4:	f1c0 033c 	rsb	r3, r0, #60	@ 0x3c
100150f8:	e6b6      	b.n	10014e68 <_dtoa_r+0x770>
100150fa:	2301      	movs	r3, #1
100150fc:	930a      	str	r3, [sp, #40]	@ 0x28
100150fe:	9b27      	ldr	r3, [sp, #156]	@ 0x9c
10015100:	9a0c      	ldr	r2, [sp, #48]	@ 0x30
10015102:	4413      	add	r3, r2
10015104:	9316      	str	r3, [sp, #88]	@ 0x58
10015106:	3301      	adds	r3, #1
10015108:	2b01      	cmp	r3, #1
1001510a:	461e      	mov	r6, r3
1001510c:	9308      	str	r3, [sp, #32]
1001510e:	bfb8      	it	lt
10015110:	2601      	movlt	r6, #1
10015112:	2e17      	cmp	r6, #23
10015114:	f340 81d5 	ble.w	100154c2 <_dtoa_r+0xdca>
10015118:	2201      	movs	r2, #1
1001511a:	2304      	movs	r3, #4
1001511c:	005b      	lsls	r3, r3, #1
1001511e:	f103 0014 	add.w	r0, r3, #20
10015122:	42b0      	cmp	r0, r6
10015124:	4611      	mov	r1, r2
10015126:	f102 0201 	add.w	r2, r2, #1
1001512a:	d9f7      	bls.n	1001511c <_dtoa_r+0xa24>
1001512c:	9b02      	ldr	r3, [sp, #8]
1001512e:	63d9      	str	r1, [r3, #60]	@ 0x3c
10015130:	e413      	b.n	1001495a <_dtoa_r+0x262>
10015132:	2301      	movs	r3, #1
10015134:	930a      	str	r3, [sp, #40]	@ 0x28
10015136:	9b27      	ldr	r3, [sp, #156]	@ 0x9c
10015138:	2b00      	cmp	r3, #0
1001513a:	dd33      	ble.n	100151a4 <_dtoa_r+0xaac>
1001513c:	9316      	str	r3, [sp, #88]	@ 0x58
1001513e:	9308      	str	r3, [sp, #32]
10015140:	461e      	mov	r6, r3
10015142:	e7e6      	b.n	10015112 <_dtoa_r+0xa1a>
10015144:	2300      	movs	r3, #0
10015146:	930a      	str	r3, [sp, #40]	@ 0x28
10015148:	e7d9      	b.n	100150fe <_dtoa_r+0xa06>
1001514a:	2300      	movs	r3, #0
1001514c:	930a      	str	r3, [sp, #40]	@ 0x28
1001514e:	e7f2      	b.n	10015136 <_dtoa_r+0xa3e>
10015150:	4639      	mov	r1, r7
10015152:	9802      	ldr	r0, [sp, #8]
10015154:	4632      	mov	r2, r6
10015156:	f002 fbb1 	bl	100178bc <__lshift>
1001515a:	4607      	mov	r7, r0
1001515c:	e6b9      	b.n	10014ed2 <_dtoa_r+0x7da>
1001515e:	9b0d      	ldr	r3, [sp, #52]	@ 0x34
10015160:	9a09      	ldr	r2, [sp, #36]	@ 0x24
10015162:	950d      	str	r5, [sp, #52]	@ 0x34
10015164:	1aeb      	subs	r3, r5, r3
10015166:	449b      	add	fp, r3
10015168:	9b08      	ldr	r3, [sp, #32]
1001516a:	4616      	mov	r6, r2
1001516c:	441a      	add	r2, r3
1001516e:	441c      	add	r4, r3
10015170:	9209      	str	r2, [sp, #36]	@ 0x24
10015172:	2500      	movs	r5, #0
10015174:	e690      	b.n	10014e98 <_dtoa_r+0x7a0>
10015176:	9b04      	ldr	r3, [sp, #16]
10015178:	2b00      	cmp	r3, #0
1001517a:	d18f      	bne.n	1001509c <_dtoa_r+0x9a4>
1001517c:	e9dd 0104 	ldrd	r0, r1, [sp, #16]
10015180:	f3c1 0313 	ubfx	r3, r1, #0, #20
10015184:	460a      	mov	r2, r1
10015186:	2b00      	cmp	r3, #0
10015188:	d188      	bne.n	1001509c <_dtoa_r+0x9a4>
1001518a:	e7a3      	b.n	100150d4 <_dtoa_r+0x9dc>
1001518c:	ed9d 7b06 	vldr	d7, [sp, #24]
10015190:	2702      	movs	r7, #2
10015192:	ed8d 7b10 	vstr	d7, [sp, #64]	@ 0x40
10015196:	e40c      	b.n	100149b2 <_dtoa_r+0x2ba>
10015198:	f47f af1b 	bne.w	10014fd2 <_dtoa_r+0x8da>
1001519c:	07da      	lsls	r2, r3, #31
1001519e:	f57f af18 	bpl.w	10014fd2 <_dtoa_r+0x8da>
100151a2:	e711      	b.n	10014fc8 <_dtoa_r+0x8d0>
100151a4:	2301      	movs	r3, #1
100151a6:	9327      	str	r3, [sp, #156]	@ 0x9c
100151a8:	9308      	str	r3, [sp, #32]
100151aa:	f7ff bbd1 	b.w	10014950 <_dtoa_r+0x258>
100151ae:	d103      	bne.n	100151b8 <_dtoa_r+0xac0>
100151b0:	9b04      	ldr	r3, [sp, #16]
100151b2:	07db      	lsls	r3, r3, #31
100151b4:	f53f ae18 	bmi.w	10014de8 <_dtoa_r+0x6f0>
100151b8:	465e      	mov	r6, fp
100151ba:	f81b 3d01 	ldrb.w	r3, [fp, #-1]!
100151be:	2b30      	cmp	r3, #48	@ 0x30
100151c0:	d0fa      	beq.n	100151b8 <_dtoa_r+0xac0>
100151c2:	e620      	b.n	10014e06 <_dtoa_r+0x70e>
100151c4:	9a03      	ldr	r2, [sp, #12]
100151c6:	2331      	movs	r3, #49	@ 0x31
100151c8:	3501      	adds	r5, #1
100151ca:	7013      	strb	r3, [r2, #0]
100151cc:	e61b      	b.n	10014e06 <_dtoa_r+0x70e>
100151ce:	9a0f      	ldr	r2, [sp, #60]	@ 0x3c
100151d0:	2a00      	cmp	r2, #0
100151d2:	f000 80f9 	beq.w	100153c8 <_dtoa_r+0xcd0>
100151d6:	f203 4333 	addw	r3, r3, #1075	@ 0x433
100151da:	9a09      	ldr	r2, [sp, #36]	@ 0x24
100151dc:	9d0d      	ldr	r5, [sp, #52]	@ 0x34
100151de:	4616      	mov	r6, r2
100151e0:	441a      	add	r2, r3
100151e2:	441c      	add	r4, r3
100151e4:	9209      	str	r2, [sp, #36]	@ 0x24
100151e6:	e657      	b.n	10014e98 <_dtoa_r+0x7a0>
100151e8:	f1c8 0301 	rsb	r3, r8, #1
100151ec:	4604      	mov	r4, r0
100151ee:	9309      	str	r3, [sp, #36]	@ 0x24
100151f0:	900e      	str	r0, [sp, #56]	@ 0x38
100151f2:	f7ff bb9d 	b.w	10014930 <_dtoa_r+0x238>
100151f6:	f000 80eb 	beq.w	100153d0 <_dtoa_r+0xcd8>
100151fa:	9b0c      	ldr	r3, [sp, #48]	@ 0x30
100151fc:	4d42      	ldr	r5, [pc, #264]	@ (10015308 <_dtoa_r+0xc10>)
100151fe:	425e      	negs	r6, r3
10015200:	f006 030f 	and.w	r3, r6, #15
10015204:	eb05 03c3 	add.w	r3, r5, r3, lsl #3
10015208:	e9d3 2300 	ldrd	r2, r3, [r3]
1001520c:	e9dd 0106 	ldrd	r0, r1, [sp, #24]
10015210:	f003 f9fc 	bl	1001860c <__aeabi_dmul>
10015214:	1135      	asrs	r5, r6, #4
10015216:	e9cd 0110 	strd	r0, r1, [sp, #64]	@ 0x40
1001521a:	f000 814d 	beq.w	100154b8 <_dtoa_r+0xdc0>
1001521e:	4e3b      	ldr	r6, [pc, #236]	@ (1001530c <_dtoa_r+0xc14>)
10015220:	2300      	movs	r3, #0
10015222:	2702      	movs	r7, #2
10015224:	4680      	mov	r8, r0
10015226:	4689      	mov	r9, r1
10015228:	07e8      	lsls	r0, r5, #31
1001522a:	d509      	bpl.n	10015240 <_dtoa_r+0xb48>
1001522c:	e9d6 2300 	ldrd	r2, r3, [r6]
10015230:	4640      	mov	r0, r8
10015232:	4649      	mov	r1, r9
10015234:	f003 f9ea 	bl	1001860c <__aeabi_dmul>
10015238:	3701      	adds	r7, #1
1001523a:	4680      	mov	r8, r0
1001523c:	4689      	mov	r9, r1
1001523e:	2301      	movs	r3, #1
10015240:	106d      	asrs	r5, r5, #1
10015242:	f106 0608 	add.w	r6, r6, #8
10015246:	d1ef      	bne.n	10015228 <_dtoa_r+0xb30>
10015248:	2b00      	cmp	r3, #0
1001524a:	f47f abcb 	bne.w	100149e4 <_dtoa_r+0x2ec>
1001524e:	e9dd 8910 	ldrd	r8, r9, [sp, #64]	@ 0x40
10015252:	f7ff bbc7 	b.w	100149e4 <_dtoa_r+0x2ec>
10015256:	9e03      	ldr	r6, [sp, #12]
10015258:	e4cb      	b.n	10014bf2 <_dtoa_r+0x4fa>
1001525a:	f8dd a018 	ldr.w	sl, [sp, #24]
1001525e:	9d0c      	ldr	r5, [sp, #48]	@ 0x30
10015260:	4602      	mov	r2, r0
10015262:	460b      	mov	r3, r1
10015264:	f003 f81c 	bl	100182a0 <__adddf3>
10015268:	4602      	mov	r2, r0
1001526a:	460b      	mov	r3, r1
1001526c:	e9cd 2306 	strd	r2, r3, [sp, #24]
10015270:	3501      	adds	r5, #1
10015272:	e9dd 2304 	ldrd	r2, r3, [sp, #16]
10015276:	46a8      	mov	r8, r5
10015278:	f003 fc58 	bl	10018b2c <__aeabi_dcmpgt>
1001527c:	b940      	cbnz	r0, 10015290 <_dtoa_r+0xb98>
1001527e:	e9dd 2304 	ldrd	r2, r3, [sp, #16]
10015282:	e9dd 0106 	ldrd	r0, r1, [sp, #24]
10015286:	f003 fc29 	bl	10018adc <__aeabi_dcmpeq>
1001528a:	b118      	cbz	r0, 10015294 <_dtoa_r+0xb9c>
1001528c:	07f1      	lsls	r1, r6, #31
1001528e:	d501      	bpl.n	10015294 <_dtoa_r+0xb9c>
10015290:	9a03      	ldr	r2, [sp, #12]
10015292:	e44b      	b.n	10014b2c <_dtoa_r+0x434>
10015294:	463e      	mov	r6, r7
10015296:	e5c8      	b.n	10014e2a <_dtoa_r+0x732>
10015298:	6879      	ldr	r1, [r7, #4]
1001529a:	9802      	ldr	r0, [sp, #8]
1001529c:	f002 f8fe 	bl	1001749c <_Balloc>
100152a0:	4605      	mov	r5, r0
100152a2:	2800      	cmp	r0, #0
100152a4:	f000 8126 	beq.w	100154f4 <_dtoa_r+0xdfc>
100152a8:	693b      	ldr	r3, [r7, #16]
100152aa:	3302      	adds	r3, #2
100152ac:	009a      	lsls	r2, r3, #2
100152ae:	f107 010c 	add.w	r1, r7, #12
100152b2:	300c      	adds	r0, #12
100152b4:	f7fe fffc 	bl	100142b0 <memcpy>
100152b8:	9802      	ldr	r0, [sp, #8]
100152ba:	4629      	mov	r1, r5
100152bc:	2201      	movs	r2, #1
100152be:	f002 fafd 	bl	100178bc <__lshift>
100152c2:	4680      	mov	r8, r0
100152c4:	e60a      	b.n	10014edc <_dtoa_r+0x7e4>
100152c6:	9d0c      	ldr	r5, [sp, #48]	@ 0x30
100152c8:	463c      	mov	r4, r7
100152ca:	3501      	adds	r5, #1
100152cc:	4647      	mov	r7, r8
100152ce:	e57e      	b.n	10014dce <_dtoa_r+0x6d6>
100152d0:	f8dd 8008 	ldr.w	r8, [sp, #8]
100152d4:	4639      	mov	r1, r7
100152d6:	462a      	mov	r2, r5
100152d8:	4640      	mov	r0, r8
100152da:	f002 fa95 	bl	10017808 <__pow5mult>
100152de:	4652      	mov	r2, sl
100152e0:	4601      	mov	r1, r0
100152e2:	4607      	mov	r7, r0
100152e4:	4640      	mov	r0, r8
100152e6:	f002 f9d9 	bl	1001769c <__multiply>
100152ea:	4651      	mov	r1, sl
100152ec:	4682      	mov	sl, r0
100152ee:	4640      	mov	r0, r8
100152f0:	f002 f8fa 	bl	100174e8 <_Bfree>
100152f4:	9b0d      	ldr	r3, [sp, #52]	@ 0x34
100152f6:	1b5b      	subs	r3, r3, r5
100152f8:	930d      	str	r3, [sp, #52]	@ 0x34
100152fa:	f43f ad07 	beq.w	10014d0c <_dtoa_r+0x614>
100152fe:	e4ff      	b.n	10014d00 <_dtoa_r+0x608>
10015300:	10019440 	.word	0x10019440
10015304:	7ff00000 	.word	0x7ff00000
10015308:	10019578 	.word	0x10019578
1001530c:	10019550 	.word	0x10019550
10015310:	e9dd 0112 	ldrd	r0, r1, [sp, #72]	@ 0x48
10015314:	f003 f97a 	bl	1001860c <__aeabi_dmul>
10015318:	9b03      	ldr	r3, [sp, #12]
1001531a:	701f      	strb	r7, [r3, #0]
1001531c:	9b10      	ldr	r3, [sp, #64]	@ 0x40
1001531e:	2b01      	cmp	r3, #1
10015320:	e9cd 010a 	strd	r0, r1, [sp, #40]	@ 0x28
10015324:	f000 80c6 	beq.w	100154b4 <_dtoa_r+0xdbc>
10015328:	9f10      	ldr	r7, [sp, #64]	@ 0x40
1001532a:	9b03      	ldr	r3, [sp, #12]
1001532c:	f8cd b03c 	str.w	fp, [sp, #60]	@ 0x3c
10015330:	441f      	add	r7, r3
10015332:	4b7c      	ldr	r3, [pc, #496]	@ (10015524 <_dtoa_r+0xe2c>)
10015334:	2200      	movs	r2, #0
10015336:	4640      	mov	r0, r8
10015338:	4649      	mov	r1, r9
1001533a:	f003 f967 	bl	1001860c <__aeabi_dmul>
1001533e:	4689      	mov	r9, r1
10015340:	4680      	mov	r8, r0
10015342:	f003 fc13 	bl	10018b6c <__aeabi_d2iz>
10015346:	4683      	mov	fp, r0
10015348:	f003 f8f6 	bl	10018538 <__aeabi_i2d>
1001534c:	f10b 0b30 	add.w	fp, fp, #48	@ 0x30
10015350:	4602      	mov	r2, r0
10015352:	460b      	mov	r3, r1
10015354:	4640      	mov	r0, r8
10015356:	4649      	mov	r1, r9
10015358:	f002 ffa0 	bl	1001829c <__aeabi_dsub>
1001535c:	f806 bb01 	strb.w	fp, [r6], #1
10015360:	42b7      	cmp	r7, r6
10015362:	4680      	mov	r8, r0
10015364:	4689      	mov	r9, r1
10015366:	d1e4      	bne.n	10015332 <_dtoa_r+0xc3a>
10015368:	f8dd b03c 	ldr.w	fp, [sp, #60]	@ 0x3c
1001536c:	4b6e      	ldr	r3, [pc, #440]	@ (10015528 <_dtoa_r+0xe30>)
1001536e:	2200      	movs	r2, #0
10015370:	e9dd 010a 	ldrd	r0, r1, [sp, #40]	@ 0x28
10015374:	f002 ff94 	bl	100182a0 <__adddf3>
10015378:	4602      	mov	r2, r0
1001537a:	460b      	mov	r3, r1
1001537c:	4640      	mov	r0, r8
1001537e:	4649      	mov	r1, r9
10015380:	f003 fbd4 	bl	10018b2c <__aeabi_dcmpgt>
10015384:	2800      	cmp	r0, #0
10015386:	d167      	bne.n	10015458 <_dtoa_r+0xd60>
10015388:	e9dd 230a 	ldrd	r2, r3, [sp, #40]	@ 0x28
1001538c:	4966      	ldr	r1, [pc, #408]	@ (10015528 <_dtoa_r+0xe30>)
1001538e:	2000      	movs	r0, #0
10015390:	f002 ff84 	bl	1001829c <__aeabi_dsub>
10015394:	4602      	mov	r2, r0
10015396:	460b      	mov	r3, r1
10015398:	4640      	mov	r0, r8
1001539a:	4649      	mov	r1, r9
1001539c:	f003 fba8 	bl	10018af0 <__aeabi_dcmplt>
100153a0:	b948      	cbnz	r0, 100153b6 <_dtoa_r+0xcbe>
100153a2:	9b1b      	ldr	r3, [sp, #108]	@ 0x6c
100153a4:	2b00      	cmp	r3, #0
100153a6:	f6ff ac93 	blt.w	10014cd0 <_dtoa_r+0x5d8>
100153aa:	9b0c      	ldr	r3, [sp, #48]	@ 0x30
100153ac:	2b0e      	cmp	r3, #14
100153ae:	f73f ac8f 	bgt.w	10014cd0 <_dtoa_r+0x5d8>
100153b2:	f7ff bbfd 	b.w	10014bb0 <_dtoa_r+0x4b8>
100153b6:	463e      	mov	r6, r7
100153b8:	3f01      	subs	r7, #1
100153ba:	f816 3c01 	ldrb.w	r3, [r6, #-1]
100153be:	2b30      	cmp	r3, #48	@ 0x30
100153c0:	d0f9      	beq.n	100153b6 <_dtoa_r+0xcbe>
100153c2:	9d17      	ldr	r5, [sp, #92]	@ 0x5c
100153c4:	3501      	adds	r5, #1
100153c6:	e530      	b.n	10014e2a <_dtoa_r+0x732>
100153c8:	9b1a      	ldr	r3, [sp, #104]	@ 0x68
100153ca:	f1c3 0336 	rsb	r3, r3, #54	@ 0x36
100153ce:	e704      	b.n	100151da <_dtoa_r+0xae2>
100153d0:	e9dd 8906 	ldrd	r8, r9, [sp, #24]
100153d4:	2702      	movs	r7, #2
100153d6:	f7ff bb05 	b.w	100149e4 <_dtoa_r+0x2ec>
100153da:	9b08      	ldr	r3, [sp, #32]
100153dc:	2b00      	cmp	r3, #0
100153de:	f43f abb9 	beq.w	10014b54 <_dtoa_r+0x45c>
100153e2:	9b16      	ldr	r3, [sp, #88]	@ 0x58
100153e4:	2b00      	cmp	r3, #0
100153e6:	f77f abda 	ble.w	10014b9e <_dtoa_r+0x4a6>
100153ea:	9a0c      	ldr	r2, [sp, #48]	@ 0x30
100153ec:	9310      	str	r3, [sp, #64]	@ 0x40
100153ee:	3a01      	subs	r2, #1
100153f0:	4b4c      	ldr	r3, [pc, #304]	@ (10015524 <_dtoa_r+0xe2c>)
100153f2:	9217      	str	r2, [sp, #92]	@ 0x5c
100153f4:	4640      	mov	r0, r8
100153f6:	2200      	movs	r2, #0
100153f8:	4649      	mov	r1, r9
100153fa:	f003 f907 	bl	1001860c <__aeabi_dmul>
100153fe:	4680      	mov	r8, r0
10015400:	4689      	mov	r9, r1
10015402:	1c78      	adds	r0, r7, #1
10015404:	f003 f898 	bl	10018538 <__aeabi_i2d>
10015408:	4642      	mov	r2, r8
1001540a:	464b      	mov	r3, r9
1001540c:	f003 f8fe 	bl	1001860c <__aeabi_dmul>
10015410:	4b46      	ldr	r3, [pc, #280]	@ (1001552c <_dtoa_r+0xe34>)
10015412:	2200      	movs	r2, #0
10015414:	f002 ff44 	bl	100182a0 <__adddf3>
10015418:	4606      	mov	r6, r0
1001541a:	f1a1 7750 	sub.w	r7, r1, #54525952	@ 0x3400000
1001541e:	f7ff bb02 	b.w	10014a26 <_dtoa_r+0x32e>
10015422:	f108 0801 	add.w	r8, r8, #1
10015426:	2331      	movs	r3, #49	@ 0x31
10015428:	f7ff bb87 	b.w	10014b3a <_dtoa_r+0x442>
1001542c:	9d0c      	ldr	r5, [sp, #48]	@ 0x30
1001542e:	9a03      	ldr	r2, [sp, #12]
10015430:	46b3      	mov	fp, r6
10015432:	2339      	movs	r3, #57	@ 0x39
10015434:	463c      	mov	r4, r7
10015436:	f80b 3b01 	strb.w	r3, [fp], #1
1001543a:	3501      	adds	r5, #1
1001543c:	4647      	mov	r7, r8
1001543e:	e4d8      	b.n	10014df2 <_dtoa_r+0x6fa>
10015440:	f04f 0900 	mov.w	r9, #0
10015444:	464f      	mov	r7, r9
10015446:	e5f6      	b.n	10015036 <_dtoa_r+0x93e>
10015448:	469b      	mov	fp, r3
1001544a:	e629      	b.n	100150a0 <_dtoa_r+0x9a8>
1001544c:	9a09      	ldr	r2, [sp, #36]	@ 0x24
1001544e:	4616      	mov	r6, r2
10015450:	441a      	add	r2, r3
10015452:	441c      	add	r4, r3
10015454:	9209      	str	r2, [sp, #36]	@ 0x24
10015456:	e51f      	b.n	10014e98 <_dtoa_r+0x7a0>
10015458:	9b17      	ldr	r3, [sp, #92]	@ 0x5c
1001545a:	9a03      	ldr	r2, [sp, #12]
1001545c:	f103 0801 	add.w	r8, r3, #1
10015460:	f7ff bb64 	b.w	10014b2c <_dtoa_r+0x434>
10015464:	f8dd a050 	ldr.w	sl, [sp, #80]	@ 0x50
10015468:	e7ab      	b.n	100153c2 <_dtoa_r+0xcca>
1001546a:	e9dd b418 	ldrd	fp, r4, [sp, #96]	@ 0x60
1001546e:	f8dd a050 	ldr.w	sl, [sp, #80]	@ 0x50
10015472:	f7ff bb94 	b.w	10014b9e <_dtoa_r+0x4a6>
10015476:	2b39      	cmp	r3, #57	@ 0x39
10015478:	d0d8      	beq.n	1001542c <_dtoa_r+0xd34>
1001547a:	2d00      	cmp	r5, #0
1001547c:	f73f ada7 	bgt.w	10014fce <_dtoa_r+0x8d6>
10015480:	e5a7      	b.n	10014fd2 <_dtoa_r+0x8da>
10015482:	9b26      	ldr	r3, [sp, #152]	@ 0x98
10015484:	2b02      	cmp	r3, #2
10015486:	dc0a      	bgt.n	1001549e <_dtoa_r+0xda6>
10015488:	9b16      	ldr	r3, [sp, #88]	@ 0x58
1001548a:	9308      	str	r3, [sp, #32]
1001548c:	4649      	mov	r1, r9
1001548e:	9d0c      	ldr	r5, [sp, #48]	@ 0x30
10015490:	f7ff f89c 	bl	100145cc <quorem>
10015494:	9a03      	ldr	r2, [sp, #12]
10015496:	f100 0330 	add.w	r3, r0, #48	@ 0x30
1001549a:	7013      	strb	r3, [r2, #0]
1001549c:	e48d      	b.n	10014dba <_dtoa_r+0x6c2>
1001549e:	9b16      	ldr	r3, [sp, #88]	@ 0x58
100154a0:	9308      	str	r3, [sp, #32]
100154a2:	950c      	str	r5, [sp, #48]	@ 0x30
100154a4:	e5b6      	b.n	10015014 <_dtoa_r+0x91c>
100154a6:	9b26      	ldr	r3, [sp, #152]	@ 0x98
100154a8:	2b02      	cmp	r3, #2
100154aa:	dcf8      	bgt.n	1001549e <_dtoa_r+0xda6>
100154ac:	9b16      	ldr	r3, [sp, #88]	@ 0x58
100154ae:	950c      	str	r5, [sp, #48]	@ 0x30
100154b0:	9308      	str	r3, [sp, #32]
100154b2:	e50b      	b.n	10014ecc <_dtoa_r+0x7d4>
100154b4:	4637      	mov	r7, r6
100154b6:	e759      	b.n	1001536c <_dtoa_r+0xc74>
100154b8:	e9dd 8910 	ldrd	r8, r9, [sp, #64]	@ 0x40
100154bc:	2702      	movs	r7, #2
100154be:	f7ff ba91 	b.w	100149e4 <_dtoa_r+0x2ec>
100154c2:	9b02      	ldr	r3, [sp, #8]
100154c4:	2100      	movs	r1, #0
100154c6:	63d9      	str	r1, [r3, #60]	@ 0x3c
100154c8:	f7ff ba47 	b.w	1001495a <_dtoa_r+0x262>
100154cc:	9b02      	ldr	r3, [sp, #8]
100154ce:	2500      	movs	r5, #0
100154d0:	63dd      	str	r5, [r3, #60]	@ 0x3c
100154d2:	4629      	mov	r1, r5
100154d4:	4618      	mov	r0, r3
100154d6:	f001 ffe1 	bl	1001749c <_Balloc>
100154da:	9003      	str	r0, [sp, #12]
100154dc:	b9a8      	cbnz	r0, 1001550a <_dtoa_r+0xe12>
100154de:	4b14      	ldr	r3, [pc, #80]	@ (10015530 <_dtoa_r+0xe38>)
100154e0:	4814      	ldr	r0, [pc, #80]	@ (10015534 <_dtoa_r+0xe3c>)
100154e2:	2200      	movs	r2, #0
100154e4:	f240 11af 	movw	r1, #431	@ 0x1af
100154e8:	f002 fd88 	bl	10017ffc <__assert_func>
100154ec:	2a00      	cmp	r2, #0
100154ee:	f77f ad70 	ble.w	10014fd2 <_dtoa_r+0x8da>
100154f2:	e55b      	b.n	10014fac <_dtoa_r+0x8b4>
100154f4:	4b0e      	ldr	r3, [pc, #56]	@ (10015530 <_dtoa_r+0xe38>)
100154f6:	480f      	ldr	r0, [pc, #60]	@ (10015534 <_dtoa_r+0xe3c>)
100154f8:	462a      	mov	r2, r5
100154fa:	f240 21ef 	movw	r1, #751	@ 0x2ef
100154fe:	f002 fd7d 	bl	10017ffc <__assert_func>
10015502:	4b0d      	ldr	r3, [pc, #52]	@ (10015538 <_dtoa_r+0xe40>)
10015504:	9303      	str	r3, [sp, #12]
10015506:	f7ff b932 	b.w	1001476e <_dtoa_r+0x76>
1001550a:	e9dd 3202 	ldrd	r3, r2, [sp, #8]
1001550e:	639a      	str	r2, [r3, #56]	@ 0x38
10015510:	f04f 33ff 	mov.w	r3, #4294967295	@ 0xffffffff
10015514:	2201      	movs	r2, #1
10015516:	9527      	str	r5, [sp, #156]	@ 0x9c
10015518:	9316      	str	r3, [sp, #88]	@ 0x58
1001551a:	920a      	str	r2, [sp, #40]	@ 0x28
1001551c:	9308      	str	r3, [sp, #32]
1001551e:	f7ff bb3e 	b.w	10014b9e <_dtoa_r+0x4a6>
10015522:	bf00      	nop
10015524:	40240000 	.word	0x40240000
10015528:	3fe00000 	.word	0x3fe00000
1001552c:	401c0000 	.word	0x401c0000
10015530:	10019444 	.word	0x10019444
10015534:	10019458 	.word	0x10019458
10015538:	10019434 	.word	0x10019434

1001553c <_malloc_trim_r>:
1001553c:	e92d 43f8 	stmdb	sp!, {r3, r4, r5, r6, r7, r8, r9, lr}
10015540:	4606      	mov	r6, r0
10015542:	2008      	movs	r0, #8
10015544:	4689      	mov	r9, r1
10015546:	f7fe fe25 	bl	10014194 <sysconf>
1001554a:	f8df 80a4 	ldr.w	r8, [pc, #164]	@ 100155f0 <_malloc_trim_r+0xb4>
1001554e:	4605      	mov	r5, r0
10015550:	4630      	mov	r0, r6
10015552:	f7fd fe59 	bl	10013208 <__malloc_lock>
10015556:	f8d8 3008 	ldr.w	r3, [r8, #8]
1001555a:	685f      	ldr	r7, [r3, #4]
1001555c:	f027 0703 	bic.w	r7, r7, #3
10015560:	f1a7 0411 	sub.w	r4, r7, #17
10015564:	eba4 0409 	sub.w	r4, r4, r9
10015568:	442c      	add	r4, r5
1001556a:	fbb4 f4f5 	udiv	r4, r4, r5
1001556e:	3c01      	subs	r4, #1
10015570:	fb05 f404 	mul.w	r4, r5, r4
10015574:	42a5      	cmp	r5, r4
10015576:	dc08      	bgt.n	1001558a <_malloc_trim_r+0x4e>
10015578:	2100      	movs	r1, #0
1001557a:	4630      	mov	r0, r6
1001557c:	f7fe fdf2 	bl	10014164 <_sbrk_r>
10015580:	f8d8 3008 	ldr.w	r3, [r8, #8]
10015584:	443b      	add	r3, r7
10015586:	4298      	cmp	r0, r3
10015588:	d005      	beq.n	10015596 <_malloc_trim_r+0x5a>
1001558a:	4630      	mov	r0, r6
1001558c:	f7fd fe42 	bl	10013214 <__malloc_unlock>
10015590:	2000      	movs	r0, #0
10015592:	e8bd 83f8 	ldmia.w	sp!, {r3, r4, r5, r6, r7, r8, r9, pc}
10015596:	4261      	negs	r1, r4
10015598:	4630      	mov	r0, r6
1001559a:	f7fe fde3 	bl	10014164 <_sbrk_r>
1001559e:	3001      	adds	r0, #1
100155a0:	d00f      	beq.n	100155c2 <_malloc_trim_r+0x86>
100155a2:	4a11      	ldr	r2, [pc, #68]	@ (100155e8 <_malloc_trim_r+0xac>)
100155a4:	f8d8 3008 	ldr.w	r3, [r8, #8]
100155a8:	1b3f      	subs	r7, r7, r4
100155aa:	f047 0701 	orr.w	r7, r7, #1
100155ae:	605f      	str	r7, [r3, #4]
100155b0:	6813      	ldr	r3, [r2, #0]
100155b2:	4630      	mov	r0, r6
100155b4:	1b1b      	subs	r3, r3, r4
100155b6:	6013      	str	r3, [r2, #0]
100155b8:	f7fd fe2c 	bl	10013214 <__malloc_unlock>
100155bc:	2001      	movs	r0, #1
100155be:	e8bd 83f8 	ldmia.w	sp!, {r3, r4, r5, r6, r7, r8, r9, pc}
100155c2:	2100      	movs	r1, #0
100155c4:	4630      	mov	r0, r6
100155c6:	f7fe fdcd 	bl	10014164 <_sbrk_r>
100155ca:	f8d8 2008 	ldr.w	r2, [r8, #8]
100155ce:	1a83      	subs	r3, r0, r2
100155d0:	2b0f      	cmp	r3, #15
100155d2:	ddda      	ble.n	1001558a <_malloc_trim_r+0x4e>
100155d4:	f043 0301 	orr.w	r3, r3, #1
100155d8:	6053      	str	r3, [r2, #4]
100155da:	4b04      	ldr	r3, [pc, #16]	@ (100155ec <_malloc_trim_r+0xb0>)
100155dc:	4902      	ldr	r1, [pc, #8]	@ (100155e8 <_malloc_trim_r+0xac>)
100155de:	681b      	ldr	r3, [r3, #0]
100155e0:	1ac0      	subs	r0, r0, r3
100155e2:	6008      	str	r0, [r1, #0]
100155e4:	e7d1      	b.n	1001558a <_malloc_trim_r+0x4e>
100155e6:	bf00      	nop
100155e8:	2000102c 	.word	0x2000102c
100155ec:	20000038 	.word	0x20000038
100155f0:	20000040 	.word	0x20000040

100155f4 <_free_r>:
100155f4:	2900      	cmp	r1, #0
100155f6:	d07c      	beq.n	100156f2 <_free_r+0xfe>
100155f8:	e92d 41f0 	stmdb	sp!, {r4, r5, r6, r7, r8, lr}
100155fc:	460c      	mov	r4, r1
100155fe:	4680      	mov	r8, r0
10015600:	f7fd fe02 	bl	10013208 <__malloc_lock>
10015604:	f854 3c04 	ldr.w	r3, [r4, #-4]
10015608:	4f76      	ldr	r7, [pc, #472]	@ (100157e4 <_free_r+0x1f0>)
1001560a:	f1a4 0508 	sub.w	r5, r4, #8
1001560e:	f023 0101 	bic.w	r1, r3, #1
10015612:	1868      	adds	r0, r5, r1
10015614:	68be      	ldr	r6, [r7, #8]
10015616:	6842      	ldr	r2, [r0, #4]
10015618:	4286      	cmp	r6, r0
1001561a:	f022 0203 	bic.w	r2, r2, #3
1001561e:	f000 8083 	beq.w	10015728 <_free_r+0x134>
10015622:	07de      	lsls	r6, r3, #31
10015624:	6042      	str	r2, [r0, #4]
10015626:	eb00 0c02 	add.w	ip, r0, r2
1001562a:	d433      	bmi.n	10015694 <_free_r+0xa0>
1001562c:	f854 4c08 	ldr.w	r4, [r4, #-8]
10015630:	f8dc 3004 	ldr.w	r3, [ip, #4]
10015634:	1b2d      	subs	r5, r5, r4
10015636:	4421      	add	r1, r4
10015638:	68ac      	ldr	r4, [r5, #8]
1001563a:	f107 0c08 	add.w	ip, r7, #8
1001563e:	4564      	cmp	r4, ip
10015640:	f003 0301 	and.w	r3, r3, #1
10015644:	d064      	beq.n	10015710 <_free_r+0x11c>
10015646:	f8d5 e00c 	ldr.w	lr, [r5, #12]
1001564a:	f8c4 e00c 	str.w	lr, [r4, #12]
1001564e:	f8ce 4008 	str.w	r4, [lr, #8]
10015652:	2b00      	cmp	r3, #0
10015654:	f000 8081 	beq.w	1001575a <_free_r+0x166>
10015658:	f041 0301 	orr.w	r3, r1, #1
1001565c:	606b      	str	r3, [r5, #4]
1001565e:	6001      	str	r1, [r0, #0]
10015660:	f5b1 7f00 	cmp.w	r1, #512	@ 0x200
10015664:	d222      	bcs.n	100156ac <_free_r+0xb8>
10015666:	6878      	ldr	r0, [r7, #4]
10015668:	08cb      	lsrs	r3, r1, #3
1001566a:	2201      	movs	r2, #1
1001566c:	0949      	lsrs	r1, r1, #5
1001566e:	3301      	adds	r3, #1
10015670:	408a      	lsls	r2, r1
10015672:	4302      	orrs	r2, r0
10015674:	f857 1033 	ldr.w	r1, [r7, r3, lsl #3]
10015678:	607a      	str	r2, [r7, #4]
1001567a:	eb07 02c3 	add.w	r2, r7, r3, lsl #3
1001567e:	3a08      	subs	r2, #8
10015680:	e9c5 1202 	strd	r1, r2, [r5, #8]
10015684:	f847 5033 	str.w	r5, [r7, r3, lsl #3]
10015688:	60cd      	str	r5, [r1, #12]
1001568a:	4640      	mov	r0, r8
1001568c:	e8bd 41f0 	ldmia.w	sp!, {r4, r5, r6, r7, r8, lr}
10015690:	f7fd bdc0 	b.w	10013214 <__malloc_unlock>
10015694:	f8dc 3004 	ldr.w	r3, [ip, #4]
10015698:	07db      	lsls	r3, r3, #31
1001569a:	d52b      	bpl.n	100156f4 <_free_r+0x100>
1001569c:	f041 0301 	orr.w	r3, r1, #1
100156a0:	f5b1 7f00 	cmp.w	r1, #512	@ 0x200
100156a4:	f844 3c04 	str.w	r3, [r4, #-4]
100156a8:	6001      	str	r1, [r0, #0]
100156aa:	d3dc      	bcc.n	10015666 <_free_r+0x72>
100156ac:	f5b1 6f20 	cmp.w	r1, #2560	@ 0xa00
100156b0:	ea4f 2351 	mov.w	r3, r1, lsr #9
100156b4:	d253      	bcs.n	1001575e <_free_r+0x16a>
100156b6:	098b      	lsrs	r3, r1, #6
100156b8:	f103 0039 	add.w	r0, r3, #57	@ 0x39
100156bc:	f103 0238 	add.w	r2, r3, #56	@ 0x38
100156c0:	00c3      	lsls	r3, r0, #3
100156c2:	18f8      	adds	r0, r7, r3
100156c4:	58fb      	ldr	r3, [r7, r3]
100156c6:	3808      	subs	r0, #8
100156c8:	4298      	cmp	r0, r3
100156ca:	d103      	bne.n	100156d4 <_free_r+0xe0>
100156cc:	e063      	b.n	10015796 <_free_r+0x1a2>
100156ce:	689b      	ldr	r3, [r3, #8]
100156d0:	4298      	cmp	r0, r3
100156d2:	d004      	beq.n	100156de <_free_r+0xea>
100156d4:	685a      	ldr	r2, [r3, #4]
100156d6:	f022 0203 	bic.w	r2, r2, #3
100156da:	428a      	cmp	r2, r1
100156dc:	d8f7      	bhi.n	100156ce <_free_r+0xda>
100156de:	68d8      	ldr	r0, [r3, #12]
100156e0:	e9c5 3002 	strd	r3, r0, [r5, #8]
100156e4:	6085      	str	r5, [r0, #8]
100156e6:	60dd      	str	r5, [r3, #12]
100156e8:	4640      	mov	r0, r8
100156ea:	e8bd 41f0 	ldmia.w	sp!, {r4, r5, r6, r7, r8, lr}
100156ee:	f7fd bd91 	b.w	10013214 <__malloc_unlock>
100156f2:	4770      	bx	lr
100156f4:	4411      	add	r1, r2
100156f6:	f107 0c08 	add.w	ip, r7, #8
100156fa:	6883      	ldr	r3, [r0, #8]
100156fc:	4563      	cmp	r3, ip
100156fe:	d03f      	beq.n	10015780 <_free_r+0x18c>
10015700:	68c2      	ldr	r2, [r0, #12]
10015702:	60da      	str	r2, [r3, #12]
10015704:	6093      	str	r3, [r2, #8]
10015706:	f041 0301 	orr.w	r3, r1, #1
1001570a:	606b      	str	r3, [r5, #4]
1001570c:	5069      	str	r1, [r5, r1]
1001570e:	e7a7      	b.n	10015660 <_free_r+0x6c>
10015710:	2b00      	cmp	r3, #0
10015712:	d161      	bne.n	100157d8 <_free_r+0x1e4>
10015714:	440a      	add	r2, r1
10015716:	e9d0 1302 	ldrd	r1, r3, [r0, #8]
1001571a:	60cb      	str	r3, [r1, #12]
1001571c:	6099      	str	r1, [r3, #8]
1001571e:	f042 0301 	orr.w	r3, r2, #1
10015722:	606b      	str	r3, [r5, #4]
10015724:	50aa      	str	r2, [r5, r2]
10015726:	e7b0      	b.n	1001568a <_free_r+0x96>
10015728:	07db      	lsls	r3, r3, #31
1001572a:	440a      	add	r2, r1
1001572c:	d407      	bmi.n	1001573e <_free_r+0x14a>
1001572e:	f854 3c08 	ldr.w	r3, [r4, #-8]
10015732:	1aed      	subs	r5, r5, r3
10015734:	441a      	add	r2, r3
10015736:	e9d5 1302 	ldrd	r1, r3, [r5, #8]
1001573a:	60cb      	str	r3, [r1, #12]
1001573c:	6099      	str	r1, [r3, #8]
1001573e:	f042 0301 	orr.w	r3, r2, #1
10015742:	606b      	str	r3, [r5, #4]
10015744:	4b28      	ldr	r3, [pc, #160]	@ (100157e8 <_free_r+0x1f4>)
10015746:	60bd      	str	r5, [r7, #8]
10015748:	681b      	ldr	r3, [r3, #0]
1001574a:	4293      	cmp	r3, r2
1001574c:	d89d      	bhi.n	1001568a <_free_r+0x96>
1001574e:	4b27      	ldr	r3, [pc, #156]	@ (100157ec <_free_r+0x1f8>)
10015750:	4640      	mov	r0, r8
10015752:	6819      	ldr	r1, [r3, #0]
10015754:	f7ff fef2 	bl	1001553c <_malloc_trim_r>
10015758:	e797      	b.n	1001568a <_free_r+0x96>
1001575a:	4411      	add	r1, r2
1001575c:	e7cd      	b.n	100156fa <_free_r+0x106>
1001575e:	2b14      	cmp	r3, #20
10015760:	d908      	bls.n	10015774 <_free_r+0x180>
10015762:	2b54      	cmp	r3, #84	@ 0x54
10015764:	d81f      	bhi.n	100157a6 <_free_r+0x1b2>
10015766:	0b0b      	lsrs	r3, r1, #12
10015768:	f103 006f 	add.w	r0, r3, #111	@ 0x6f
1001576c:	f103 026e 	add.w	r2, r3, #110	@ 0x6e
10015770:	00c3      	lsls	r3, r0, #3
10015772:	e7a6      	b.n	100156c2 <_free_r+0xce>
10015774:	f103 005c 	add.w	r0, r3, #92	@ 0x5c
10015778:	f103 025b 	add.w	r2, r3, #91	@ 0x5b
1001577c:	00c3      	lsls	r3, r0, #3
1001577e:	e7a0      	b.n	100156c2 <_free_r+0xce>
10015780:	f041 0301 	orr.w	r3, r1, #1
10015784:	613d      	str	r5, [r7, #16]
10015786:	617d      	str	r5, [r7, #20]
10015788:	f8c5 c008 	str.w	ip, [r5, #8]
1001578c:	f8c5 c00c 	str.w	ip, [r5, #12]
10015790:	606b      	str	r3, [r5, #4]
10015792:	5069      	str	r1, [r5, r1]
10015794:	e779      	b.n	1001568a <_free_r+0x96>
10015796:	6879      	ldr	r1, [r7, #4]
10015798:	1092      	asrs	r2, r2, #2
1001579a:	2401      	movs	r4, #1
1001579c:	fa04 f202 	lsl.w	r2, r4, r2
100157a0:	430a      	orrs	r2, r1
100157a2:	607a      	str	r2, [r7, #4]
100157a4:	e79c      	b.n	100156e0 <_free_r+0xec>
100157a6:	f5b3 7faa 	cmp.w	r3, #340	@ 0x154
100157aa:	d806      	bhi.n	100157ba <_free_r+0x1c6>
100157ac:	0bcb      	lsrs	r3, r1, #15
100157ae:	f103 0078 	add.w	r0, r3, #120	@ 0x78
100157b2:	f103 0277 	add.w	r2, r3, #119	@ 0x77
100157b6:	00c3      	lsls	r3, r0, #3
100157b8:	e783      	b.n	100156c2 <_free_r+0xce>
100157ba:	f240 5254 	movw	r2, #1364	@ 0x554
100157be:	4293      	cmp	r3, r2
100157c0:	d806      	bhi.n	100157d0 <_free_r+0x1dc>
100157c2:	0c8b      	lsrs	r3, r1, #18
100157c4:	f103 007d 	add.w	r0, r3, #125	@ 0x7d
100157c8:	f103 027c 	add.w	r2, r3, #124	@ 0x7c
100157cc:	00c3      	lsls	r3, r0, #3
100157ce:	e778      	b.n	100156c2 <_free_r+0xce>
100157d0:	f44f 737e 	mov.w	r3, #1016	@ 0x3f8
100157d4:	227e      	movs	r2, #126	@ 0x7e
100157d6:	e774      	b.n	100156c2 <_free_r+0xce>
100157d8:	f041 0301 	orr.w	r3, r1, #1
100157dc:	606b      	str	r3, [r5, #4]
100157de:	6001      	str	r1, [r0, #0]
100157e0:	e753      	b.n	1001568a <_free_r+0x96>
100157e2:	bf00      	nop
100157e4:	20000040 	.word	0x20000040
100157e8:	2000003c 	.word	0x2000003c
100157ec:	2000105c 	.word	0x2000105c

100157f0 <__ascii_mbtowc>:
100157f0:	b082      	sub	sp, #8
100157f2:	b149      	cbz	r1, 10015808 <__ascii_mbtowc+0x18>
100157f4:	b15a      	cbz	r2, 1001580e <__ascii_mbtowc+0x1e>
100157f6:	b16b      	cbz	r3, 10015814 <__ascii_mbtowc+0x24>
100157f8:	7813      	ldrb	r3, [r2, #0]
100157fa:	600b      	str	r3, [r1, #0]
100157fc:	7812      	ldrb	r2, [r2, #0]
100157fe:	1e10      	subs	r0, r2, #0
10015800:	bf18      	it	ne
10015802:	2001      	movne	r0, #1
10015804:	b002      	add	sp, #8
10015806:	4770      	bx	lr
10015808:	a901      	add	r1, sp, #4
1001580a:	2a00      	cmp	r2, #0
1001580c:	d1f3      	bne.n	100157f6 <__ascii_mbtowc+0x6>
1001580e:	4610      	mov	r0, r2
10015810:	b002      	add	sp, #8
10015812:	4770      	bx	lr
10015814:	f06f 0001 	mvn.w	r0, #1
10015818:	e7f4      	b.n	10015804 <__ascii_mbtowc+0x14>
1001581a:	bf00      	nop
1001581c:	0000      	movs	r0, r0
	...

10015820 <_svfprintf_r>:
10015820:	e92d 4ff0 	stmdb	sp!, {r4, r5, r6, r7, r8, r9, sl, fp, lr}
10015824:	b0df      	sub	sp, #380	@ 0x17c
10015826:	460c      	mov	r4, r1
10015828:	9109      	str	r1, [sp, #36]	@ 0x24
1001582a:	4691      	mov	r9, r2
1001582c:	930d      	str	r3, [sp, #52]	@ 0x34
1001582e:	4683      	mov	fp, r0
10015830:	f7fe fc7e 	bl	10014130 <_localeconv_r>
10015834:	6803      	ldr	r3, [r0, #0]
10015836:	931a      	str	r3, [sp, #104]	@ 0x68
10015838:	4618      	mov	r0, r3
1001583a:	f7fe fde1 	bl	10014400 <strlen>
1001583e:	2208      	movs	r2, #8
10015840:	9018      	str	r0, [sp, #96]	@ 0x60
10015842:	2100      	movs	r1, #0
10015844:	a82e      	add	r0, sp, #184	@ 0xb8
10015846:	f7fe fbe7 	bl	10014018 <memset>
1001584a:	89a3      	ldrh	r3, [r4, #12]
1001584c:	061a      	lsls	r2, r3, #24
1001584e:	d503      	bpl.n	10015858 <_svfprintf_r+0x38>
10015850:	6923      	ldr	r3, [r4, #16]
10015852:	2b00      	cmp	r3, #0
10015854:	f000 8790 	beq.w	10016778 <_svfprintf_r+0xf58>
10015858:	ed9f 7b7f 	vldr	d7, [pc, #508]	@ 10015a58 <_svfprintf_r+0x238>
1001585c:	2300      	movs	r3, #0
1001585e:	e9cd 3333 	strd	r3, r3, [sp, #204]	@ 0xcc
10015862:	e9cd 331b 	strd	r3, r3, [sp, #108]	@ 0x6c
10015866:	e9cd 331d 	strd	r3, r3, [sp, #116]	@ 0x74
1001586a:	ed8d 7b16 	vstr	d7, [sp, #88]	@ 0x58
1001586e:	aa35      	add	r2, sp, #212	@ 0xd4
10015870:	9313      	str	r3, [sp, #76]	@ 0x4c
10015872:	9232      	str	r2, [sp, #200]	@ 0xc8
10015874:	4690      	mov	r8, r2
10015876:	9319      	str	r3, [sp, #100]	@ 0x64
10015878:	930a      	str	r3, [sp, #40]	@ 0x28
1001587a:	f8cd b01c 	str.w	fp, [sp, #28]
1001587e:	464d      	mov	r5, r9
10015880:	9f07      	ldr	r7, [sp, #28]
10015882:	462e      	mov	r6, r5
10015884:	4b76      	ldr	r3, [pc, #472]	@ (10015a60 <_svfprintf_r+0x240>)
10015886:	f8d3 40e4 	ldr.w	r4, [r3, #228]	@ 0xe4
1001588a:	f7fe fc4b 	bl	10014124 <__locale_mb_cur_max>
1001588e:	4603      	mov	r3, r0
10015890:	a82e      	add	r0, sp, #184	@ 0xb8
10015892:	9000      	str	r0, [sp, #0]
10015894:	4632      	mov	r2, r6
10015896:	a92a      	add	r1, sp, #168	@ 0xa8
10015898:	4638      	mov	r0, r7
1001589a:	47a0      	blx	r4
1001589c:	2800      	cmp	r0, #0
1001589e:	f000 80a9 	beq.w	100159f4 <_svfprintf_r+0x1d4>
100158a2:	f2c0 809f 	blt.w	100159e4 <_svfprintf_r+0x1c4>
100158a6:	9a2a      	ldr	r2, [sp, #168]	@ 0xa8
100158a8:	2a25      	cmp	r2, #37	@ 0x25
100158aa:	4603      	mov	r3, r0
100158ac:	d001      	beq.n	100158b2 <_svfprintf_r+0x92>
100158ae:	441e      	add	r6, r3
100158b0:	e7e8      	b.n	10015884 <_svfprintf_r+0x64>
100158b2:	1b77      	subs	r7, r6, r5
100158b4:	4604      	mov	r4, r0
100158b6:	f040 80a0 	bne.w	100159fa <_svfprintf_r+0x1da>
100158ba:	2300      	movs	r3, #0
100158bc:	f88d 309f 	strb.w	r3, [sp, #159]	@ 0x9f
100158c0:	4699      	mov	r9, r3
100158c2:	930b      	str	r3, [sp, #44]	@ 0x2c
100158c4:	f04f 32ff 	mov.w	r2, #4294967295	@ 0xffffffff
100158c8:	7873      	ldrb	r3, [r6, #1]
100158ca:	9208      	str	r2, [sp, #32]
100158cc:	1c74      	adds	r4, r6, #1
100158ce:	3401      	adds	r4, #1
100158d0:	f1a3 0220 	sub.w	r2, r3, #32
100158d4:	2a5a      	cmp	r2, #90	@ 0x5a
100158d6:	f200 80c5 	bhi.w	10015a64 <_svfprintf_r+0x244>
100158da:	e8df f012 	tbh	[pc, r2, lsl #1]
100158de:	02ee      	.short	0x02ee
100158e0:	00c300c3 	.word	0x00c300c3
100158e4:	00c302ea 	.word	0x00c302ea
100158e8:	00c300c3 	.word	0x00c300c3
100158ec:	00c3006a 	.word	0x00c3006a
100158f0:	025100c3 	.word	0x025100c3
100158f4:	00c30260 	.word	0x00c30260
100158f8:	02fc025c 	.word	0x02fc025c
100158fc:	02f800c3 	.word	0x02f800c3
10015900:	005b005b 	.word	0x005b005b
10015904:	005b005b 	.word	0x005b005b
10015908:	005b005b 	.word	0x005b005b
1001590c:	005b005b 	.word	0x005b005b
10015910:	00c3005b 	.word	0x00c3005b
10015914:	00c300c3 	.word	0x00c300c3
10015918:	00c300c3 	.word	0x00c300c3
1001591c:	00c300c3 	.word	0x00c300c3
10015920:	00c30144 	.word	0x00c30144
10015924:	031601d0 	.word	0x031601d0
10015928:	01440144 	.word	0x01440144
1001592c:	00c30144 	.word	0x00c30144
10015930:	00c300c3 	.word	0x00c300c3
10015934:	02e600c3 	.word	0x02e600c3
10015938:	00c300c3 	.word	0x00c300c3
1001593c:	00c30265 	.word	0x00c30265
10015940:	00c300c3 	.word	0x00c300c3
10015944:	00c301fa 	.word	0x00c301fa
10015948:	00c302d3 	.word	0x00c302d3
1001594c:	070e00c3 	.word	0x070e00c3
10015950:	00c300c3 	.word	0x00c300c3
10015954:	00c300c3 	.word	0x00c300c3
10015958:	00c300c3 	.word	0x00c300c3
1001595c:	00c300c3 	.word	0x00c300c3
10015960:	00c30144 	.word	0x00c30144
10015964:	022c01d0 	.word	0x022c01d0
10015968:	01440144 	.word	0x01440144
1001596c:	02960144 	.word	0x02960144
10015970:	007f022c 	.word	0x007f022c
10015974:	02af00c3 	.word	0x02af00c3
10015978:	02a000c3 	.word	0x02a000c3
1001597c:	02c10703 	.word	0x02c10703
10015980:	00c3007f 	.word	0x00c3007f
10015984:	007d01fa 	.word	0x007d01fa
10015988:	00c30709 	.word	0x00c30709
1001598c:	073200c3 	.word	0x073200c3
10015990:	007d00c3 	.word	0x007d00c3
10015994:	f1a3 0230 	sub.w	r2, r3, #48	@ 0x30
10015998:	2100      	movs	r1, #0
1001599a:	f814 3b01 	ldrb.w	r3, [r4], #1
1001599e:	eb01 0181 	add.w	r1, r1, r1, lsl #2
100159a2:	eb02 0141 	add.w	r1, r2, r1, lsl #1
100159a6:	f1a3 0230 	sub.w	r2, r3, #48	@ 0x30
100159aa:	2a09      	cmp	r2, #9
100159ac:	d9f5      	bls.n	1001599a <_svfprintf_r+0x17a>
100159ae:	910b      	str	r1, [sp, #44]	@ 0x2c
100159b0:	e78e      	b.n	100158d0 <_svfprintf_r+0xb0>
100159b2:	9f07      	ldr	r7, [sp, #28]
100159b4:	4638      	mov	r0, r7
100159b6:	f7fe fbbb 	bl	10014130 <_localeconv_r>
100159ba:	6843      	ldr	r3, [r0, #4]
100159bc:	931d      	str	r3, [sp, #116]	@ 0x74
100159be:	4618      	mov	r0, r3
100159c0:	f7fe fd1e 	bl	10014400 <strlen>
100159c4:	901e      	str	r0, [sp, #120]	@ 0x78
100159c6:	4606      	mov	r6, r0
100159c8:	4638      	mov	r0, r7
100159ca:	f7fe fbb1 	bl	10014130 <_localeconv_r>
100159ce:	6883      	ldr	r3, [r0, #8]
100159d0:	931b      	str	r3, [sp, #108]	@ 0x6c
100159d2:	2e00      	cmp	r6, #0
100159d4:	f040 861e 	bne.w	10016614 <_svfprintf_r+0xdf4>
100159d8:	7823      	ldrb	r3, [r4, #0]
100159da:	e778      	b.n	100158ce <_svfprintf_r+0xae>
100159dc:	7823      	ldrb	r3, [r4, #0]
100159de:	f049 0920 	orr.w	r9, r9, #32
100159e2:	e774      	b.n	100158ce <_svfprintf_r+0xae>
100159e4:	2208      	movs	r2, #8
100159e6:	2100      	movs	r1, #0
100159e8:	a82e      	add	r0, sp, #184	@ 0xb8
100159ea:	f7fe fb15 	bl	10014018 <memset>
100159ee:	2301      	movs	r3, #1
100159f0:	441e      	add	r6, r3
100159f2:	e747      	b.n	10015884 <_svfprintf_r+0x64>
100159f4:	1b77      	subs	r7, r6, r5
100159f6:	4604      	mov	r4, r0
100159f8:	d011      	beq.n	10015a1e <_svfprintf_r+0x1fe>
100159fa:	9b34      	ldr	r3, [sp, #208]	@ 0xd0
100159fc:	443b      	add	r3, r7
100159fe:	9334      	str	r3, [sp, #208]	@ 0xd0
10015a00:	9b33      	ldr	r3, [sp, #204]	@ 0xcc
10015a02:	3301      	adds	r3, #1
10015a04:	2b07      	cmp	r3, #7
10015a06:	e9c8 5700 	strd	r5, r7, [r8]
10015a0a:	9333      	str	r3, [sp, #204]	@ 0xcc
10015a0c:	dc18      	bgt.n	10015a40 <_svfprintf_r+0x220>
10015a0e:	f108 0808 	add.w	r8, r8, #8
10015a12:	9b0a      	ldr	r3, [sp, #40]	@ 0x28
10015a14:	443b      	add	r3, r7
10015a16:	930a      	str	r3, [sp, #40]	@ 0x28
10015a18:	2c00      	cmp	r4, #0
10015a1a:	f47f af4e 	bne.w	100158ba <_svfprintf_r+0x9a>
10015a1e:	9b34      	ldr	r3, [sp, #208]	@ 0xd0
10015a20:	f8dd b01c 	ldr.w	fp, [sp, #28]
10015a24:	2b00      	cmp	r3, #0
10015a26:	f041 81f3 	bne.w	10016e10 <_svfprintf_r+0x15f0>
10015a2a:	9b09      	ldr	r3, [sp, #36]	@ 0x24
10015a2c:	899b      	ldrh	r3, [r3, #12]
10015a2e:	f003 0340 	and.w	r3, r3, #64	@ 0x40
10015a32:	2b00      	cmp	r3, #0
10015a34:	f041 83c3 	bne.w	100171be <_svfprintf_r+0x199e>
10015a38:	980a      	ldr	r0, [sp, #40]	@ 0x28
10015a3a:	b05f      	add	sp, #380	@ 0x17c
10015a3c:	e8bd 8ff0 	ldmia.w	sp!, {r4, r5, r6, r7, r8, r9, sl, fp, pc}
10015a40:	9909      	ldr	r1, [sp, #36]	@ 0x24
10015a42:	9807      	ldr	r0, [sp, #28]
10015a44:	aa32      	add	r2, sp, #200	@ 0xc8
10015a46:	f002 fb43 	bl	100180d0 <__ssprint_r>
10015a4a:	2800      	cmp	r0, #0
10015a4c:	d1ed      	bne.n	10015a2a <_svfprintf_r+0x20a>
10015a4e:	f10d 08d4 	add.w	r8, sp, #212	@ 0xd4
10015a52:	e7de      	b.n	10015a12 <_svfprintf_r+0x1f2>
10015a54:	f3af 8000 	nop.w
	...
10015a60:	20000454 	.word	0x20000454
10015a64:	e9cd 340e 	strd	r3, r4, [sp, #56]	@ 0x38
10015a68:	2b00      	cmp	r3, #0
10015a6a:	d0d8      	beq.n	10015a1e <_svfprintf_r+0x1fe>
10015a6c:	2200      	movs	r2, #0
10015a6e:	f88d 3114 	strb.w	r3, [sp, #276]	@ 0x114
10015a72:	2301      	movs	r3, #1
10015a74:	f88d 209f 	strb.w	r2, [sp, #159]	@ 0x9f
10015a78:	9306      	str	r3, [sp, #24]
10015a7a:	920c      	str	r2, [sp, #48]	@ 0x30
10015a7c:	469b      	mov	fp, r3
10015a7e:	9208      	str	r2, [sp, #32]
10015a80:	9214      	str	r2, [sp, #80]	@ 0x50
10015a82:	9210      	str	r2, [sp, #64]	@ 0x40
10015a84:	9212      	str	r2, [sp, #72]	@ 0x48
10015a86:	ad45      	add	r5, sp, #276	@ 0x114
10015a88:	f019 0302 	ands.w	r3, r9, #2
10015a8c:	d002      	beq.n	10015a94 <_svfprintf_r+0x274>
10015a8e:	9906      	ldr	r1, [sp, #24]
10015a90:	3102      	adds	r1, #2
10015a92:	9106      	str	r1, [sp, #24]
10015a94:	f019 0784 	ands.w	r7, r9, #132	@ 0x84
10015a98:	9c34      	ldr	r4, [sp, #208]	@ 0xd0
10015a9a:	d105      	bne.n	10015aa8 <_svfprintf_r+0x288>
10015a9c:	990b      	ldr	r1, [sp, #44]	@ 0x2c
10015a9e:	9806      	ldr	r0, [sp, #24]
10015aa0:	1a0e      	subs	r6, r1, r0
10015aa2:	2e00      	cmp	r6, #0
10015aa4:	f300 80aa 	bgt.w	10015bfc <_svfprintf_r+0x3dc>
10015aa8:	b182      	cbz	r2, 10015acc <_svfprintf_r+0x2ac>
10015aaa:	2201      	movs	r2, #1
10015aac:	f8c8 2004 	str.w	r2, [r8, #4]
10015ab0:	9a33      	ldr	r2, [sp, #204]	@ 0xcc
10015ab2:	3201      	adds	r2, #1
10015ab4:	3401      	adds	r4, #1
10015ab6:	f10d 019f 	add.w	r1, sp, #159	@ 0x9f
10015aba:	2a07      	cmp	r2, #7
10015abc:	9434      	str	r4, [sp, #208]	@ 0xd0
10015abe:	9233      	str	r2, [sp, #204]	@ 0xcc
10015ac0:	f8c8 1000 	str.w	r1, [r8]
10015ac4:	f300 8405 	bgt.w	100162d2 <_svfprintf_r+0xab2>
10015ac8:	f108 0808 	add.w	r8, r8, #8
10015acc:	b183      	cbz	r3, 10015af0 <_svfprintf_r+0x2d0>
10015ace:	9b33      	ldr	r3, [sp, #204]	@ 0xcc
10015ad0:	aa28      	add	r2, sp, #160	@ 0xa0
10015ad2:	3301      	adds	r3, #1
10015ad4:	3402      	adds	r4, #2
10015ad6:	f8c8 2000 	str.w	r2, [r8]
10015ada:	2b07      	cmp	r3, #7
10015adc:	f04f 0202 	mov.w	r2, #2
10015ae0:	9434      	str	r4, [sp, #208]	@ 0xd0
10015ae2:	9333      	str	r3, [sp, #204]	@ 0xcc
10015ae4:	f8c8 2004 	str.w	r2, [r8, #4]
10015ae8:	f300 83e7 	bgt.w	100162ba <_svfprintf_r+0xa9a>
10015aec:	f108 0808 	add.w	r8, r8, #8
10015af0:	2f80      	cmp	r7, #128	@ 0x80
10015af2:	f000 82c0 	beq.w	10016076 <_svfprintf_r+0x856>
10015af6:	9b08      	ldr	r3, [sp, #32]
10015af8:	eba3 060b 	sub.w	r6, r3, fp
10015afc:	2e00      	cmp	r6, #0
10015afe:	f300 82ff 	bgt.w	10016100 <_svfprintf_r+0x8e0>
10015b02:	f419 7f80 	tst.w	r9, #256	@ 0x100
10015b06:	f040 8219 	bne.w	10015f3c <_svfprintf_r+0x71c>
10015b0a:	9b33      	ldr	r3, [sp, #204]	@ 0xcc
10015b0c:	f8c8 5000 	str.w	r5, [r8]
10015b10:	3301      	adds	r3, #1
10015b12:	445c      	add	r4, fp
10015b14:	2b07      	cmp	r3, #7
10015b16:	f8c8 b004 	str.w	fp, [r8, #4]
10015b1a:	9434      	str	r4, [sp, #208]	@ 0xd0
10015b1c:	9333      	str	r3, [sp, #204]	@ 0xcc
10015b1e:	f300 836c 	bgt.w	100161fa <_svfprintf_r+0x9da>
10015b22:	f108 0808 	add.w	r8, r8, #8
10015b26:	f019 0f04 	tst.w	r9, #4
10015b2a:	d005      	beq.n	10015b38 <_svfprintf_r+0x318>
10015b2c:	9b0b      	ldr	r3, [sp, #44]	@ 0x2c
10015b2e:	9a06      	ldr	r2, [sp, #24]
10015b30:	1a9d      	subs	r5, r3, r2
10015b32:	2d00      	cmp	r5, #0
10015b34:	f300 83dc 	bgt.w	100162f0 <_svfprintf_r+0xad0>
10015b38:	e9dd 320a 	ldrd	r3, r2, [sp, #40]	@ 0x28
10015b3c:	9906      	ldr	r1, [sp, #24]
10015b3e:	428a      	cmp	r2, r1
10015b40:	bfac      	ite	ge
10015b42:	189b      	addge	r3, r3, r2
10015b44:	185b      	addlt	r3, r3, r1
10015b46:	930a      	str	r3, [sp, #40]	@ 0x28
10015b48:	2c00      	cmp	r4, #0
10015b4a:	f040 8318 	bne.w	1001617e <_svfprintf_r+0x95e>
10015b4e:	2300      	movs	r3, #0
10015b50:	9333      	str	r3, [sp, #204]	@ 0xcc
10015b52:	9b0c      	ldr	r3, [sp, #48]	@ 0x30
10015b54:	b11b      	cbz	r3, 10015b5e <_svfprintf_r+0x33e>
10015b56:	990c      	ldr	r1, [sp, #48]	@ 0x30
10015b58:	9807      	ldr	r0, [sp, #28]
10015b5a:	f7ff fd4b 	bl	100155f4 <_free_r>
10015b5e:	f10d 08d4 	add.w	r8, sp, #212	@ 0xd4
10015b62:	9d0f      	ldr	r5, [sp, #60]	@ 0x3c
10015b64:	e68c      	b.n	10015880 <_svfprintf_r+0x60>
10015b66:	e9cd 340e 	strd	r3, r4, [sp, #56]	@ 0x38
10015b6a:	9b0d      	ldr	r3, [sp, #52]	@ 0x34
10015b6c:	3307      	adds	r3, #7
10015b6e:	f023 0307 	bic.w	r3, r3, #7
10015b72:	ecb3 7b02 	vldmia	r3!, {d7}
10015b76:	ec57 6b17 	vmov	r6, r7, d7
10015b7a:	930d      	str	r3, [sp, #52]	@ 0x34
10015b7c:	f027 4300 	bic.w	r3, r7, #2147483648	@ 0x80000000
10015b80:	9323      	str	r3, [sp, #140]	@ 0x8c
10015b82:	ed8d 7a22 	vstr	s14, [sp, #136]	@ 0x88
10015b86:	e9dd ab22 	ldrd	sl, fp, [sp, #136]	@ 0x88
10015b8a:	4bb1      	ldr	r3, [pc, #708]	@ (10015e50 <_svfprintf_r+0x630>)
10015b8c:	f04f 32ff 	mov.w	r2, #4294967295	@ 0xffffffff
10015b90:	4650      	mov	r0, sl
10015b92:	4659      	mov	r1, fp
10015b94:	ed8d 7b16 	vstr	d7, [sp, #88]	@ 0x58
10015b98:	f002 ffd2 	bl	10018b40 <__aeabi_dcmpun>
10015b9c:	2800      	cmp	r0, #0
10015b9e:	f040 8546 	bne.w	1001662e <_svfprintf_r+0xe0e>
10015ba2:	4bab      	ldr	r3, [pc, #684]	@ (10015e50 <_svfprintf_r+0x630>)
10015ba4:	f04f 32ff 	mov.w	r2, #4294967295	@ 0xffffffff
10015ba8:	4650      	mov	r0, sl
10015baa:	4659      	mov	r1, fp
10015bac:	f002 ffaa 	bl	10018b04 <__aeabi_dcmple>
10015bb0:	2800      	cmp	r0, #0
10015bb2:	f040 853c 	bne.w	1001662e <_svfprintf_r+0xe0e>
10015bb6:	2200      	movs	r2, #0
10015bb8:	2300      	movs	r3, #0
10015bba:	4630      	mov	r0, r6
10015bbc:	4639      	mov	r1, r7
10015bbe:	f002 ff97 	bl	10018af0 <__aeabi_dcmplt>
10015bc2:	2800      	cmp	r0, #0
10015bc4:	f041 8051 	bne.w	10016c6a <_svfprintf_r+0x144a>
10015bc8:	f89d 209f 	ldrb.w	r2, [sp, #159]	@ 0x9f
10015bcc:	4da1      	ldr	r5, [pc, #644]	@ (10015e54 <_svfprintf_r+0x634>)
10015bce:	4ba2      	ldr	r3, [pc, #648]	@ (10015e58 <_svfprintf_r+0x638>)
10015bd0:	f029 0980 	bic.w	r9, r9, #128	@ 0x80
10015bd4:	990e      	ldr	r1, [sp, #56]	@ 0x38
10015bd6:	2947      	cmp	r1, #71	@ 0x47
10015bd8:	bfc8      	it	gt
10015bda:	461d      	movgt	r5, r3
10015bdc:	2300      	movs	r3, #0
10015bde:	2103      	movs	r1, #3
10015be0:	930c      	str	r3, [sp, #48]	@ 0x30
10015be2:	9106      	str	r1, [sp, #24]
10015be4:	468b      	mov	fp, r1
10015be6:	9308      	str	r3, [sp, #32]
10015be8:	9314      	str	r3, [sp, #80]	@ 0x50
10015bea:	9310      	str	r3, [sp, #64]	@ 0x40
10015bec:	9312      	str	r3, [sp, #72]	@ 0x48
10015bee:	2a00      	cmp	r2, #0
10015bf0:	f43f af4a 	beq.w	10015a88 <_svfprintf_r+0x268>
10015bf4:	9b06      	ldr	r3, [sp, #24]
10015bf6:	3301      	adds	r3, #1
10015bf8:	9306      	str	r3, [sp, #24]
10015bfa:	e745      	b.n	10015a88 <_svfprintf_r+0x268>
10015bfc:	2e10      	cmp	r6, #16
10015bfe:	9a33      	ldr	r2, [sp, #204]	@ 0xcc
10015c00:	f341 8276 	ble.w	100170f0 <_svfprintf_r+0x18d0>
10015c04:	4895      	ldr	r0, [pc, #596]	@ (10015e5c <_svfprintf_r+0x63c>)
10015c06:	9521      	str	r5, [sp, #132]	@ 0x84
10015c08:	e9cd 371f 	strd	r3, r7, [sp, #124]	@ 0x7c
10015c0c:	4621      	mov	r1, r4
10015c0e:	9d09      	ldr	r5, [sp, #36]	@ 0x24
10015c10:	9c07      	ldr	r4, [sp, #28]
10015c12:	9015      	str	r0, [sp, #84]	@ 0x54
10015c14:	f04f 0a10 	mov.w	sl, #16
10015c18:	4607      	mov	r7, r0
10015c1a:	e004      	b.n	10015c26 <_svfprintf_r+0x406>
10015c1c:	3e10      	subs	r6, #16
10015c1e:	2e10      	cmp	r6, #16
10015c20:	f108 0808 	add.w	r8, r8, #8
10015c24:	dd16      	ble.n	10015c54 <_svfprintf_r+0x434>
10015c26:	3201      	adds	r2, #1
10015c28:	3110      	adds	r1, #16
10015c2a:	2a07      	cmp	r2, #7
10015c2c:	e9c8 7a00 	strd	r7, sl, [r8]
10015c30:	e9cd 2133 	strd	r2, r1, [sp, #204]	@ 0xcc
10015c34:	ddf2      	ble.n	10015c1c <_svfprintf_r+0x3fc>
10015c36:	aa32      	add	r2, sp, #200	@ 0xc8
10015c38:	4629      	mov	r1, r5
10015c3a:	4620      	mov	r0, r4
10015c3c:	f10d 08d4 	add.w	r8, sp, #212	@ 0xd4
10015c40:	f002 fa46 	bl	100180d0 <__ssprint_r>
10015c44:	2800      	cmp	r0, #0
10015c46:	f040 86f0 	bne.w	10016a2a <_svfprintf_r+0x120a>
10015c4a:	3e10      	subs	r6, #16
10015c4c:	2e10      	cmp	r6, #16
10015c4e:	e9dd 2133 	ldrd	r2, r1, [sp, #204]	@ 0xcc
10015c52:	dce8      	bgt.n	10015c26 <_svfprintf_r+0x406>
10015c54:	e9dd 371f 	ldrd	r3, r7, [sp, #124]	@ 0x7c
10015c58:	9d21      	ldr	r5, [sp, #132]	@ 0x84
10015c5a:	460c      	mov	r4, r1
10015c5c:	3201      	adds	r2, #1
10015c5e:	9915      	ldr	r1, [sp, #84]	@ 0x54
10015c60:	f8c8 1000 	str.w	r1, [r8]
10015c64:	4434      	add	r4, r6
10015c66:	2a07      	cmp	r2, #7
10015c68:	e9cd 2433 	strd	r2, r4, [sp, #204]	@ 0xcc
10015c6c:	f8c8 6004 	str.w	r6, [r8, #4]
10015c70:	f300 86ca 	bgt.w	10016a08 <_svfprintf_r+0x11e8>
10015c74:	f89d 209f 	ldrb.w	r2, [sp, #159]	@ 0x9f
10015c78:	f108 0808 	add.w	r8, r8, #8
10015c7c:	e714      	b.n	10015aa8 <_svfprintf_r+0x288>
10015c7e:	9a0d      	ldr	r2, [sp, #52]	@ 0x34
10015c80:	2b43      	cmp	r3, #67	@ 0x43
10015c82:	e9cd 340e 	strd	r3, r4, [sp, #56]	@ 0x38
10015c86:	f102 0404 	add.w	r4, r2, #4
10015c8a:	d003      	beq.n	10015c94 <_svfprintf_r+0x474>
10015c8c:	f019 0f10 	tst.w	r9, #16
10015c90:	f000 855c 	beq.w	1001674c <_svfprintf_r+0xf2c>
10015c94:	2208      	movs	r2, #8
10015c96:	2100      	movs	r1, #0
10015c98:	a830      	add	r0, sp, #192	@ 0xc0
10015c9a:	f7fe f9bd 	bl	10014018 <memset>
10015c9e:	9b0d      	ldr	r3, [sp, #52]	@ 0x34
10015ca0:	9807      	ldr	r0, [sp, #28]
10015ca2:	681a      	ldr	r2, [r3, #0]
10015ca4:	ad45      	add	r5, sp, #276	@ 0x114
10015ca6:	ab30      	add	r3, sp, #192	@ 0xc0
10015ca8:	4629      	mov	r1, r5
10015caa:	f7fe fc15 	bl	100144d8 <_wcrtomb_r>
10015cae:	f1b0 3fff 	cmp.w	r0, #4294967295	@ 0xffffffff
10015cb2:	4683      	mov	fp, r0
10015cb4:	f001 827e 	beq.w	100171b4 <_svfprintf_r+0x1994>
10015cb8:	ea20 73e0 	bic.w	r3, r0, r0, asr #31
10015cbc:	9306      	str	r3, [sp, #24]
10015cbe:	2200      	movs	r2, #0
10015cc0:	940d      	str	r4, [sp, #52]	@ 0x34
10015cc2:	f88d 209f 	strb.w	r2, [sp, #159]	@ 0x9f
10015cc6:	920c      	str	r2, [sp, #48]	@ 0x30
10015cc8:	9208      	str	r2, [sp, #32]
10015cca:	9214      	str	r2, [sp, #80]	@ 0x50
10015ccc:	9210      	str	r2, [sp, #64]	@ 0x40
10015cce:	9212      	str	r2, [sp, #72]	@ 0x48
10015cd0:	e6da      	b.n	10015a88 <_svfprintf_r+0x268>
10015cd2:	9e0d      	ldr	r6, [sp, #52]	@ 0x34
10015cd4:	f856 5b04 	ldr.w	r5, [r6], #4
10015cd8:	e9cd 340e 	strd	r3, r4, [sp, #56]	@ 0x38
10015cdc:	2300      	movs	r3, #0
10015cde:	f88d 309f 	strb.w	r3, [sp, #159]	@ 0x9f
10015ce2:	2d00      	cmp	r5, #0
10015ce4:	f000 8557 	beq.w	10016796 <_svfprintf_r+0xf76>
10015ce8:	9b0e      	ldr	r3, [sp, #56]	@ 0x38
10015cea:	2b53      	cmp	r3, #83	@ 0x53
10015cec:	f000 86b9 	beq.w	10016a62 <_svfprintf_r+0x1242>
10015cf0:	f019 0310 	ands.w	r3, r9, #16
10015cf4:	9312      	str	r3, [sp, #72]	@ 0x48
10015cf6:	f040 86b4 	bne.w	10016a62 <_svfprintf_r+0x1242>
10015cfa:	9b08      	ldr	r3, [sp, #32]
10015cfc:	1c5a      	adds	r2, r3, #1
10015cfe:	f001 8092 	beq.w	10016e26 <_svfprintf_r+0x1606>
10015d02:	9912      	ldr	r1, [sp, #72]	@ 0x48
10015d04:	461a      	mov	r2, r3
10015d06:	4628      	mov	r0, r5
10015d08:	f7fe fa82 	bl	10014210 <memchr>
10015d0c:	900c      	str	r0, [sp, #48]	@ 0x30
10015d0e:	2800      	cmp	r0, #0
10015d10:	f001 82ed 	beq.w	100172ee <_svfprintf_r+0x1ace>
10015d14:	9b0c      	ldr	r3, [sp, #48]	@ 0x30
10015d16:	960d      	str	r6, [sp, #52]	@ 0x34
10015d18:	eba3 0b05 	sub.w	fp, r3, r5
10015d1c:	9b12      	ldr	r3, [sp, #72]	@ 0x48
10015d1e:	9308      	str	r3, [sp, #32]
10015d20:	ea2b 71eb 	bic.w	r1, fp, fp, asr #31
10015d24:	9314      	str	r3, [sp, #80]	@ 0x50
10015d26:	9310      	str	r3, [sp, #64]	@ 0x40
10015d28:	930c      	str	r3, [sp, #48]	@ 0x30
10015d2a:	2373      	movs	r3, #115	@ 0x73
10015d2c:	f89d 209f 	ldrb.w	r2, [sp, #159]	@ 0x9f
10015d30:	9106      	str	r1, [sp, #24]
10015d32:	930e      	str	r3, [sp, #56]	@ 0x38
10015d34:	e75b      	b.n	10015bee <_svfprintf_r+0x3ce>
10015d36:	f019 0f20 	tst.w	r9, #32
10015d3a:	e9cd 340e 	strd	r3, r4, [sp, #56]	@ 0x38
10015d3e:	f000 80ec 	beq.w	10015f1a <_svfprintf_r+0x6fa>
10015d42:	9b0d      	ldr	r3, [sp, #52]	@ 0x34
10015d44:	3307      	adds	r3, #7
10015d46:	f023 0307 	bic.w	r3, r3, #7
10015d4a:	461a      	mov	r2, r3
10015d4c:	6859      	ldr	r1, [r3, #4]
10015d4e:	f852 3b08 	ldr.w	r3, [r2], #8
10015d52:	920d      	str	r2, [sp, #52]	@ 0x34
10015d54:	460a      	mov	r2, r1
10015d56:	2900      	cmp	r1, #0
10015d58:	f2c0 8419 	blt.w	1001658e <_svfprintf_r+0xd6e>
10015d5c:	9908      	ldr	r1, [sp, #32]
10015d5e:	3101      	adds	r1, #1
10015d60:	f000 829c 	beq.w	1001629c <_svfprintf_r+0xa7c>
10015d64:	ea53 0102 	orrs.w	r1, r3, r2
10015d68:	f029 0480 	bic.w	r4, r9, #128	@ 0x80
10015d6c:	f040 8297 	bne.w	1001629e <_svfprintf_r+0xa7e>
10015d70:	9a08      	ldr	r2, [sp, #32]
10015d72:	2a00      	cmp	r2, #0
10015d74:	f040 8298 	bne.w	100162a8 <_svfprintf_r+0xa88>
10015d78:	46a1      	mov	r9, r4
10015d7a:	4693      	mov	fp, r2
10015d7c:	ad5e      	add	r5, sp, #376	@ 0x178
10015d7e:	e151      	b.n	10016024 <_svfprintf_r+0x804>
10015d80:	9b0d      	ldr	r3, [sp, #52]	@ 0x34
10015d82:	f853 2b04 	ldr.w	r2, [r3], #4
10015d86:	920b      	str	r2, [sp, #44]	@ 0x2c
10015d88:	2a00      	cmp	r2, #0
10015d8a:	f280 8424 	bge.w	100165d6 <_svfprintf_r+0xdb6>
10015d8e:	9a0b      	ldr	r2, [sp, #44]	@ 0x2c
10015d90:	930d      	str	r3, [sp, #52]	@ 0x34
10015d92:	4252      	negs	r2, r2
10015d94:	920b      	str	r2, [sp, #44]	@ 0x2c
10015d96:	7823      	ldrb	r3, [r4, #0]
10015d98:	f049 0904 	orr.w	r9, r9, #4
10015d9c:	e597      	b.n	100158ce <_svfprintf_r+0xae>
10015d9e:	232b      	movs	r3, #43	@ 0x2b
10015da0:	f88d 309f 	strb.w	r3, [sp, #159]	@ 0x9f
10015da4:	7823      	ldrb	r3, [r4, #0]
10015da6:	e592      	b.n	100158ce <_svfprintf_r+0xae>
10015da8:	e9cd 340e 	strd	r3, r4, [sp, #56]	@ 0x38
10015dac:	f049 0910 	orr.w	r9, r9, #16
10015db0:	f019 0220 	ands.w	r2, r9, #32
10015db4:	f000 83b4 	beq.w	10016520 <_svfprintf_r+0xd00>
10015db8:	9b0d      	ldr	r3, [sp, #52]	@ 0x34
10015dba:	3307      	adds	r3, #7
10015dbc:	f023 0307 	bic.w	r3, r3, #7
10015dc0:	4619      	mov	r1, r3
10015dc2:	685a      	ldr	r2, [r3, #4]
10015dc4:	f851 3b08 	ldr.w	r3, [r1], #8
10015dc8:	910d      	str	r1, [sp, #52]	@ 0x34
10015dca:	f429 6480 	bic.w	r4, r9, #1024	@ 0x400
10015dce:	2100      	movs	r1, #0
10015dd0:	2000      	movs	r0, #0
10015dd2:	9d08      	ldr	r5, [sp, #32]
10015dd4:	f88d 009f 	strb.w	r0, [sp, #159]	@ 0x9f
10015dd8:	1c6f      	adds	r7, r5, #1
10015dda:	f000 810c 	beq.w	10015ff6 <_svfprintf_r+0x7d6>
10015dde:	ea53 0002 	orrs.w	r0, r3, r2
10015de2:	f024 0980 	bic.w	r9, r4, #128	@ 0x80
10015de6:	f040 8105 	bne.w	10015ff4 <_svfprintf_r+0x7d4>
10015dea:	2d00      	cmp	r5, #0
10015dec:	f040 8627 	bne.w	10016a3e <_svfprintf_r+0x121e>
10015df0:	2900      	cmp	r1, #0
10015df2:	f040 83c8 	bne.w	10016586 <_svfprintf_r+0xd66>
10015df6:	f014 0b01 	ands.w	fp, r4, #1
10015dfa:	f000 83f0 	beq.w	100165de <_svfprintf_r+0xdbe>
10015dfe:	2330      	movs	r3, #48	@ 0x30
10015e00:	f88d 3177 	strb.w	r3, [sp, #375]	@ 0x177
10015e04:	f20d 1577 	addw	r5, sp, #375	@ 0x177
10015e08:	e10c      	b.n	10016024 <_svfprintf_r+0x804>
10015e0a:	7823      	ldrb	r3, [r4, #0]
10015e0c:	2b68      	cmp	r3, #104	@ 0x68
10015e0e:	bf03      	ittte	eq
10015e10:	7863      	ldrbeq	r3, [r4, #1]
10015e12:	f449 7900 	orreq.w	r9, r9, #512	@ 0x200
10015e16:	3401      	addeq	r4, #1
10015e18:	f049 0940 	orrne.w	r9, r9, #64	@ 0x40
10015e1c:	e557      	b.n	100158ce <_svfprintf_r+0xae>
10015e1e:	f019 0f20 	tst.w	r9, #32
10015e22:	940f      	str	r4, [sp, #60]	@ 0x3c
10015e24:	f000 83e5 	beq.w	100165f2 <_svfprintf_r+0xdd2>
10015e28:	9b0d      	ldr	r3, [sp, #52]	@ 0x34
10015e2a:	9a0a      	ldr	r2, [sp, #40]	@ 0x28
10015e2c:	681b      	ldr	r3, [r3, #0]
10015e2e:	601a      	str	r2, [r3, #0]
10015e30:	17d2      	asrs	r2, r2, #31
10015e32:	605a      	str	r2, [r3, #4]
10015e34:	9b0d      	ldr	r3, [sp, #52]	@ 0x34
10015e36:	3304      	adds	r3, #4
10015e38:	930d      	str	r3, [sp, #52]	@ 0x34
10015e3a:	e692      	b.n	10015b62 <_svfprintf_r+0x342>
10015e3c:	7823      	ldrb	r3, [r4, #0]
10015e3e:	2b6c      	cmp	r3, #108	@ 0x6c
10015e40:	bf03      	ittte	eq
10015e42:	7863      	ldrbeq	r3, [r4, #1]
10015e44:	f049 0920 	orreq.w	r9, r9, #32
10015e48:	3401      	addeq	r4, #1
10015e4a:	f049 0910 	orrne.w	r9, r9, #16
10015e4e:	e53e      	b.n	100158ce <_svfprintf_r+0xae>
10015e50:	7fefffff 	.word	0x7fefffff
10015e54:	10019264 	.word	0x10019264
10015e58:	10019268 	.word	0x10019268
10015e5c:	100194cc 	.word	0x100194cc
10015e60:	9a0d      	ldr	r2, [sp, #52]	@ 0x34
10015e62:	940f      	str	r4, [sp, #60]	@ 0x3c
10015e64:	f852 3b04 	ldr.w	r3, [r2], #4
10015e68:	920d      	str	r2, [sp, #52]	@ 0x34
10015e6a:	f647 0230 	movw	r2, #30768	@ 0x7830
10015e6e:	f8ad 20a0 	strh.w	r2, [sp, #160]	@ 0xa0
10015e72:	2078      	movs	r0, #120	@ 0x78
10015e74:	4aa8      	ldr	r2, [pc, #672]	@ (10016118 <_svfprintf_r+0x8f8>)
10015e76:	9219      	str	r2, [sp, #100]	@ 0x64
10015e78:	f049 0402 	orr.w	r4, r9, #2
10015e7c:	2200      	movs	r2, #0
10015e7e:	2102      	movs	r1, #2
10015e80:	900e      	str	r0, [sp, #56]	@ 0x38
10015e82:	e7a5      	b.n	10015dd0 <_svfprintf_r+0x5b0>
10015e84:	e9cd 340e 	strd	r3, r4, [sp, #56]	@ 0x38
10015e88:	f049 0410 	orr.w	r4, r9, #16
10015e8c:	f014 0220 	ands.w	r2, r4, #32
10015e90:	f000 8355 	beq.w	1001653e <_svfprintf_r+0xd1e>
10015e94:	9b0d      	ldr	r3, [sp, #52]	@ 0x34
10015e96:	3307      	adds	r3, #7
10015e98:	f023 0307 	bic.w	r3, r3, #7
10015e9c:	4619      	mov	r1, r3
10015e9e:	685a      	ldr	r2, [r3, #4]
10015ea0:	f851 3b08 	ldr.w	r3, [r1], #8
10015ea4:	910d      	str	r1, [sp, #52]	@ 0x34
10015ea6:	2101      	movs	r1, #1
10015ea8:	e792      	b.n	10015dd0 <_svfprintf_r+0x5b0>
10015eaa:	7823      	ldrb	r3, [r4, #0]
10015eac:	f049 0908 	orr.w	r9, r9, #8
10015eb0:	e50d      	b.n	100158ce <_svfprintf_r+0xae>
10015eb2:	7823      	ldrb	r3, [r4, #0]
10015eb4:	f049 0901 	orr.w	r9, r9, #1
10015eb8:	e509      	b.n	100158ce <_svfprintf_r+0xae>
10015eba:	f89d 209f 	ldrb.w	r2, [sp, #159]	@ 0x9f
10015ebe:	7823      	ldrb	r3, [r4, #0]
10015ec0:	2a00      	cmp	r2, #0
10015ec2:	f47f ad04 	bne.w	100158ce <_svfprintf_r+0xae>
10015ec6:	2220      	movs	r2, #32
10015ec8:	f88d 209f 	strb.w	r2, [sp, #159]	@ 0x9f
10015ecc:	e4ff      	b.n	100158ce <_svfprintf_r+0xae>
10015ece:	7823      	ldrb	r3, [r4, #0]
10015ed0:	f049 0980 	orr.w	r9, r9, #128	@ 0x80
10015ed4:	e4fb      	b.n	100158ce <_svfprintf_r+0xae>
10015ed6:	4621      	mov	r1, r4
10015ed8:	f811 3b01 	ldrb.w	r3, [r1], #1
10015edc:	2b2a      	cmp	r3, #42	@ 0x2a
10015ede:	f001 8229 	beq.w	10017334 <_svfprintf_r+0x1b14>
10015ee2:	f1a3 0230 	sub.w	r2, r3, #48	@ 0x30
10015ee6:	2a09      	cmp	r2, #9
10015ee8:	460c      	mov	r4, r1
10015eea:	bf98      	it	ls
10015eec:	2100      	movls	r1, #0
10015eee:	f201 8130 	bhi.w	10017152 <_svfprintf_r+0x1932>
10015ef2:	f814 3b01 	ldrb.w	r3, [r4], #1
10015ef6:	eb01 0181 	add.w	r1, r1, r1, lsl #2
10015efa:	eb02 0141 	add.w	r1, r2, r1, lsl #1
10015efe:	f1a3 0230 	sub.w	r2, r3, #48	@ 0x30
10015f02:	2a09      	cmp	r2, #9
10015f04:	d9f5      	bls.n	10015ef2 <_svfprintf_r+0x6d2>
10015f06:	9108      	str	r1, [sp, #32]
10015f08:	e4e2      	b.n	100158d0 <_svfprintf_r+0xb0>
10015f0a:	f049 0910 	orr.w	r9, r9, #16
10015f0e:	f019 0f20 	tst.w	r9, #32
10015f12:	e9cd 340e 	strd	r3, r4, [sp, #56]	@ 0x38
10015f16:	f47f af14 	bne.w	10015d42 <_svfprintf_r+0x522>
10015f1a:	9a0d      	ldr	r2, [sp, #52]	@ 0x34
10015f1c:	f019 0f10 	tst.w	r9, #16
10015f20:	f852 3b04 	ldr.w	r3, [r2], #4
10015f24:	920d      	str	r2, [sp, #52]	@ 0x34
10015f26:	f040 8360 	bne.w	100165ea <_svfprintf_r+0xdca>
10015f2a:	f019 0f40 	tst.w	r9, #64	@ 0x40
10015f2e:	f000 8358 	beq.w	100165e2 <_svfprintf_r+0xdc2>
10015f32:	f343 32c0 	sbfx	r2, r3, #15, #1
10015f36:	4611      	mov	r1, r2
10015f38:	b21b      	sxth	r3, r3
10015f3a:	e70c      	b.n	10015d56 <_svfprintf_r+0x536>
10015f3c:	9b0e      	ldr	r3, [sp, #56]	@ 0x38
10015f3e:	2b65      	cmp	r3, #101	@ 0x65
10015f40:	f340 8166 	ble.w	10016210 <_svfprintf_r+0x9f0>
10015f44:	e9dd 0116 	ldrd	r0, r1, [sp, #88]	@ 0x58
10015f48:	2200      	movs	r2, #0
10015f4a:	2300      	movs	r3, #0
10015f4c:	f002 fdc6 	bl	10018adc <__aeabi_dcmpeq>
10015f50:	2800      	cmp	r0, #0
10015f52:	f000 8211 	beq.w	10016378 <_svfprintf_r+0xb58>
10015f56:	9b33      	ldr	r3, [sp, #204]	@ 0xcc
10015f58:	4a70      	ldr	r2, [pc, #448]	@ (1001611c <_svfprintf_r+0x8fc>)
10015f5a:	f8c8 2000 	str.w	r2, [r8]
10015f5e:	3301      	adds	r3, #1
10015f60:	3401      	adds	r4, #1
10015f62:	2201      	movs	r2, #1
10015f64:	2b07      	cmp	r3, #7
10015f66:	9434      	str	r4, [sp, #208]	@ 0xd0
10015f68:	9333      	str	r3, [sp, #204]	@ 0xcc
10015f6a:	f8c8 2004 	str.w	r2, [r8, #4]
10015f6e:	f300 856b 	bgt.w	10016a48 <_svfprintf_r+0x1228>
10015f72:	f108 0808 	add.w	r8, r8, #8
10015f76:	9b29      	ldr	r3, [sp, #164]	@ 0xa4
10015f78:	9a13      	ldr	r2, [sp, #76]	@ 0x4c
10015f7a:	4293      	cmp	r3, r2
10015f7c:	f280 8326 	bge.w	100165cc <_svfprintf_r+0xdac>
10015f80:	9b18      	ldr	r3, [sp, #96]	@ 0x60
10015f82:	9a1a      	ldr	r2, [sp, #104]	@ 0x68
10015f84:	441c      	add	r4, r3
10015f86:	e9c8 2300 	strd	r2, r3, [r8]
10015f8a:	9b33      	ldr	r3, [sp, #204]	@ 0xcc
10015f8c:	9434      	str	r4, [sp, #208]	@ 0xd0
10015f8e:	3301      	adds	r3, #1
10015f90:	2b07      	cmp	r3, #7
10015f92:	9333      	str	r3, [sp, #204]	@ 0xcc
10015f94:	f300 83e4 	bgt.w	10016760 <_svfprintf_r+0xf40>
10015f98:	f108 0808 	add.w	r8, r8, #8
10015f9c:	9b13      	ldr	r3, [sp, #76]	@ 0x4c
10015f9e:	1e5d      	subs	r5, r3, #1
10015fa0:	2d00      	cmp	r5, #0
10015fa2:	f77f adc0 	ble.w	10015b26 <_svfprintf_r+0x306>
10015fa6:	2d10      	cmp	r5, #16
10015fa8:	9b33      	ldr	r3, [sp, #204]	@ 0xcc
10015faa:	f340 85ad 	ble.w	10016b08 <_svfprintf_r+0x12e8>
10015fae:	4f5c      	ldr	r7, [pc, #368]	@ (10016120 <_svfprintf_r+0x900>)
10015fb0:	f8dd b01c 	ldr.w	fp, [sp, #28]
10015fb4:	f8dd a024 	ldr.w	sl, [sp, #36]	@ 0x24
10015fb8:	9715      	str	r7, [sp, #84]	@ 0x54
10015fba:	2610      	movs	r6, #16
10015fbc:	e005      	b.n	10015fca <_svfprintf_r+0x7aa>
10015fbe:	f108 0808 	add.w	r8, r8, #8
10015fc2:	3d10      	subs	r5, #16
10015fc4:	2d10      	cmp	r5, #16
10015fc6:	f340 85a1 	ble.w	10016b0c <_svfprintf_r+0x12ec>
10015fca:	3301      	adds	r3, #1
10015fcc:	3410      	adds	r4, #16
10015fce:	2b07      	cmp	r3, #7
10015fd0:	e9c8 7600 	strd	r7, r6, [r8]
10015fd4:	e9cd 3433 	strd	r3, r4, [sp, #204]	@ 0xcc
10015fd8:	ddf1      	ble.n	10015fbe <_svfprintf_r+0x79e>
10015fda:	aa32      	add	r2, sp, #200	@ 0xc8
10015fdc:	4651      	mov	r1, sl
10015fde:	4658      	mov	r0, fp
10015fe0:	f002 f876 	bl	100180d0 <__ssprint_r>
10015fe4:	2800      	cmp	r0, #0
10015fe6:	f040 82c0 	bne.w	1001656a <_svfprintf_r+0xd4a>
10015fea:	e9dd 3433 	ldrd	r3, r4, [sp, #204]	@ 0xcc
10015fee:	f10d 08d4 	add.w	r8, sp, #212	@ 0xd4
10015ff2:	e7e6      	b.n	10015fc2 <_svfprintf_r+0x7a2>
10015ff4:	464c      	mov	r4, r9
10015ff6:	2901      	cmp	r1, #1
10015ff8:	f000 8151 	beq.w	1001629e <_svfprintf_r+0xa7e>
10015ffc:	2902      	cmp	r1, #2
10015ffe:	ad5e      	add	r5, sp, #376	@ 0x178
10016000:	d11e      	bne.n	10016040 <_svfprintf_r+0x820>
10016002:	9819      	ldr	r0, [sp, #100]	@ 0x64
10016004:	f003 010f 	and.w	r1, r3, #15
10016008:	091b      	lsrs	r3, r3, #4
1001600a:	5c41      	ldrb	r1, [r0, r1]
1001600c:	f805 1d01 	strb.w	r1, [r5, #-1]!
10016010:	ea43 7302 	orr.w	r3, r3, r2, lsl #28
10016014:	0912      	lsrs	r2, r2, #4
10016016:	ea53 0102 	orrs.w	r1, r3, r2
1001601a:	d1f3      	bne.n	10016004 <_svfprintf_r+0x7e4>
1001601c:	ab5e      	add	r3, sp, #376	@ 0x178
1001601e:	46a1      	mov	r9, r4
10016020:	eba3 0b05 	sub.w	fp, r3, r5
10016024:	9908      	ldr	r1, [sp, #32]
10016026:	f89d 209f 	ldrb.w	r2, [sp, #159]	@ 0x9f
1001602a:	4559      	cmp	r1, fp
1001602c:	f04f 0300 	mov.w	r3, #0
10016030:	bfb8      	it	lt
10016032:	4659      	movlt	r1, fp
10016034:	930c      	str	r3, [sp, #48]	@ 0x30
10016036:	9106      	str	r1, [sp, #24]
10016038:	9314      	str	r3, [sp, #80]	@ 0x50
1001603a:	9310      	str	r3, [sp, #64]	@ 0x40
1001603c:	9312      	str	r3, [sp, #72]	@ 0x48
1001603e:	e5d6      	b.n	10015bee <_svfprintf_r+0x3ce>
10016040:	f003 0107 	and.w	r1, r3, #7
10016044:	08db      	lsrs	r3, r3, #3
10016046:	ea43 7342 	orr.w	r3, r3, r2, lsl #29
1001604a:	08d2      	lsrs	r2, r2, #3
1001604c:	3130      	adds	r1, #48	@ 0x30
1001604e:	ea53 0602 	orrs.w	r6, r3, r2
10016052:	4628      	mov	r0, r5
10016054:	f805 1d01 	strb.w	r1, [r5, #-1]!
10016058:	d1f2      	bne.n	10016040 <_svfprintf_r+0x820>
1001605a:	07e6      	lsls	r6, r4, #31
1001605c:	d5de      	bpl.n	1001601c <_svfprintf_r+0x7fc>
1001605e:	2930      	cmp	r1, #48	@ 0x30
10016060:	d0dc      	beq.n	1001601c <_svfprintf_r+0x7fc>
10016062:	2330      	movs	r3, #48	@ 0x30
10016064:	3802      	subs	r0, #2
10016066:	f805 3c01 	strb.w	r3, [r5, #-1]
1001606a:	ab5e      	add	r3, sp, #376	@ 0x178
1001606c:	46a1      	mov	r9, r4
1001606e:	eba3 0b00 	sub.w	fp, r3, r0
10016072:	4605      	mov	r5, r0
10016074:	e7d6      	b.n	10016024 <_svfprintf_r+0x804>
10016076:	9b0b      	ldr	r3, [sp, #44]	@ 0x2c
10016078:	9a06      	ldr	r2, [sp, #24]
1001607a:	1a9e      	subs	r6, r3, r2
1001607c:	2e00      	cmp	r6, #0
1001607e:	f77f ad3a 	ble.w	10015af6 <_svfprintf_r+0x2d6>
10016082:	2e10      	cmp	r6, #16
10016084:	9b33      	ldr	r3, [sp, #204]	@ 0xcc
10016086:	f341 809f 	ble.w	100171c8 <_svfprintf_r+0x19a8>
1001608a:	4825      	ldr	r0, [pc, #148]	@ (10016120 <_svfprintf_r+0x900>)
1001608c:	f8dd a01c 	ldr.w	sl, [sp, #28]
10016090:	9015      	str	r0, [sp, #84]	@ 0x54
10016092:	4621      	mov	r1, r4
10016094:	2710      	movs	r7, #16
10016096:	461a      	mov	r2, r3
10016098:	4604      	mov	r4, r0
1001609a:	e004      	b.n	100160a6 <_svfprintf_r+0x886>
1001609c:	3e10      	subs	r6, #16
1001609e:	2e10      	cmp	r6, #16
100160a0:	f108 0808 	add.w	r8, r8, #8
100160a4:	dd16      	ble.n	100160d4 <_svfprintf_r+0x8b4>
100160a6:	3201      	adds	r2, #1
100160a8:	3110      	adds	r1, #16
100160aa:	2a07      	cmp	r2, #7
100160ac:	e9c8 4700 	strd	r4, r7, [r8]
100160b0:	e9cd 2133 	strd	r2, r1, [sp, #204]	@ 0xcc
100160b4:	ddf2      	ble.n	1001609c <_svfprintf_r+0x87c>
100160b6:	9909      	ldr	r1, [sp, #36]	@ 0x24
100160b8:	aa32      	add	r2, sp, #200	@ 0xc8
100160ba:	4650      	mov	r0, sl
100160bc:	f10d 08d4 	add.w	r8, sp, #212	@ 0xd4
100160c0:	f002 f806 	bl	100180d0 <__ssprint_r>
100160c4:	2800      	cmp	r0, #0
100160c6:	f040 84b2 	bne.w	10016a2e <_svfprintf_r+0x120e>
100160ca:	3e10      	subs	r6, #16
100160cc:	2e10      	cmp	r6, #16
100160ce:	e9dd 2133 	ldrd	r2, r1, [sp, #204]	@ 0xcc
100160d2:	dce8      	bgt.n	100160a6 <_svfprintf_r+0x886>
100160d4:	460c      	mov	r4, r1
100160d6:	4613      	mov	r3, r2
100160d8:	3301      	adds	r3, #1
100160da:	9a15      	ldr	r2, [sp, #84]	@ 0x54
100160dc:	f8c8 2000 	str.w	r2, [r8]
100160e0:	4434      	add	r4, r6
100160e2:	2b07      	cmp	r3, #7
100160e4:	e9cd 3433 	strd	r3, r4, [sp, #204]	@ 0xcc
100160e8:	f8c8 6004 	str.w	r6, [r8, #4]
100160ec:	f300 851c 	bgt.w	10016b28 <_svfprintf_r+0x1308>
100160f0:	9b08      	ldr	r3, [sp, #32]
100160f2:	eba3 060b 	sub.w	r6, r3, fp
100160f6:	2e00      	cmp	r6, #0
100160f8:	f108 0808 	add.w	r8, r8, #8
100160fc:	f77f ad01 	ble.w	10015b02 <_svfprintf_r+0x2e2>
10016100:	4a07      	ldr	r2, [pc, #28]	@ (10016120 <_svfprintf_r+0x900>)
10016102:	9b33      	ldr	r3, [sp, #204]	@ 0xcc
10016104:	9215      	str	r2, [sp, #84]	@ 0x54
10016106:	2e10      	cmp	r6, #16
10016108:	dd2a      	ble.n	10016160 <_svfprintf_r+0x940>
1001610a:	4622      	mov	r2, r4
1001610c:	9f07      	ldr	r7, [sp, #28]
1001610e:	9c09      	ldr	r4, [sp, #36]	@ 0x24
10016110:	f04f 0a10 	mov.w	sl, #16
10016114:	e00b      	b.n	1001612e <_svfprintf_r+0x90e>
10016116:	bf00      	nop
10016118:	10019274 	.word	0x10019274
1001611c:	100192a4 	.word	0x100192a4
10016120:	100194bc 	.word	0x100194bc
10016124:	3e10      	subs	r6, #16
10016126:	2e10      	cmp	r6, #16
10016128:	f108 0808 	add.w	r8, r8, #8
1001612c:	dd17      	ble.n	1001615e <_svfprintf_r+0x93e>
1001612e:	3301      	adds	r3, #1
10016130:	498e      	ldr	r1, [pc, #568]	@ (1001636c <_svfprintf_r+0xb4c>)
10016132:	3210      	adds	r2, #16
10016134:	2b07      	cmp	r3, #7
10016136:	e9c8 1a00 	strd	r1, sl, [r8]
1001613a:	e9cd 3233 	strd	r3, r2, [sp, #204]	@ 0xcc
1001613e:	ddf1      	ble.n	10016124 <_svfprintf_r+0x904>
10016140:	aa32      	add	r2, sp, #200	@ 0xc8
10016142:	4621      	mov	r1, r4
10016144:	4638      	mov	r0, r7
10016146:	f001 ffc3 	bl	100180d0 <__ssprint_r>
1001614a:	2800      	cmp	r0, #0
1001614c:	f040 820c 	bne.w	10016568 <_svfprintf_r+0xd48>
10016150:	3e10      	subs	r6, #16
10016152:	2e10      	cmp	r6, #16
10016154:	e9dd 3233 	ldrd	r3, r2, [sp, #204]	@ 0xcc
10016158:	f10d 08d4 	add.w	r8, sp, #212	@ 0xd4
1001615c:	dce7      	bgt.n	1001612e <_svfprintf_r+0x90e>
1001615e:	4614      	mov	r4, r2
10016160:	3301      	adds	r3, #1
10016162:	9a15      	ldr	r2, [sp, #84]	@ 0x54
10016164:	f8c8 2000 	str.w	r2, [r8]
10016168:	4434      	add	r4, r6
1001616a:	2b07      	cmp	r3, #7
1001616c:	e9cd 3433 	strd	r3, r4, [sp, #204]	@ 0xcc
10016170:	f8c8 6004 	str.w	r6, [r8, #4]
10016174:	f300 81c7 	bgt.w	10016506 <_svfprintf_r+0xce6>
10016178:	f108 0808 	add.w	r8, r8, #8
1001617c:	e4c1      	b.n	10015b02 <_svfprintf_r+0x2e2>
1001617e:	9909      	ldr	r1, [sp, #36]	@ 0x24
10016180:	9807      	ldr	r0, [sp, #28]
10016182:	aa32      	add	r2, sp, #200	@ 0xc8
10016184:	f001 ffa4 	bl	100180d0 <__ssprint_r>
10016188:	2800      	cmp	r0, #0
1001618a:	f43f ace0 	beq.w	10015b4e <_svfprintf_r+0x32e>
1001618e:	f8dd b01c 	ldr.w	fp, [sp, #28]
10016192:	e1ea      	b.n	1001656a <_svfprintf_r+0xd4a>
10016194:	9b33      	ldr	r3, [sp, #204]	@ 0xcc
10016196:	4976      	ldr	r1, [pc, #472]	@ (10016370 <_svfprintf_r+0xb50>)
10016198:	f8c8 1000 	str.w	r1, [r8]
1001619c:	3301      	adds	r3, #1
1001619e:	3401      	adds	r4, #1
100161a0:	2101      	movs	r1, #1
100161a2:	2b07      	cmp	r3, #7
100161a4:	9434      	str	r4, [sp, #208]	@ 0xd0
100161a6:	9333      	str	r3, [sp, #204]	@ 0xcc
100161a8:	f8c8 1004 	str.w	r1, [r8, #4]
100161ac:	f300 8573 	bgt.w	10016c96 <_svfprintf_r+0x1476>
100161b0:	f108 0808 	add.w	r8, r8, #8
100161b4:	2a00      	cmp	r2, #0
100161b6:	f040 84e5 	bne.w	10016b84 <_svfprintf_r+0x1364>
100161ba:	9a13      	ldr	r2, [sp, #76]	@ 0x4c
100161bc:	f009 0301 	and.w	r3, r9, #1
100161c0:	4313      	orrs	r3, r2
100161c2:	f43f acb0 	beq.w	10015b26 <_svfprintf_r+0x306>
100161c6:	9b18      	ldr	r3, [sp, #96]	@ 0x60
100161c8:	9a1a      	ldr	r2, [sp, #104]	@ 0x68
100161ca:	441c      	add	r4, r3
100161cc:	e9c8 2300 	strd	r2, r3, [r8]
100161d0:	9b33      	ldr	r3, [sp, #204]	@ 0xcc
100161d2:	9434      	str	r4, [sp, #208]	@ 0xd0
100161d4:	3301      	adds	r3, #1
100161d6:	2b07      	cmp	r3, #7
100161d8:	9333      	str	r3, [sp, #204]	@ 0xcc
100161da:	f300 8643 	bgt.w	10016e64 <_svfprintf_r+0x1644>
100161de:	f108 0808 	add.w	r8, r8, #8
100161e2:	9a13      	ldr	r2, [sp, #76]	@ 0x4c
100161e4:	f8c8 5000 	str.w	r5, [r8]
100161e8:	3301      	adds	r3, #1
100161ea:	4414      	add	r4, r2
100161ec:	2b07      	cmp	r3, #7
100161ee:	e9cd 3433 	strd	r3, r4, [sp, #204]	@ 0xcc
100161f2:	f8c8 2004 	str.w	r2, [r8, #4]
100161f6:	f77f ac94 	ble.w	10015b22 <_svfprintf_r+0x302>
100161fa:	9909      	ldr	r1, [sp, #36]	@ 0x24
100161fc:	9807      	ldr	r0, [sp, #28]
100161fe:	aa32      	add	r2, sp, #200	@ 0xc8
10016200:	f001 ff66 	bl	100180d0 <__ssprint_r>
10016204:	2800      	cmp	r0, #0
10016206:	d1c2      	bne.n	1001618e <_svfprintf_r+0x96e>
10016208:	9c34      	ldr	r4, [sp, #208]	@ 0xd0
1001620a:	f10d 08d4 	add.w	r8, sp, #212	@ 0xd4
1001620e:	e48a      	b.n	10015b26 <_svfprintf_r+0x306>
10016210:	9b13      	ldr	r3, [sp, #76]	@ 0x4c
10016212:	9e33      	ldr	r6, [sp, #204]	@ 0xcc
10016214:	2b01      	cmp	r3, #1
10016216:	f104 0401 	add.w	r4, r4, #1
1001621a:	f106 0601 	add.w	r6, r6, #1
1001621e:	f108 0708 	add.w	r7, r8, #8
10016222:	f340 8129 	ble.w	10016478 <_svfprintf_r+0xc58>
10016226:	2301      	movs	r3, #1
10016228:	2e07      	cmp	r6, #7
1001622a:	e9cd 6433 	strd	r6, r4, [sp, #204]	@ 0xcc
1001622e:	f8c8 5000 	str.w	r5, [r8]
10016232:	f8c8 3004 	str.w	r3, [r8, #4]
10016236:	f300 81b1 	bgt.w	1001659c <_svfprintf_r+0xd7c>
1001623a:	9b18      	ldr	r3, [sp, #96]	@ 0x60
1001623c:	9a1a      	ldr	r2, [sp, #104]	@ 0x68
1001623e:	3601      	adds	r6, #1
10016240:	441c      	add	r4, r3
10016242:	2e07      	cmp	r6, #7
10016244:	e9c7 2300 	strd	r2, r3, [r7]
10016248:	e9cd 6433 	strd	r6, r4, [sp, #204]	@ 0xcc
1001624c:	f300 81b2 	bgt.w	100165b4 <_svfprintf_r+0xd94>
10016250:	3708      	adds	r7, #8
10016252:	9b13      	ldr	r3, [sp, #76]	@ 0x4c
10016254:	e9dd 0116 	ldrd	r0, r1, [sp, #88]	@ 0x58
10016258:	f103 38ff 	add.w	r8, r3, #4294967295	@ 0xffffffff
1001625c:	2200      	movs	r2, #0
1001625e:	2300      	movs	r3, #0
10016260:	f002 fc3c 	bl	10018adc <__aeabi_dcmpeq>
10016264:	2800      	cmp	r0, #0
10016266:	f040 8121 	bne.w	100164ac <_svfprintf_r+0xc8c>
1001626a:	3601      	adds	r6, #1
1001626c:	3501      	adds	r5, #1
1001626e:	4444      	add	r4, r8
10016270:	2e07      	cmp	r6, #7
10016272:	e9cd 6433 	strd	r6, r4, [sp, #204]	@ 0xcc
10016276:	603d      	str	r5, [r7, #0]
10016278:	f8c7 8004 	str.w	r8, [r7, #4]
1001627c:	f300 810a 	bgt.w	10016494 <_svfprintf_r+0xc74>
10016280:	3708      	adds	r7, #8
10016282:	9b1c      	ldr	r3, [sp, #112]	@ 0x70
10016284:	607b      	str	r3, [r7, #4]
10016286:	3601      	adds	r6, #1
10016288:	441c      	add	r4, r3
1001628a:	2e07      	cmp	r6, #7
1001628c:	ab2c      	add	r3, sp, #176	@ 0xb0
1001628e:	e9cd 6433 	strd	r6, r4, [sp, #204]	@ 0xcc
10016292:	603b      	str	r3, [r7, #0]
10016294:	dcb1      	bgt.n	100161fa <_svfprintf_r+0x9da>
10016296:	f107 0808 	add.w	r8, r7, #8
1001629a:	e444      	b.n	10015b26 <_svfprintf_r+0x306>
1001629c:	464c      	mov	r4, r9
1001629e:	2b0a      	cmp	r3, #10
100162a0:	f172 0100 	sbcs.w	r1, r2, #0
100162a4:	f080 8353 	bcs.w	1001694e <_svfprintf_r+0x112e>
100162a8:	3330      	adds	r3, #48	@ 0x30
100162aa:	f88d 3177 	strb.w	r3, [sp, #375]	@ 0x177
100162ae:	46a1      	mov	r9, r4
100162b0:	f04f 0b01 	mov.w	fp, #1
100162b4:	f20d 1577 	addw	r5, sp, #375	@ 0x177
100162b8:	e6b4      	b.n	10016024 <_svfprintf_r+0x804>
100162ba:	9909      	ldr	r1, [sp, #36]	@ 0x24
100162bc:	9807      	ldr	r0, [sp, #28]
100162be:	aa32      	add	r2, sp, #200	@ 0xc8
100162c0:	f001 ff06 	bl	100180d0 <__ssprint_r>
100162c4:	2800      	cmp	r0, #0
100162c6:	f47f af62 	bne.w	1001618e <_svfprintf_r+0x96e>
100162ca:	9c34      	ldr	r4, [sp, #208]	@ 0xd0
100162cc:	f10d 08d4 	add.w	r8, sp, #212	@ 0xd4
100162d0:	e40e      	b.n	10015af0 <_svfprintf_r+0x2d0>
100162d2:	9909      	ldr	r1, [sp, #36]	@ 0x24
100162d4:	9807      	ldr	r0, [sp, #28]
100162d6:	9315      	str	r3, [sp, #84]	@ 0x54
100162d8:	aa32      	add	r2, sp, #200	@ 0xc8
100162da:	f001 fef9 	bl	100180d0 <__ssprint_r>
100162de:	2800      	cmp	r0, #0
100162e0:	f47f af55 	bne.w	1001618e <_svfprintf_r+0x96e>
100162e4:	9c34      	ldr	r4, [sp, #208]	@ 0xd0
100162e6:	9b15      	ldr	r3, [sp, #84]	@ 0x54
100162e8:	f10d 08d4 	add.w	r8, sp, #212	@ 0xd4
100162ec:	f7ff bbee 	b.w	10015acc <_svfprintf_r+0x2ac>
100162f0:	2d10      	cmp	r5, #16
100162f2:	9b33      	ldr	r3, [sp, #204]	@ 0xcc
100162f4:	f340 8731 	ble.w	1001715a <_svfprintf_r+0x193a>
100162f8:	4f1e      	ldr	r7, [pc, #120]	@ (10016374 <_svfprintf_r+0xb54>)
100162fa:	f8dd 901c 	ldr.w	r9, [sp, #28]
100162fe:	f8dd a024 	ldr.w	sl, [sp, #36]	@ 0x24
10016302:	9715      	str	r7, [sp, #84]	@ 0x54
10016304:	2610      	movs	r6, #16
10016306:	e004      	b.n	10016312 <_svfprintf_r+0xaf2>
10016308:	3d10      	subs	r5, #16
1001630a:	2d10      	cmp	r5, #16
1001630c:	f108 0808 	add.w	r8, r8, #8
10016310:	dd16      	ble.n	10016340 <_svfprintf_r+0xb20>
10016312:	3301      	adds	r3, #1
10016314:	3410      	adds	r4, #16
10016316:	2b07      	cmp	r3, #7
10016318:	e9c8 7600 	strd	r7, r6, [r8]
1001631c:	e9cd 3433 	strd	r3, r4, [sp, #204]	@ 0xcc
10016320:	ddf2      	ble.n	10016308 <_svfprintf_r+0xae8>
10016322:	aa32      	add	r2, sp, #200	@ 0xc8
10016324:	4651      	mov	r1, sl
10016326:	4648      	mov	r0, r9
10016328:	f10d 08d4 	add.w	r8, sp, #212	@ 0xd4
1001632c:	f001 fed0 	bl	100180d0 <__ssprint_r>
10016330:	2800      	cmp	r0, #0
10016332:	f040 83e7 	bne.w	10016b04 <_svfprintf_r+0x12e4>
10016336:	3d10      	subs	r5, #16
10016338:	2d10      	cmp	r5, #16
1001633a:	e9dd 3433 	ldrd	r3, r4, [sp, #204]	@ 0xcc
1001633e:	dce8      	bgt.n	10016312 <_svfprintf_r+0xaf2>
10016340:	3301      	adds	r3, #1
10016342:	9a15      	ldr	r2, [sp, #84]	@ 0x54
10016344:	442c      	add	r4, r5
10016346:	2b07      	cmp	r3, #7
10016348:	e9c8 2500 	strd	r2, r5, [r8]
1001634c:	e9cd 3433 	strd	r3, r4, [sp, #204]	@ 0xcc
10016350:	f77f abf2 	ble.w	10015b38 <_svfprintf_r+0x318>
10016354:	9909      	ldr	r1, [sp, #36]	@ 0x24
10016356:	9807      	ldr	r0, [sp, #28]
10016358:	aa32      	add	r2, sp, #200	@ 0xc8
1001635a:	f001 feb9 	bl	100180d0 <__ssprint_r>
1001635e:	2800      	cmp	r0, #0
10016360:	f47f af15 	bne.w	1001618e <_svfprintf_r+0x96e>
10016364:	9c34      	ldr	r4, [sp, #208]	@ 0xd0
10016366:	f7ff bbe7 	b.w	10015b38 <_svfprintf_r+0x318>
1001636a:	bf00      	nop
1001636c:	100194bc 	.word	0x100194bc
10016370:	100192a4 	.word	0x100192a4
10016374:	100194cc 	.word	0x100194cc
10016378:	9a29      	ldr	r2, [sp, #164]	@ 0xa4
1001637a:	2a00      	cmp	r2, #0
1001637c:	f77f af0a 	ble.w	10016194 <_svfprintf_r+0x974>
10016380:	e9dd 7312 	ldrd	r7, r3, [sp, #72]	@ 0x48
10016384:	429f      	cmp	r7, r3
10016386:	bfa8      	it	ge
10016388:	461f      	movge	r7, r3
1001638a:	2f00      	cmp	r7, #0
1001638c:	eb05 0b03 	add.w	fp, r5, r3
10016390:	dd0b      	ble.n	100163aa <_svfprintf_r+0xb8a>
10016392:	9b33      	ldr	r3, [sp, #204]	@ 0xcc
10016394:	3301      	adds	r3, #1
10016396:	443c      	add	r4, r7
10016398:	2b07      	cmp	r3, #7
1001639a:	e9c8 5700 	strd	r5, r7, [r8]
1001639e:	9434      	str	r4, [sp, #208]	@ 0xd0
100163a0:	9333      	str	r3, [sp, #204]	@ 0xcc
100163a2:	f300 8640 	bgt.w	10017026 <_svfprintf_r+0x1806>
100163a6:	f108 0808 	add.w	r8, r8, #8
100163aa:	9e12      	ldr	r6, [sp, #72]	@ 0x48
100163ac:	2f00      	cmp	r7, #0
100163ae:	bfa8      	it	ge
100163b0:	1bf6      	subge	r6, r6, r7
100163b2:	2e00      	cmp	r6, #0
100163b4:	f300 8200 	bgt.w	100167b8 <_svfprintf_r+0xf98>
100163b8:	9b12      	ldr	r3, [sp, #72]	@ 0x48
100163ba:	f419 6f80 	tst.w	r9, #1024	@ 0x400
100163be:	442b      	add	r3, r5
100163c0:	469a      	mov	sl, r3
100163c2:	f040 8221 	bne.w	10016808 <_svfprintf_r+0xfe8>
100163c6:	9d29      	ldr	r5, [sp, #164]	@ 0xa4
100163c8:	9b13      	ldr	r3, [sp, #76]	@ 0x4c
100163ca:	429d      	cmp	r5, r3
100163cc:	db03      	blt.n	100163d6 <_svfprintf_r+0xbb6>
100163ce:	f019 0f01 	tst.w	r9, #1
100163d2:	f000 846e 	beq.w	10016cb2 <_svfprintf_r+0x1492>
100163d6:	9b18      	ldr	r3, [sp, #96]	@ 0x60
100163d8:	9a1a      	ldr	r2, [sp, #104]	@ 0x68
100163da:	441c      	add	r4, r3
100163dc:	e9c8 2300 	strd	r2, r3, [r8]
100163e0:	9b33      	ldr	r3, [sp, #204]	@ 0xcc
100163e2:	9434      	str	r4, [sp, #208]	@ 0xd0
100163e4:	3301      	adds	r3, #1
100163e6:	2b07      	cmp	r3, #7
100163e8:	9333      	str	r3, [sp, #204]	@ 0xcc
100163ea:	f300 8673 	bgt.w	100170d4 <_svfprintf_r+0x18b4>
100163ee:	f108 0808 	add.w	r8, r8, #8
100163f2:	9b13      	ldr	r3, [sp, #76]	@ 0x4c
100163f4:	ebab 060a 	sub.w	r6, fp, sl
100163f8:	1b5d      	subs	r5, r3, r5
100163fa:	42ae      	cmp	r6, r5
100163fc:	bfa8      	it	ge
100163fe:	462e      	movge	r6, r5
10016400:	2e00      	cmp	r6, #0
10016402:	dd0d      	ble.n	10016420 <_svfprintf_r+0xc00>
10016404:	9b33      	ldr	r3, [sp, #204]	@ 0xcc
10016406:	f8c8 a000 	str.w	sl, [r8]
1001640a:	3301      	adds	r3, #1
1001640c:	4434      	add	r4, r6
1001640e:	2b07      	cmp	r3, #7
10016410:	f8c8 6004 	str.w	r6, [r8, #4]
10016414:	9434      	str	r4, [sp, #208]	@ 0xd0
10016416:	9333      	str	r3, [sp, #204]	@ 0xcc
10016418:	f300 866e 	bgt.w	100170f8 <_svfprintf_r+0x18d8>
1001641c:	f108 0808 	add.w	r8, r8, #8
10016420:	2e00      	cmp	r6, #0
10016422:	bfa8      	it	ge
10016424:	1bad      	subge	r5, r5, r6
10016426:	2d00      	cmp	r5, #0
10016428:	f77f ab7d 	ble.w	10015b26 <_svfprintf_r+0x306>
1001642c:	2d10      	cmp	r5, #16
1001642e:	9b33      	ldr	r3, [sp, #204]	@ 0xcc
10016430:	f340 836a 	ble.w	10016b08 <_svfprintf_r+0x12e8>
10016434:	4fad      	ldr	r7, [pc, #692]	@ (100166ec <_svfprintf_r+0xecc>)
10016436:	f8dd b01c 	ldr.w	fp, [sp, #28]
1001643a:	f8dd a024 	ldr.w	sl, [sp, #36]	@ 0x24
1001643e:	9715      	str	r7, [sp, #84]	@ 0x54
10016440:	2610      	movs	r6, #16
10016442:	e005      	b.n	10016450 <_svfprintf_r+0xc30>
10016444:	f108 0808 	add.w	r8, r8, #8
10016448:	3d10      	subs	r5, #16
1001644a:	2d10      	cmp	r5, #16
1001644c:	f340 835e 	ble.w	10016b0c <_svfprintf_r+0x12ec>
10016450:	3301      	adds	r3, #1
10016452:	3410      	adds	r4, #16
10016454:	2b07      	cmp	r3, #7
10016456:	e9c8 7600 	strd	r7, r6, [r8]
1001645a:	e9cd 3433 	strd	r3, r4, [sp, #204]	@ 0xcc
1001645e:	ddf1      	ble.n	10016444 <_svfprintf_r+0xc24>
10016460:	aa32      	add	r2, sp, #200	@ 0xc8
10016462:	4651      	mov	r1, sl
10016464:	4658      	mov	r0, fp
10016466:	f001 fe33 	bl	100180d0 <__ssprint_r>
1001646a:	2800      	cmp	r0, #0
1001646c:	d17d      	bne.n	1001656a <_svfprintf_r+0xd4a>
1001646e:	e9dd 3433 	ldrd	r3, r4, [sp, #204]	@ 0xcc
10016472:	f10d 08d4 	add.w	r8, sp, #212	@ 0xd4
10016476:	e7e7      	b.n	10016448 <_svfprintf_r+0xc28>
10016478:	f019 0f01 	tst.w	r9, #1
1001647c:	f47f aed3 	bne.w	10016226 <_svfprintf_r+0xa06>
10016480:	2301      	movs	r3, #1
10016482:	2e07      	cmp	r6, #7
10016484:	e9cd 6433 	strd	r6, r4, [sp, #204]	@ 0xcc
10016488:	f8c8 5000 	str.w	r5, [r8]
1001648c:	f8c8 3004 	str.w	r3, [r8, #4]
10016490:	f77f aef7 	ble.w	10016282 <_svfprintf_r+0xa62>
10016494:	9909      	ldr	r1, [sp, #36]	@ 0x24
10016496:	9807      	ldr	r0, [sp, #28]
10016498:	aa32      	add	r2, sp, #200	@ 0xc8
1001649a:	f001 fe19 	bl	100180d0 <__ssprint_r>
1001649e:	2800      	cmp	r0, #0
100164a0:	f47f ae75 	bne.w	1001618e <_svfprintf_r+0x96e>
100164a4:	e9dd 6433 	ldrd	r6, r4, [sp, #204]	@ 0xcc
100164a8:	af35      	add	r7, sp, #212	@ 0xd4
100164aa:	e6ea      	b.n	10016282 <_svfprintf_r+0xa62>
100164ac:	9b13      	ldr	r3, [sp, #76]	@ 0x4c
100164ae:	2b01      	cmp	r3, #1
100164b0:	f77f aee7 	ble.w	10016282 <_svfprintf_r+0xa62>
100164b4:	2b11      	cmp	r3, #17
100164b6:	4b8d      	ldr	r3, [pc, #564]	@ (100166ec <_svfprintf_r+0xecc>)
100164b8:	9315      	str	r3, [sp, #84]	@ 0x54
100164ba:	f340 8357 	ble.w	10016b6c <_svfprintf_r+0x134c>
100164be:	f8cd 9020 	str.w	r9, [sp, #32]
100164c2:	f8dd a01c 	ldr.w	sl, [sp, #28]
100164c6:	f8dd b024 	ldr.w	fp, [sp, #36]	@ 0x24
100164ca:	2510      	movs	r5, #16
100164cc:	4699      	mov	r9, r3
100164ce:	e006      	b.n	100164de <_svfprintf_r+0xcbe>
100164d0:	3708      	adds	r7, #8
100164d2:	f1a8 0810 	sub.w	r8, r8, #16
100164d6:	f1b8 0f10 	cmp.w	r8, #16
100164da:	f340 8345 	ble.w	10016b68 <_svfprintf_r+0x1348>
100164de:	3601      	adds	r6, #1
100164e0:	3410      	adds	r4, #16
100164e2:	2e07      	cmp	r6, #7
100164e4:	e9c7 9500 	strd	r9, r5, [r7]
100164e8:	e9cd 6433 	strd	r6, r4, [sp, #204]	@ 0xcc
100164ec:	ddf0      	ble.n	100164d0 <_svfprintf_r+0xcb0>
100164ee:	aa32      	add	r2, sp, #200	@ 0xc8
100164f0:	4659      	mov	r1, fp
100164f2:	4650      	mov	r0, sl
100164f4:	f001 fdec 	bl	100180d0 <__ssprint_r>
100164f8:	2800      	cmp	r0, #0
100164fa:	f040 8298 	bne.w	10016a2e <_svfprintf_r+0x120e>
100164fe:	e9dd 6433 	ldrd	r6, r4, [sp, #204]	@ 0xcc
10016502:	af35      	add	r7, sp, #212	@ 0xd4
10016504:	e7e5      	b.n	100164d2 <_svfprintf_r+0xcb2>
10016506:	9909      	ldr	r1, [sp, #36]	@ 0x24
10016508:	9807      	ldr	r0, [sp, #28]
1001650a:	aa32      	add	r2, sp, #200	@ 0xc8
1001650c:	f001 fde0 	bl	100180d0 <__ssprint_r>
10016510:	2800      	cmp	r0, #0
10016512:	f47f ae3c 	bne.w	1001618e <_svfprintf_r+0x96e>
10016516:	9c34      	ldr	r4, [sp, #208]	@ 0xd0
10016518:	f10d 08d4 	add.w	r8, sp, #212	@ 0xd4
1001651c:	f7ff baf1 	b.w	10015b02 <_svfprintf_r+0x2e2>
10016520:	990d      	ldr	r1, [sp, #52]	@ 0x34
10016522:	f851 3b04 	ldr.w	r3, [r1], #4
10016526:	910d      	str	r1, [sp, #52]	@ 0x34
10016528:	f019 0110 	ands.w	r1, r9, #16
1001652c:	f47f ac4d 	bne.w	10015dca <_svfprintf_r+0x5aa>
10016530:	f019 0040 	ands.w	r0, r9, #64	@ 0x40
10016534:	f000 8362 	beq.w	10016bfc <_svfprintf_r+0x13dc>
10016538:	b29b      	uxth	r3, r3
1001653a:	460a      	mov	r2, r1
1001653c:	e445      	b.n	10015dca <_svfprintf_r+0x5aa>
1001653e:	990d      	ldr	r1, [sp, #52]	@ 0x34
10016540:	f851 3b04 	ldr.w	r3, [r1], #4
10016544:	910d      	str	r1, [sp, #52]	@ 0x34
10016546:	f014 0110 	ands.w	r1, r4, #16
1001654a:	d10b      	bne.n	10016564 <_svfprintf_r+0xd44>
1001654c:	f014 0040 	ands.w	r0, r4, #64	@ 0x40
10016550:	d003      	beq.n	1001655a <_svfprintf_r+0xd3a>
10016552:	460a      	mov	r2, r1
10016554:	b29b      	uxth	r3, r3
10016556:	2101      	movs	r1, #1
10016558:	e43a      	b.n	10015dd0 <_svfprintf_r+0x5b0>
1001655a:	f414 7200 	ands.w	r2, r4, #512	@ 0x200
1001655e:	bf1c      	itt	ne
10016560:	b2db      	uxtbne	r3, r3
10016562:	4602      	movne	r2, r0
10016564:	2101      	movs	r1, #1
10016566:	e433      	b.n	10015dd0 <_svfprintf_r+0x5b0>
10016568:	46bb      	mov	fp, r7
1001656a:	9b0c      	ldr	r3, [sp, #48]	@ 0x30
1001656c:	2b00      	cmp	r3, #0
1001656e:	f43f aa5c 	beq.w	10015a2a <_svfprintf_r+0x20a>
10016572:	990c      	ldr	r1, [sp, #48]	@ 0x30
10016574:	4658      	mov	r0, fp
10016576:	f7ff f83d 	bl	100155f4 <_free_r>
1001657a:	9b09      	ldr	r3, [sp, #36]	@ 0x24
1001657c:	899b      	ldrh	r3, [r3, #12]
1001657e:	f003 0340 	and.w	r3, r3, #64	@ 0x40
10016582:	f7ff ba56 	b.w	10015a32 <_svfprintf_r+0x212>
10016586:	f8dd b020 	ldr.w	fp, [sp, #32]
1001658a:	ad5e      	add	r5, sp, #376	@ 0x178
1001658c:	e54a      	b.n	10016024 <_svfprintf_r+0x804>
1001658e:	425b      	negs	r3, r3
10016590:	eb62 0242 	sbc.w	r2, r2, r2, lsl #1
10016594:	464c      	mov	r4, r9
10016596:	202d      	movs	r0, #45	@ 0x2d
10016598:	2101      	movs	r1, #1
1001659a:	e41a      	b.n	10015dd2 <_svfprintf_r+0x5b2>
1001659c:	9909      	ldr	r1, [sp, #36]	@ 0x24
1001659e:	9807      	ldr	r0, [sp, #28]
100165a0:	aa32      	add	r2, sp, #200	@ 0xc8
100165a2:	f001 fd95 	bl	100180d0 <__ssprint_r>
100165a6:	2800      	cmp	r0, #0
100165a8:	f47f adf1 	bne.w	1001618e <_svfprintf_r+0x96e>
100165ac:	e9dd 6433 	ldrd	r6, r4, [sp, #204]	@ 0xcc
100165b0:	af35      	add	r7, sp, #212	@ 0xd4
100165b2:	e642      	b.n	1001623a <_svfprintf_r+0xa1a>
100165b4:	9909      	ldr	r1, [sp, #36]	@ 0x24
100165b6:	9807      	ldr	r0, [sp, #28]
100165b8:	aa32      	add	r2, sp, #200	@ 0xc8
100165ba:	f001 fd89 	bl	100180d0 <__ssprint_r>
100165be:	2800      	cmp	r0, #0
100165c0:	f47f ade5 	bne.w	1001618e <_svfprintf_r+0x96e>
100165c4:	e9dd 6433 	ldrd	r6, r4, [sp, #204]	@ 0xcc
100165c8:	af35      	add	r7, sp, #212	@ 0xd4
100165ca:	e642      	b.n	10016252 <_svfprintf_r+0xa32>
100165cc:	f019 0f01 	tst.w	r9, #1
100165d0:	f43f aaa9 	beq.w	10015b26 <_svfprintf_r+0x306>
100165d4:	e4d4      	b.n	10015f80 <_svfprintf_r+0x760>
100165d6:	930d      	str	r3, [sp, #52]	@ 0x34
100165d8:	7823      	ldrb	r3, [r4, #0]
100165da:	f7ff b978 	b.w	100158ce <_svfprintf_r+0xae>
100165de:	ad5e      	add	r5, sp, #376	@ 0x178
100165e0:	e520      	b.n	10016024 <_svfprintf_r+0x804>
100165e2:	f419 7f00 	tst.w	r9, #512	@ 0x200
100165e6:	f040 8373 	bne.w	10016cd0 <_svfprintf_r+0x14b0>
100165ea:	17da      	asrs	r2, r3, #31
100165ec:	4611      	mov	r1, r2
100165ee:	f7ff bbb2 	b.w	10015d56 <_svfprintf_r+0x536>
100165f2:	f019 0f10 	tst.w	r9, #16
100165f6:	f040 82b1 	bne.w	10016b5c <_svfprintf_r+0x133c>
100165fa:	f019 0f40 	tst.w	r9, #64	@ 0x40
100165fe:	f040 8361 	bne.w	10016cc4 <_svfprintf_r+0x14a4>
10016602:	f419 7f00 	tst.w	r9, #512	@ 0x200
10016606:	f000 82a9 	beq.w	10016b5c <_svfprintf_r+0x133c>
1001660a:	9b0d      	ldr	r3, [sp, #52]	@ 0x34
1001660c:	9a0a      	ldr	r2, [sp, #40]	@ 0x28
1001660e:	681b      	ldr	r3, [r3, #0]
10016610:	701a      	strb	r2, [r3, #0]
10016612:	e40f      	b.n	10015e34 <_svfprintf_r+0x614>
10016614:	9a1b      	ldr	r2, [sp, #108]	@ 0x6c
10016616:	7823      	ldrb	r3, [r4, #0]
10016618:	2a00      	cmp	r2, #0
1001661a:	f43f a958 	beq.w	100158ce <_svfprintf_r+0xae>
1001661e:	7812      	ldrb	r2, [r2, #0]
10016620:	2a00      	cmp	r2, #0
10016622:	f43f a954 	beq.w	100158ce <_svfprintf_r+0xae>
10016626:	f449 6980 	orr.w	r9, r9, #1024	@ 0x400
1001662a:	f7ff b950 	b.w	100158ce <_svfprintf_r+0xae>
1001662e:	e9dd 0116 	ldrd	r0, r1, [sp, #88]	@ 0x58
10016632:	4602      	mov	r2, r0
10016634:	460b      	mov	r3, r1
10016636:	f002 fa83 	bl	10018b40 <__aeabi_dcmpun>
1001663a:	2800      	cmp	r0, #0
1001663c:	f040 860d 	bne.w	1001725a <_svfprintf_r+0x1a3a>
10016640:	9b0e      	ldr	r3, [sp, #56]	@ 0x38
10016642:	2b61      	cmp	r3, #97	@ 0x61
10016644:	f000 8504 	beq.w	10017050 <_svfprintf_r+0x1830>
10016648:	2b41      	cmp	r3, #65	@ 0x41
1001664a:	f000 8580 	beq.w	1001714e <_svfprintf_r+0x192e>
1001664e:	9b08      	ldr	r3, [sp, #32]
10016650:	3301      	adds	r3, #1
10016652:	f000 8415 	beq.w	10016e80 <_svfprintf_r+0x1660>
10016656:	9b0e      	ldr	r3, [sp, #56]	@ 0x38
10016658:	f023 0320 	bic.w	r3, r3, #32
1001665c:	2b47      	cmp	r3, #71	@ 0x47
1001665e:	d104      	bne.n	1001666a <_svfprintf_r+0xe4a>
10016660:	9b08      	ldr	r3, [sp, #32]
10016662:	2b00      	cmp	r3, #0
10016664:	bf08      	it	eq
10016666:	2301      	moveq	r3, #1
10016668:	9308      	str	r3, [sp, #32]
1001666a:	e9dd 0116 	ldrd	r0, r1, [sp, #88]	@ 0x58
1001666e:	f449 7280 	orr.w	r2, r9, #256	@ 0x100
10016672:	2900      	cmp	r1, #0
10016674:	9215      	str	r2, [sp, #84]	@ 0x54
10016676:	f8cd 9018 	str.w	r9, [sp, #24]
1001667a:	f04f 0300 	mov.w	r3, #0
1001667e:	f2c0 851f 	blt.w	100170c0 <_svfprintf_r+0x18a0>
10016682:	e9cd 0124 	strd	r0, r1, [sp, #144]	@ 0x90
10016686:	931f      	str	r3, [sp, #124]	@ 0x7c
10016688:	930c      	str	r3, [sp, #48]	@ 0x30
1001668a:	9b0e      	ldr	r3, [sp, #56]	@ 0x38
1001668c:	3b41      	subs	r3, #65	@ 0x41
1001668e:	2b25      	cmp	r3, #37	@ 0x25
10016690:	f200 8326 	bhi.w	10016ce0 <_svfprintf_r+0x14c0>
10016694:	e8df f013 	tbh	[pc, r3, lsl #1]
10016698:	032403ff 	.word	0x032403ff
1001669c:	03240324 	.word	0x03240324
100166a0:	03fc03f8 	.word	0x03fc03f8
100166a4:	03240324 	.word	0x03240324
100166a8:	03240324 	.word	0x03240324
100166ac:	03240324 	.word	0x03240324
100166b0:	03240324 	.word	0x03240324
100166b4:	03240324 	.word	0x03240324
100166b8:	03240324 	.word	0x03240324
100166bc:	03240324 	.word	0x03240324
100166c0:	03240324 	.word	0x03240324
100166c4:	03240324 	.word	0x03240324
100166c8:	03240324 	.word	0x03240324
100166cc:	03240324 	.word	0x03240324
100166d0:	03240324 	.word	0x03240324
100166d4:	03240324 	.word	0x03240324
100166d8:	03240324 	.word	0x03240324
100166dc:	03240324 	.word	0x03240324
100166e0:	03fc03f8 	.word	0x03fc03f8
100166e4:	e9cd 340e 	strd	r3, r4, [sp, #56]	@ 0x38
100166e8:	f7ff bb62 	b.w	10015db0 <_svfprintf_r+0x590>
100166ec:	100194bc 	.word	0x100194bc
100166f0:	e9cd 340e 	strd	r3, r4, [sp, #56]	@ 0x38
100166f4:	464c      	mov	r4, r9
100166f6:	f7ff bbc9 	b.w	10015e8c <_svfprintf_r+0x66c>
100166fa:	e9cd 340e 	strd	r3, r4, [sp, #56]	@ 0x38
100166fe:	4bbd      	ldr	r3, [pc, #756]	@ (100169f4 <_svfprintf_r+0x11d4>)
10016700:	9319      	str	r3, [sp, #100]	@ 0x64
10016702:	f019 0220 	ands.w	r2, r9, #32
10016706:	f000 8108 	beq.w	1001691a <_svfprintf_r+0x10fa>
1001670a:	9b0d      	ldr	r3, [sp, #52]	@ 0x34
1001670c:	3307      	adds	r3, #7
1001670e:	f023 0307 	bic.w	r3, r3, #7
10016712:	4619      	mov	r1, r3
10016714:	685a      	ldr	r2, [r3, #4]
10016716:	f851 3b08 	ldr.w	r3, [r1], #8
1001671a:	910d      	str	r1, [sp, #52]	@ 0x34
1001671c:	f019 0f01 	tst.w	r9, #1
10016720:	d00a      	beq.n	10016738 <_svfprintf_r+0xf18>
10016722:	ea53 0102 	orrs.w	r1, r3, r2
10016726:	d007      	beq.n	10016738 <_svfprintf_r+0xf18>
10016728:	990e      	ldr	r1, [sp, #56]	@ 0x38
1001672a:	f88d 10a1 	strb.w	r1, [sp, #161]	@ 0xa1
1001672e:	2130      	movs	r1, #48	@ 0x30
10016730:	f049 0902 	orr.w	r9, r9, #2
10016734:	f88d 10a0 	strb.w	r1, [sp, #160]	@ 0xa0
10016738:	f429 6480 	bic.w	r4, r9, #1024	@ 0x400
1001673c:	2102      	movs	r1, #2
1001673e:	f7ff bb47 	b.w	10015dd0 <_svfprintf_r+0x5b0>
10016742:	e9cd 340e 	strd	r3, r4, [sp, #56]	@ 0x38
10016746:	4bac      	ldr	r3, [pc, #688]	@ (100169f8 <_svfprintf_r+0x11d8>)
10016748:	9319      	str	r3, [sp, #100]	@ 0x64
1001674a:	e7da      	b.n	10016702 <_svfprintf_r+0xee2>
1001674c:	9b0d      	ldr	r3, [sp, #52]	@ 0x34
1001674e:	681b      	ldr	r3, [r3, #0]
10016750:	f88d 3114 	strb.w	r3, [sp, #276]	@ 0x114
10016754:	2301      	movs	r3, #1
10016756:	9306      	str	r3, [sp, #24]
10016758:	469b      	mov	fp, r3
1001675a:	ad45      	add	r5, sp, #276	@ 0x114
1001675c:	f7ff baaf 	b.w	10015cbe <_svfprintf_r+0x49e>
10016760:	9909      	ldr	r1, [sp, #36]	@ 0x24
10016762:	9807      	ldr	r0, [sp, #28]
10016764:	aa32      	add	r2, sp, #200	@ 0xc8
10016766:	f001 fcb3 	bl	100180d0 <__ssprint_r>
1001676a:	2800      	cmp	r0, #0
1001676c:	f47f ad0f 	bne.w	1001618e <_svfprintf_r+0x96e>
10016770:	9c34      	ldr	r4, [sp, #208]	@ 0xd0
10016772:	f10d 08d4 	add.w	r8, sp, #212	@ 0xd4
10016776:	e411      	b.n	10015f9c <_svfprintf_r+0x77c>
10016778:	2140      	movs	r1, #64	@ 0x40
1001677a:	4658      	mov	r0, fp
1001677c:	f7f9 fbb2 	bl	1000fee4 <_malloc_r>
10016780:	9b09      	ldr	r3, [sp, #36]	@ 0x24
10016782:	6018      	str	r0, [r3, #0]
10016784:	6118      	str	r0, [r3, #16]
10016786:	2800      	cmp	r0, #0
10016788:	f000 8610 	beq.w	100173ac <_svfprintf_r+0x1b8c>
1001678c:	9a09      	ldr	r2, [sp, #36]	@ 0x24
1001678e:	2340      	movs	r3, #64	@ 0x40
10016790:	6153      	str	r3, [r2, #20]
10016792:	f7ff b861 	b.w	10015858 <_svfprintf_r+0x38>
10016796:	9b08      	ldr	r3, [sp, #32]
10016798:	950c      	str	r5, [sp, #48]	@ 0x30
1001679a:	2b06      	cmp	r3, #6
1001679c:	4629      	mov	r1, r5
1001679e:	bf28      	it	cs
100167a0:	2306      	movcs	r3, #6
100167a2:	9508      	str	r5, [sp, #32]
100167a4:	462a      	mov	r2, r5
100167a6:	9306      	str	r3, [sp, #24]
100167a8:	4d94      	ldr	r5, [pc, #592]	@ (100169fc <_svfprintf_r+0x11dc>)
100167aa:	960d      	str	r6, [sp, #52]	@ 0x34
100167ac:	469b      	mov	fp, r3
100167ae:	9114      	str	r1, [sp, #80]	@ 0x50
100167b0:	9110      	str	r1, [sp, #64]	@ 0x40
100167b2:	9112      	str	r1, [sp, #72]	@ 0x48
100167b4:	f7ff ba1b 	b.w	10015bee <_svfprintf_r+0x3ce>
100167b8:	2e10      	cmp	r6, #16
100167ba:	9b33      	ldr	r3, [sp, #204]	@ 0xcc
100167bc:	f340 85e7 	ble.w	1001738e <_svfprintf_r+0x1b6e>
100167c0:	488f      	ldr	r0, [pc, #572]	@ (10016a00 <_svfprintf_r+0x11e0>)
100167c2:	f8dd a01c 	ldr.w	sl, [sp, #28]
100167c6:	9015      	str	r0, [sp, #84]	@ 0x54
100167c8:	4642      	mov	r2, r8
100167ca:	4621      	mov	r1, r4
100167cc:	46a8      	mov	r8, r5
100167ce:	9c09      	ldr	r4, [sp, #36]	@ 0x24
100167d0:	2710      	movs	r7, #16
100167d2:	4605      	mov	r5, r0
100167d4:	e004      	b.n	100167e0 <_svfprintf_r+0xfc0>
100167d6:	3208      	adds	r2, #8
100167d8:	3e10      	subs	r6, #16
100167da:	2e10      	cmp	r6, #16
100167dc:	f340 8223 	ble.w	10016c26 <_svfprintf_r+0x1406>
100167e0:	3301      	adds	r3, #1
100167e2:	3110      	adds	r1, #16
100167e4:	2b07      	cmp	r3, #7
100167e6:	e9c2 5700 	strd	r5, r7, [r2]
100167ea:	e9cd 3133 	strd	r3, r1, [sp, #204]	@ 0xcc
100167ee:	ddf2      	ble.n	100167d6 <_svfprintf_r+0xfb6>
100167f0:	aa32      	add	r2, sp, #200	@ 0xc8
100167f2:	4621      	mov	r1, r4
100167f4:	4650      	mov	r0, sl
100167f6:	f001 fc6b 	bl	100180d0 <__ssprint_r>
100167fa:	2800      	cmp	r0, #0
100167fc:	f040 8117 	bne.w	10016a2e <_svfprintf_r+0x120e>
10016800:	e9dd 3133 	ldrd	r3, r1, [sp, #204]	@ 0xcc
10016804:	aa35      	add	r2, sp, #212	@ 0xd4
10016806:	e7e7      	b.n	100167d8 <_svfprintf_r+0xfb8>
10016808:	4621      	mov	r1, r4
1001680a:	461c      	mov	r4, r3
1001680c:	9b10      	ldr	r3, [sp, #64]	@ 0x40
1001680e:	f8cd b020 	str.w	fp, [sp, #32]
10016812:	f8cd 9038 	str.w	r9, [sp, #56]	@ 0x38
10016816:	4642      	mov	r2, r8
10016818:	4f79      	ldr	r7, [pc, #484]	@ (10016a00 <_svfprintf_r+0x11e0>)
1001681a:	f8dd 9050 	ldr.w	r9, [sp, #80]	@ 0x50
1001681e:	f8dd 8078 	ldr.w	r8, [sp, #120]	@ 0x78
10016822:	f8dd a06c 	ldr.w	sl, [sp, #108]	@ 0x6c
10016826:	f8dd b01c 	ldr.w	fp, [sp, #28]
1001682a:	b383      	cbz	r3, 1001688e <_svfprintf_r+0x106e>
1001682c:	f1b9 0f00 	cmp.w	r9, #0
10016830:	f000 80ff 	beq.w	10016a32 <_svfprintf_r+0x1212>
10016834:	f109 39ff 	add.w	r9, r9, #4294967295	@ 0xffffffff
10016838:	9833      	ldr	r0, [sp, #204]	@ 0xcc
1001683a:	9b1d      	ldr	r3, [sp, #116]	@ 0x74
1001683c:	3001      	adds	r0, #1
1001683e:	4441      	add	r1, r8
10016840:	2807      	cmp	r0, #7
10016842:	e9c2 3800 	strd	r3, r8, [r2]
10016846:	9134      	str	r1, [sp, #208]	@ 0xd0
10016848:	9033      	str	r0, [sp, #204]	@ 0xcc
1001684a:	dc75      	bgt.n	10016938 <_svfprintf_r+0x1118>
1001684c:	3208      	adds	r2, #8
1001684e:	9b08      	ldr	r3, [sp, #32]
10016850:	f89a 0000 	ldrb.w	r0, [sl]
10016854:	1b1e      	subs	r6, r3, r4
10016856:	4286      	cmp	r6, r0
10016858:	bfa8      	it	ge
1001685a:	4606      	movge	r6, r0
1001685c:	2e00      	cmp	r6, #0
1001685e:	dd0c      	ble.n	1001687a <_svfprintf_r+0x105a>
10016860:	9833      	ldr	r0, [sp, #204]	@ 0xcc
10016862:	3001      	adds	r0, #1
10016864:	4431      	add	r1, r6
10016866:	2807      	cmp	r0, #7
10016868:	e9c2 4600 	strd	r4, r6, [r2]
1001686c:	9134      	str	r1, [sp, #208]	@ 0xd0
1001686e:	9033      	str	r0, [sp, #204]	@ 0xcc
10016870:	f300 8167 	bgt.w	10016b42 <_svfprintf_r+0x1322>
10016874:	f89a 0000 	ldrb.w	r0, [sl]
10016878:	3208      	adds	r2, #8
1001687a:	2e00      	cmp	r6, #0
1001687c:	bfac      	ite	ge
1001687e:	1b85      	subge	r5, r0, r6
10016880:	4605      	movlt	r5, r0
10016882:	2d00      	cmp	r5, #0
10016884:	dc13      	bgt.n	100168ae <_svfprintf_r+0x108e>
10016886:	4404      	add	r4, r0
10016888:	9b10      	ldr	r3, [sp, #64]	@ 0x40
1001688a:	2b00      	cmp	r3, #0
1001688c:	d1ce      	bne.n	1001682c <_svfprintf_r+0x100c>
1001688e:	f1b9 0f00 	cmp.w	r9, #0
10016892:	d1cf      	bne.n	10016834 <_svfprintf_r+0x1014>
10016894:	f8dd b020 	ldr.w	fp, [sp, #32]
10016898:	f8cd a06c 	str.w	sl, [sp, #108]	@ 0x6c
1001689c:	46a2      	mov	sl, r4
1001689e:	45da      	cmp	sl, fp
100168a0:	f8dd 9038 	ldr.w	r9, [sp, #56]	@ 0x38
100168a4:	4690      	mov	r8, r2
100168a6:	460c      	mov	r4, r1
100168a8:	bf28      	it	cs
100168aa:	46da      	movcs	sl, fp
100168ac:	e58b      	b.n	100163c6 <_svfprintf_r+0xba6>
100168ae:	2d10      	cmp	r5, #16
100168b0:	9833      	ldr	r0, [sp, #204]	@ 0xcc
100168b2:	f340 853c 	ble.w	1001732e <_svfprintf_r+0x1b0e>
100168b6:	4623      	mov	r3, r4
100168b8:	463e      	mov	r6, r7
100168ba:	462c      	mov	r4, r5
100168bc:	461d      	mov	r5, r3
100168be:	e004      	b.n	100168ca <_svfprintf_r+0x10aa>
100168c0:	3c10      	subs	r4, #16
100168c2:	2c10      	cmp	r4, #16
100168c4:	f102 0208 	add.w	r2, r2, #8
100168c8:	dd16      	ble.n	100168f8 <_svfprintf_r+0x10d8>
100168ca:	3001      	adds	r0, #1
100168cc:	3110      	adds	r1, #16
100168ce:	2310      	movs	r3, #16
100168d0:	2807      	cmp	r0, #7
100168d2:	e9cd 0133 	strd	r0, r1, [sp, #204]	@ 0xcc
100168d6:	6017      	str	r7, [r2, #0]
100168d8:	6053      	str	r3, [r2, #4]
100168da:	ddf1      	ble.n	100168c0 <_svfprintf_r+0x10a0>
100168dc:	9909      	ldr	r1, [sp, #36]	@ 0x24
100168de:	aa32      	add	r2, sp, #200	@ 0xc8
100168e0:	4658      	mov	r0, fp
100168e2:	f001 fbf5 	bl	100180d0 <__ssprint_r>
100168e6:	2800      	cmp	r0, #0
100168e8:	f47f ae3f 	bne.w	1001656a <_svfprintf_r+0xd4a>
100168ec:	3c10      	subs	r4, #16
100168ee:	2c10      	cmp	r4, #16
100168f0:	e9dd 0133 	ldrd	r0, r1, [sp, #204]	@ 0xcc
100168f4:	aa35      	add	r2, sp, #212	@ 0xd4
100168f6:	dce8      	bgt.n	100168ca <_svfprintf_r+0x10aa>
100168f8:	462b      	mov	r3, r5
100168fa:	4625      	mov	r5, r4
100168fc:	461c      	mov	r4, r3
100168fe:	3001      	adds	r0, #1
10016900:	4429      	add	r1, r5
10016902:	2807      	cmp	r0, #7
10016904:	e9cd 0133 	strd	r0, r1, [sp, #204]	@ 0xcc
10016908:	6016      	str	r6, [r2, #0]
1001690a:	6055      	str	r5, [r2, #4]
1001690c:	f300 837d 	bgt.w	1001700a <_svfprintf_r+0x17ea>
10016910:	f89a 0000 	ldrb.w	r0, [sl]
10016914:	3208      	adds	r2, #8
10016916:	4404      	add	r4, r0
10016918:	e7b6      	b.n	10016888 <_svfprintf_r+0x1068>
1001691a:	990d      	ldr	r1, [sp, #52]	@ 0x34
1001691c:	f851 3b04 	ldr.w	r3, [r1], #4
10016920:	910d      	str	r1, [sp, #52]	@ 0x34
10016922:	f019 0110 	ands.w	r1, r9, #16
10016926:	f47f aef9 	bne.w	1001671c <_svfprintf_r+0xefc>
1001692a:	f019 0040 	ands.w	r0, r9, #64	@ 0x40
1001692e:	f000 815f 	beq.w	10016bf0 <_svfprintf_r+0x13d0>
10016932:	b29b      	uxth	r3, r3
10016934:	460a      	mov	r2, r1
10016936:	e6f1      	b.n	1001671c <_svfprintf_r+0xefc>
10016938:	9909      	ldr	r1, [sp, #36]	@ 0x24
1001693a:	aa32      	add	r2, sp, #200	@ 0xc8
1001693c:	4658      	mov	r0, fp
1001693e:	f001 fbc7 	bl	100180d0 <__ssprint_r>
10016942:	2800      	cmp	r0, #0
10016944:	f47f ae11 	bne.w	1001656a <_svfprintf_r+0xd4a>
10016948:	9934      	ldr	r1, [sp, #208]	@ 0xd0
1001694a:	aa35      	add	r2, sp, #212	@ 0xd4
1001694c:	e77f      	b.n	1001684e <_svfprintf_r+0x102e>
1001694e:	f404 6b80 	and.w	fp, r4, #1024	@ 0x400
10016952:	2100      	movs	r1, #0
10016954:	f8cd 8030 	str.w	r8, [sp, #48]	@ 0x30
10016958:	f8df 90a8 	ldr.w	r9, [pc, #168]	@ 10016a04 <_svfprintf_r+0x11e4>
1001695c:	f8dd 806c 	ldr.w	r8, [sp, #108]	@ 0x6c
10016960:	9406      	str	r4, [sp, #24]
10016962:	ad5e      	add	r5, sp, #376	@ 0x178
10016964:	f04f 3acc 	mov.w	sl, #3435973836	@ 0xcccccccc
10016968:	2705      	movs	r7, #5
1001696a:	468c      	mov	ip, r1
1001696c:	465e      	mov	r6, fp
1001696e:	e005      	b.n	1001697c <_svfprintf_r+0x115c>
10016970:	2b0a      	cmp	r3, #10
10016972:	f172 0200 	sbcs.w	r2, r2, #0
10016976:	d333      	bcc.n	100169e0 <_svfprintf_r+0x11c0>
10016978:	465b      	mov	r3, fp
1001697a:	4622      	mov	r2, r4
1001697c:	1899      	adds	r1, r3, r2
1001697e:	f141 0100 	adc.w	r1, r1, #0
10016982:	fba9 0401 	umull	r0, r4, r9, r1
10016986:	f024 0003 	bic.w	r0, r4, #3
1001698a:	eb00 0094 	add.w	r0, r0, r4, lsr #2
1001698e:	1a09      	subs	r1, r1, r0
10016990:	1a58      	subs	r0, r3, r1
10016992:	f162 0e00 	sbc.w	lr, r2, #0
10016996:	fb0a f400 	mul.w	r4, sl, r0
1001699a:	fba0 b009 	umull	fp, r0, r0, r9
1001699e:	fb09 440e 	mla	r4, r9, lr, r4
100169a2:	f00b 0e01 	and.w	lr, fp, #1
100169a6:	4404      	add	r4, r0
100169a8:	fbae 0e07 	umull	r0, lr, lr, r7
100169ac:	1840      	adds	r0, r0, r1
100169ae:	ea4f 0b5b 	mov.w	fp, fp, lsr #1
100169b2:	3030      	adds	r0, #48	@ 0x30
100169b4:	f805 0c01 	strb.w	r0, [r5, #-1]
100169b8:	ea4b 7bc4 	orr.w	fp, fp, r4, lsl #31
100169bc:	f10c 0c01 	add.w	ip, ip, #1
100169c0:	3d01      	subs	r5, #1
100169c2:	0864      	lsrs	r4, r4, #1
100169c4:	2e00      	cmp	r6, #0
100169c6:	d0d3      	beq.n	10016970 <_svfprintf_r+0x1150>
100169c8:	f898 1000 	ldrb.w	r1, [r8]
100169cc:	458c      	cmp	ip, r1
100169ce:	d1cf      	bne.n	10016970 <_svfprintf_r+0x1150>
100169d0:	f1bc 0fff 	cmp.w	ip, #255	@ 0xff
100169d4:	d0cc      	beq.n	10016970 <_svfprintf_r+0x1150>
100169d6:	2b0a      	cmp	r3, #10
100169d8:	f172 0200 	sbcs.w	r2, r2, #0
100169dc:	f080 8136 	bcs.w	10016c4c <_svfprintf_r+0x142c>
100169e0:	f8cd 806c 	str.w	r8, [sp, #108]	@ 0x6c
100169e4:	9c06      	ldr	r4, [sp, #24]
100169e6:	f8dd 8030 	ldr.w	r8, [sp, #48]	@ 0x30
100169ea:	f8cd c04c 	str.w	ip, [sp, #76]	@ 0x4c
100169ee:	f7ff bb15 	b.w	1001601c <_svfprintf_r+0x7fc>
100169f2:	bf00      	nop
100169f4:	10019288 	.word	0x10019288
100169f8:	10019274 	.word	0x10019274
100169fc:	1001929c 	.word	0x1001929c
10016a00:	100194bc 	.word	0x100194bc
10016a04:	cccccccd 	.word	0xcccccccd
10016a08:	9909      	ldr	r1, [sp, #36]	@ 0x24
10016a0a:	9807      	ldr	r0, [sp, #28]
10016a0c:	9315      	str	r3, [sp, #84]	@ 0x54
10016a0e:	aa32      	add	r2, sp, #200	@ 0xc8
10016a10:	f001 fb5e 	bl	100180d0 <__ssprint_r>
10016a14:	2800      	cmp	r0, #0
10016a16:	f47f abba 	bne.w	1001618e <_svfprintf_r+0x96e>
10016a1a:	f89d 209f 	ldrb.w	r2, [sp, #159]	@ 0x9f
10016a1e:	9c34      	ldr	r4, [sp, #208]	@ 0xd0
10016a20:	9b15      	ldr	r3, [sp, #84]	@ 0x54
10016a22:	f10d 08d4 	add.w	r8, sp, #212	@ 0xd4
10016a26:	f7ff b83f 	b.w	10015aa8 <_svfprintf_r+0x288>
10016a2a:	46a3      	mov	fp, r4
10016a2c:	e59d      	b.n	1001656a <_svfprintf_r+0xd4a>
10016a2e:	46d3      	mov	fp, sl
10016a30:	e59b      	b.n	1001656a <_svfprintf_r+0xd4a>
10016a32:	9b10      	ldr	r3, [sp, #64]	@ 0x40
10016a34:	3b01      	subs	r3, #1
10016a36:	f10a 3aff 	add.w	sl, sl, #4294967295	@ 0xffffffff
10016a3a:	9310      	str	r3, [sp, #64]	@ 0x40
10016a3c:	e6fc      	b.n	10016838 <_svfprintf_r+0x1018>
10016a3e:	2901      	cmp	r1, #1
10016a40:	464c      	mov	r4, r9
10016a42:	f47f aadb 	bne.w	10015ffc <_svfprintf_r+0x7dc>
10016a46:	e42f      	b.n	100162a8 <_svfprintf_r+0xa88>
10016a48:	9909      	ldr	r1, [sp, #36]	@ 0x24
10016a4a:	9807      	ldr	r0, [sp, #28]
10016a4c:	aa32      	add	r2, sp, #200	@ 0xc8
10016a4e:	f001 fb3f 	bl	100180d0 <__ssprint_r>
10016a52:	2800      	cmp	r0, #0
10016a54:	f47f ab9b 	bne.w	1001618e <_svfprintf_r+0x96e>
10016a58:	9c34      	ldr	r4, [sp, #208]	@ 0xd0
10016a5a:	f10d 08d4 	add.w	r8, sp, #212	@ 0xd4
10016a5e:	f7ff ba8a 	b.w	10015f76 <_svfprintf_r+0x756>
10016a62:	af30      	add	r7, sp, #192	@ 0xc0
10016a64:	2208      	movs	r2, #8
10016a66:	2100      	movs	r1, #0
10016a68:	4638      	mov	r0, r7
10016a6a:	952b      	str	r5, [sp, #172]	@ 0xac
10016a6c:	f7fd fad4 	bl	10014018 <memset>
10016a70:	9b08      	ldr	r3, [sp, #32]
10016a72:	1c58      	adds	r0, r3, #1
10016a74:	f000 80c9 	beq.w	10016c0a <_svfprintf_r+0x13ea>
10016a78:	2400      	movs	r4, #0
10016a7a:	f8cd 9018 	str.w	r9, [sp, #24]
10016a7e:	46a3      	mov	fp, r4
10016a80:	f8dd 901c 	ldr.w	r9, [sp, #28]
10016a84:	469a      	mov	sl, r3
10016a86:	e00c      	b.n	10016aa2 <_svfprintf_r+0x1282>
10016a88:	a945      	add	r1, sp, #276	@ 0x114
10016a8a:	4648      	mov	r0, r9
10016a8c:	f7fd fd24 	bl	100144d8 <_wcrtomb_r>
10016a90:	1c41      	adds	r1, r0, #1
10016a92:	4458      	add	r0, fp
10016a94:	f000 838e 	beq.w	100171b4 <_svfprintf_r+0x1994>
10016a98:	4550      	cmp	r0, sl
10016a9a:	dc08      	bgt.n	10016aae <_svfprintf_r+0x128e>
10016a9c:	f000 8441 	beq.w	10017322 <_svfprintf_r+0x1b02>
10016aa0:	4683      	mov	fp, r0
10016aa2:	9a2b      	ldr	r2, [sp, #172]	@ 0xac
10016aa4:	5912      	ldr	r2, [r2, r4]
10016aa6:	463b      	mov	r3, r7
10016aa8:	3404      	adds	r4, #4
10016aaa:	2a00      	cmp	r2, #0
10016aac:	d1ec      	bne.n	10016a88 <_svfprintf_r+0x1268>
10016aae:	f8dd 9018 	ldr.w	r9, [sp, #24]
10016ab2:	f1bb 0f00 	cmp.w	fp, #0
10016ab6:	f000 80dd 	beq.w	10016c74 <_svfprintf_r+0x1454>
10016aba:	f1bb 0f63 	cmp.w	fp, #99	@ 0x63
10016abe:	f300 81b9 	bgt.w	10016e34 <_svfprintf_r+0x1614>
10016ac2:	2300      	movs	r3, #0
10016ac4:	930c      	str	r3, [sp, #48]	@ 0x30
10016ac6:	ad45      	add	r5, sp, #276	@ 0x114
10016ac8:	2208      	movs	r2, #8
10016aca:	2100      	movs	r1, #0
10016acc:	4638      	mov	r0, r7
10016ace:	f7fd faa3 	bl	10014018 <memset>
10016ad2:	9807      	ldr	r0, [sp, #28]
10016ad4:	9700      	str	r7, [sp, #0]
10016ad6:	465b      	mov	r3, fp
10016ad8:	aa2b      	add	r2, sp, #172	@ 0xac
10016ada:	4629      	mov	r1, r5
10016adc:	f7fd fd22 	bl	10014524 <_wcsrtombs_r>
10016ae0:	4583      	cmp	fp, r0
10016ae2:	f040 845a 	bne.w	1001739a <_svfprintf_r+0x1b7a>
10016ae6:	2300      	movs	r3, #0
10016ae8:	f805 300b 	strb.w	r3, [r5, fp]
10016aec:	ea2b 71eb 	bic.w	r1, fp, fp, asr #31
10016af0:	f89d 209f 	ldrb.w	r2, [sp, #159]	@ 0x9f
10016af4:	960d      	str	r6, [sp, #52]	@ 0x34
10016af6:	9308      	str	r3, [sp, #32]
10016af8:	9106      	str	r1, [sp, #24]
10016afa:	9314      	str	r3, [sp, #80]	@ 0x50
10016afc:	9310      	str	r3, [sp, #64]	@ 0x40
10016afe:	9312      	str	r3, [sp, #72]	@ 0x48
10016b00:	f7ff b875 	b.w	10015bee <_svfprintf_r+0x3ce>
10016b04:	46cb      	mov	fp, r9
10016b06:	e530      	b.n	1001656a <_svfprintf_r+0xd4a>
10016b08:	4a74      	ldr	r2, [pc, #464]	@ (10016cdc <_svfprintf_r+0x14bc>)
10016b0a:	9215      	str	r2, [sp, #84]	@ 0x54
10016b0c:	3301      	adds	r3, #1
10016b0e:	9a15      	ldr	r2, [sp, #84]	@ 0x54
10016b10:	f8c8 2000 	str.w	r2, [r8]
10016b14:	442c      	add	r4, r5
10016b16:	2b07      	cmp	r3, #7
10016b18:	f8c8 5004 	str.w	r5, [r8, #4]
10016b1c:	e9cd 3433 	strd	r3, r4, [sp, #204]	@ 0xcc
10016b20:	f77e afff 	ble.w	10015b22 <_svfprintf_r+0x302>
10016b24:	f7ff bb69 	b.w	100161fa <_svfprintf_r+0x9da>
10016b28:	9909      	ldr	r1, [sp, #36]	@ 0x24
10016b2a:	9807      	ldr	r0, [sp, #28]
10016b2c:	aa32      	add	r2, sp, #200	@ 0xc8
10016b2e:	f001 facf 	bl	100180d0 <__ssprint_r>
10016b32:	2800      	cmp	r0, #0
10016b34:	f47f ab2b 	bne.w	1001618e <_svfprintf_r+0x96e>
10016b38:	9c34      	ldr	r4, [sp, #208]	@ 0xd0
10016b3a:	f10d 08d4 	add.w	r8, sp, #212	@ 0xd4
10016b3e:	f7fe bfda 	b.w	10015af6 <_svfprintf_r+0x2d6>
10016b42:	9909      	ldr	r1, [sp, #36]	@ 0x24
10016b44:	aa32      	add	r2, sp, #200	@ 0xc8
10016b46:	4658      	mov	r0, fp
10016b48:	f001 fac2 	bl	100180d0 <__ssprint_r>
10016b4c:	2800      	cmp	r0, #0
10016b4e:	f47f ad0c 	bne.w	1001656a <_svfprintf_r+0xd4a>
10016b52:	f89a 0000 	ldrb.w	r0, [sl]
10016b56:	9934      	ldr	r1, [sp, #208]	@ 0xd0
10016b58:	aa35      	add	r2, sp, #212	@ 0xd4
10016b5a:	e68e      	b.n	1001687a <_svfprintf_r+0x105a>
10016b5c:	9b0d      	ldr	r3, [sp, #52]	@ 0x34
10016b5e:	9a0a      	ldr	r2, [sp, #40]	@ 0x28
10016b60:	681b      	ldr	r3, [r3, #0]
10016b62:	601a      	str	r2, [r3, #0]
10016b64:	f7ff b966 	b.w	10015e34 <_svfprintf_r+0x614>
10016b68:	f8dd 9020 	ldr.w	r9, [sp, #32]
10016b6c:	9b15      	ldr	r3, [sp, #84]	@ 0x54
10016b6e:	603b      	str	r3, [r7, #0]
10016b70:	3601      	adds	r6, #1
10016b72:	4444      	add	r4, r8
10016b74:	2e07      	cmp	r6, #7
10016b76:	e9cd 6433 	strd	r6, r4, [sp, #204]	@ 0xcc
10016b7a:	f8c7 8004 	str.w	r8, [r7, #4]
10016b7e:	f77f ab7f 	ble.w	10016280 <_svfprintf_r+0xa60>
10016b82:	e487      	b.n	10016494 <_svfprintf_r+0xc74>
10016b84:	9b18      	ldr	r3, [sp, #96]	@ 0x60
10016b86:	991a      	ldr	r1, [sp, #104]	@ 0x68
10016b88:	441c      	add	r4, r3
10016b8a:	e9c8 1300 	strd	r1, r3, [r8]
10016b8e:	9b33      	ldr	r3, [sp, #204]	@ 0xcc
10016b90:	9434      	str	r4, [sp, #208]	@ 0xd0
10016b92:	3301      	adds	r3, #1
10016b94:	2b07      	cmp	r3, #7
10016b96:	9333      	str	r3, [sp, #204]	@ 0xcc
10016b98:	f300 8164 	bgt.w	10016e64 <_svfprintf_r+0x1644>
10016b9c:	f108 0808 	add.w	r8, r8, #8
10016ba0:	2a00      	cmp	r2, #0
10016ba2:	f6bf ab1e 	bge.w	100161e2 <_svfprintf_r+0x9c2>
10016ba6:	4256      	negs	r6, r2
10016ba8:	3210      	adds	r2, #16
10016baa:	4a4c      	ldr	r2, [pc, #304]	@ (10016cdc <_svfprintf_r+0x14bc>)
10016bac:	9215      	str	r2, [sp, #84]	@ 0x54
10016bae:	f280 82e7 	bge.w	10017180 <_svfprintf_r+0x1960>
10016bb2:	46aa      	mov	sl, r5
10016bb4:	2710      	movs	r7, #16
10016bb6:	4615      	mov	r5, r2
10016bb8:	e005      	b.n	10016bc6 <_svfprintf_r+0x13a6>
10016bba:	f108 0808 	add.w	r8, r8, #8
10016bbe:	3e10      	subs	r6, #16
10016bc0:	2e10      	cmp	r6, #16
10016bc2:	f340 82dc 	ble.w	1001717e <_svfprintf_r+0x195e>
10016bc6:	3301      	adds	r3, #1
10016bc8:	3410      	adds	r4, #16
10016bca:	2b07      	cmp	r3, #7
10016bcc:	e9c8 5700 	strd	r5, r7, [r8]
10016bd0:	e9cd 3433 	strd	r3, r4, [sp, #204]	@ 0xcc
10016bd4:	ddf1      	ble.n	10016bba <_svfprintf_r+0x139a>
10016bd6:	9909      	ldr	r1, [sp, #36]	@ 0x24
10016bd8:	9807      	ldr	r0, [sp, #28]
10016bda:	aa32      	add	r2, sp, #200	@ 0xc8
10016bdc:	f001 fa78 	bl	100180d0 <__ssprint_r>
10016be0:	2800      	cmp	r0, #0
10016be2:	f47f aad4 	bne.w	1001618e <_svfprintf_r+0x96e>
10016be6:	e9dd 3433 	ldrd	r3, r4, [sp, #204]	@ 0xcc
10016bea:	f10d 08d4 	add.w	r8, sp, #212	@ 0xd4
10016bee:	e7e6      	b.n	10016bbe <_svfprintf_r+0x139e>
10016bf0:	f419 7200 	ands.w	r2, r9, #512	@ 0x200
10016bf4:	bf1c      	itt	ne
10016bf6:	b2db      	uxtbne	r3, r3
10016bf8:	4602      	movne	r2, r0
10016bfa:	e58f      	b.n	1001671c <_svfprintf_r+0xefc>
10016bfc:	f419 7200 	ands.w	r2, r9, #512	@ 0x200
10016c00:	bf1c      	itt	ne
10016c02:	b2db      	uxtbne	r3, r3
10016c04:	4602      	movne	r2, r0
10016c06:	f7ff b8e0 	b.w	10015dca <_svfprintf_r+0x5aa>
10016c0a:	2300      	movs	r3, #0
10016c0c:	9807      	ldr	r0, [sp, #28]
10016c0e:	9700      	str	r7, [sp, #0]
10016c10:	aa2b      	add	r2, sp, #172	@ 0xac
10016c12:	4619      	mov	r1, r3
10016c14:	f7fd fc86 	bl	10014524 <_wcsrtombs_r>
10016c18:	f1b0 3fff 	cmp.w	r0, #4294967295	@ 0xffffffff
10016c1c:	4683      	mov	fp, r0
10016c1e:	f000 82c9 	beq.w	100171b4 <_svfprintf_r+0x1994>
10016c22:	952b      	str	r5, [sp, #172]	@ 0xac
10016c24:	e745      	b.n	10016ab2 <_svfprintf_r+0x1292>
10016c26:	4645      	mov	r5, r8
10016c28:	460c      	mov	r4, r1
10016c2a:	4690      	mov	r8, r2
10016c2c:	3301      	adds	r3, #1
10016c2e:	9a15      	ldr	r2, [sp, #84]	@ 0x54
10016c30:	f8c8 2000 	str.w	r2, [r8]
10016c34:	4434      	add	r4, r6
10016c36:	2b07      	cmp	r3, #7
10016c38:	e9cd 3433 	strd	r3, r4, [sp, #204]	@ 0xcc
10016c3c:	f8c8 6004 	str.w	r6, [r8, #4]
10016c40:	f300 8103 	bgt.w	10016e4a <_svfprintf_r+0x162a>
10016c44:	f108 0808 	add.w	r8, r8, #8
10016c48:	f7ff bbb6 	b.w	100163b8 <_svfprintf_r+0xb98>
10016c4c:	9b1e      	ldr	r3, [sp, #120]	@ 0x78
10016c4e:	991d      	ldr	r1, [sp, #116]	@ 0x74
10016c50:	1aed      	subs	r5, r5, r3
10016c52:	461a      	mov	r2, r3
10016c54:	4628      	mov	r0, r5
10016c56:	f7fd fa31 	bl	100140bc <strncpy>
10016c5a:	f898 3001 	ldrb.w	r3, [r8, #1]
10016c5e:	b10b      	cbz	r3, 10016c64 <_svfprintf_r+0x1444>
10016c60:	f108 0801 	add.w	r8, r8, #1
10016c64:	f04f 0c00 	mov.w	ip, #0
10016c68:	e686      	b.n	10016978 <_svfprintf_r+0x1158>
10016c6a:	222d      	movs	r2, #45	@ 0x2d
10016c6c:	f88d 209f 	strb.w	r2, [sp, #159]	@ 0x9f
10016c70:	f7fe bfac 	b.w	10015bcc <_svfprintf_r+0x3ac>
10016c74:	f89d 209f 	ldrb.w	r2, [sp, #159]	@ 0x9f
10016c78:	960d      	str	r6, [sp, #52]	@ 0x34
10016c7a:	f8cd b018 	str.w	fp, [sp, #24]
10016c7e:	f8cd b020 	str.w	fp, [sp, #32]
10016c82:	f8cd b050 	str.w	fp, [sp, #80]	@ 0x50
10016c86:	f8cd b040 	str.w	fp, [sp, #64]	@ 0x40
10016c8a:	f8cd b048 	str.w	fp, [sp, #72]	@ 0x48
10016c8e:	f8cd b030 	str.w	fp, [sp, #48]	@ 0x30
10016c92:	f7fe bfac 	b.w	10015bee <_svfprintf_r+0x3ce>
10016c96:	9909      	ldr	r1, [sp, #36]	@ 0x24
10016c98:	9807      	ldr	r0, [sp, #28]
10016c9a:	aa32      	add	r2, sp, #200	@ 0xc8
10016c9c:	f001 fa18 	bl	100180d0 <__ssprint_r>
10016ca0:	2800      	cmp	r0, #0
10016ca2:	f47f aa74 	bne.w	1001618e <_svfprintf_r+0x96e>
10016ca6:	9a29      	ldr	r2, [sp, #164]	@ 0xa4
10016ca8:	9c34      	ldr	r4, [sp, #208]	@ 0xd0
10016caa:	f10d 08d4 	add.w	r8, sp, #212	@ 0xd4
10016cae:	f7ff ba81 	b.w	100161b4 <_svfprintf_r+0x994>
10016cb2:	9b13      	ldr	r3, [sp, #76]	@ 0x4c
10016cb4:	ebab 060a 	sub.w	r6, fp, sl
10016cb8:	1b5d      	subs	r5, r3, r5
10016cba:	42ae      	cmp	r6, r5
10016cbc:	bfa8      	it	ge
10016cbe:	462e      	movge	r6, r5
10016cc0:	f7ff bbae 	b.w	10016420 <_svfprintf_r+0xc00>
10016cc4:	9b0d      	ldr	r3, [sp, #52]	@ 0x34
10016cc6:	9a0a      	ldr	r2, [sp, #40]	@ 0x28
10016cc8:	681b      	ldr	r3, [r3, #0]
10016cca:	801a      	strh	r2, [r3, #0]
10016ccc:	f7ff b8b2 	b.w	10015e34 <_svfprintf_r+0x614>
10016cd0:	f343 12c0 	sbfx	r2, r3, #7, #1
10016cd4:	4611      	mov	r1, r2
10016cd6:	b25b      	sxtb	r3, r3
10016cd8:	f7ff b83d 	b.w	10015d56 <_svfprintf_r+0x536>
10016cdc:	100194bc 	.word	0x100194bc
10016ce0:	9e08      	ldr	r6, [sp, #32]
10016ce2:	2302      	movs	r3, #2
10016ce4:	e9cd 3600 	strd	r3, r6, [sp]
10016ce8:	ab30      	add	r3, sp, #192	@ 0xc0
10016cea:	9304      	str	r3, [sp, #16]
10016cec:	ab2b      	add	r3, sp, #172	@ 0xac
10016cee:	9303      	str	r3, [sp, #12]
10016cf0:	ab29      	add	r3, sp, #164	@ 0xa4
10016cf2:	9302      	str	r3, [sp, #8]
10016cf4:	9807      	ldr	r0, [sp, #28]
10016cf6:	e9dd 2324 	ldrd	r2, r3, [sp, #144]	@ 0x90
10016cfa:	f7fd fcfd 	bl	100146f8 <_dtoa_r>
10016cfe:	9b0e      	ldr	r3, [sp, #56]	@ 0x38
10016d00:	2b67      	cmp	r3, #103	@ 0x67
10016d02:	4605      	mov	r5, r0
10016d04:	f000 813b 	beq.w	10016f7e <_svfprintf_r+0x175e>
10016d08:	9b0e      	ldr	r3, [sp, #56]	@ 0x38
10016d0a:	2b47      	cmp	r3, #71	@ 0x47
10016d0c:	f000 8137 	beq.w	10016f7e <_svfprintf_r+0x175e>
10016d10:	9b0e      	ldr	r3, [sp, #56]	@ 0x38
10016d12:	f023 0720 	bic.w	r7, r3, #32
10016d16:	2f46      	cmp	r7, #70	@ 0x46
10016d18:	eb00 0406 	add.w	r4, r0, r6
10016d1c:	d105      	bne.n	10016d2a <_svfprintf_r+0x150a>
10016d1e:	7803      	ldrb	r3, [r0, #0]
10016d20:	2b30      	cmp	r3, #48	@ 0x30
10016d22:	f000 82f1 	beq.w	10017308 <_svfprintf_r+0x1ae8>
10016d26:	9e29      	ldr	r6, [sp, #164]	@ 0xa4
10016d28:	4434      	add	r4, r6
10016d2a:	e9dd 0124 	ldrd	r0, r1, [sp, #144]	@ 0x90
10016d2e:	2200      	movs	r2, #0
10016d30:	2300      	movs	r3, #0
10016d32:	f001 fed3 	bl	10018adc <__aeabi_dcmpeq>
10016d36:	2800      	cmp	r0, #0
10016d38:	f000 813f 	beq.w	10016fba <_svfprintf_r+0x179a>
10016d3c:	4623      	mov	r3, r4
10016d3e:	1b5b      	subs	r3, r3, r5
10016d40:	9313      	str	r3, [sp, #76]	@ 0x4c
10016d42:	9a29      	ldr	r2, [sp, #164]	@ 0xa4
10016d44:	9212      	str	r2, [sp, #72]	@ 0x48
10016d46:	2f47      	cmp	r7, #71	@ 0x47
10016d48:	f000 8121 	beq.w	10016f8e <_svfprintf_r+0x176e>
10016d4c:	2f46      	cmp	r7, #70	@ 0x46
10016d4e:	f000 81e3 	beq.w	10017118 <_svfprintf_r+0x18f8>
10016d52:	990e      	ldr	r1, [sp, #56]	@ 0x38
10016d54:	1e53      	subs	r3, r2, #1
10016d56:	2961      	cmp	r1, #97	@ 0x61
10016d58:	9329      	str	r3, [sp, #164]	@ 0xa4
10016d5a:	f000 8316 	beq.w	1001738a <_svfprintf_r+0x1b6a>
10016d5e:	2941      	cmp	r1, #65	@ 0x41
10016d60:	f040 8120 	bne.w	10016fa4 <_svfprintf_r+0x1784>
10016d64:	2150      	movs	r1, #80	@ 0x50
10016d66:	2001      	movs	r0, #1
10016d68:	2b00      	cmp	r3, #0
10016d6a:	bfb6      	itet	lt
10016d6c:	f1c2 0301 	rsblt	r3, r2, #1
10016d70:	222b      	movge	r2, #43	@ 0x2b
10016d72:	222d      	movlt	r2, #45	@ 0x2d
10016d74:	2b09      	cmp	r3, #9
10016d76:	f88d 10b0 	strb.w	r1, [sp, #176]	@ 0xb0
10016d7a:	f88d 20b1 	strb.w	r2, [sp, #177]	@ 0xb1
10016d7e:	f340 8227 	ble.w	100171d0 <_svfprintf_r+0x19b0>
10016d82:	f10d 04c7 	add.w	r4, sp, #199	@ 0xc7
10016d86:	4eae      	ldr	r6, [pc, #696]	@ (10017040 <_svfprintf_r+0x1820>)
10016d88:	4622      	mov	r2, r4
10016d8a:	4610      	mov	r0, r2
10016d8c:	fba6 1203 	umull	r1, r2, r6, r3
10016d90:	08d2      	lsrs	r2, r2, #3
10016d92:	eb02 0182 	add.w	r1, r2, r2, lsl #2
10016d96:	eba3 0141 	sub.w	r1, r3, r1, lsl #1
10016d9a:	3130      	adds	r1, #48	@ 0x30
10016d9c:	f800 1c01 	strb.w	r1, [r0, #-1]
10016da0:	4619      	mov	r1, r3
10016da2:	2963      	cmp	r1, #99	@ 0x63
10016da4:	4613      	mov	r3, r2
10016da6:	f100 32ff 	add.w	r2, r0, #4294967295	@ 0xffffffff
10016daa:	dcee      	bgt.n	10016d8a <_svfprintf_r+0x156a>
10016dac:	3330      	adds	r3, #48	@ 0x30
10016dae:	f802 3c01 	strb.w	r3, [r2, #-1]
10016db2:	1e83      	subs	r3, r0, #2
10016db4:	42a3      	cmp	r3, r4
10016db6:	f080 82ed 	bcs.w	10017394 <_svfprintf_r+0x1b74>
10016dba:	f10d 02b1 	add.w	r2, sp, #177	@ 0xb1
10016dbe:	f813 1b01 	ldrb.w	r1, [r3], #1
10016dc2:	f802 1f01 	strb.w	r1, [r2, #1]!
10016dc6:	42a3      	cmp	r3, r4
10016dc8:	d1f9      	bne.n	10016dbe <_svfprintf_r+0x159e>
10016dca:	ab5e      	add	r3, sp, #376	@ 0x178
10016dcc:	1a18      	subs	r0, r3, r0
10016dce:	f1a0 03ad 	sub.w	r3, r0, #173	@ 0xad
10016dd2:	931c      	str	r3, [sp, #112]	@ 0x70
10016dd4:	9b13      	ldr	r3, [sp, #76]	@ 0x4c
10016dd6:	9a1c      	ldr	r2, [sp, #112]	@ 0x70
10016dd8:	2b01      	cmp	r3, #1
10016dda:	eb03 0b02 	add.w	fp, r3, r2
10016dde:	f340 822a 	ble.w	10017236 <_svfprintf_r+0x1a16>
10016de2:	9b18      	ldr	r3, [sp, #96]	@ 0x60
10016de4:	449b      	add	fp, r3
10016de6:	9b06      	ldr	r3, [sp, #24]
10016de8:	f423 6380 	bic.w	r3, r3, #1024	@ 0x400
10016dec:	f443 7980 	orr.w	r9, r3, #256	@ 0x100
10016df0:	ea2b 72eb 	bic.w	r2, fp, fp, asr #31
10016df4:	2300      	movs	r3, #0
10016df6:	9314      	str	r3, [sp, #80]	@ 0x50
10016df8:	9206      	str	r2, [sp, #24]
10016dfa:	9310      	str	r3, [sp, #64]	@ 0x40
10016dfc:	9312      	str	r3, [sp, #72]	@ 0x48
10016dfe:	9b1f      	ldr	r3, [sp, #124]	@ 0x7c
10016e00:	2b00      	cmp	r3, #0
10016e02:	f040 80d3 	bne.w	10016fac <_svfprintf_r+0x178c>
10016e06:	f89d 209f 	ldrb.w	r2, [sp, #159]	@ 0x9f
10016e0a:	9308      	str	r3, [sp, #32]
10016e0c:	f7fe beef 	b.w	10015bee <_svfprintf_r+0x3ce>
10016e10:	9c09      	ldr	r4, [sp, #36]	@ 0x24
10016e12:	aa32      	add	r2, sp, #200	@ 0xc8
10016e14:	4621      	mov	r1, r4
10016e16:	4658      	mov	r0, fp
10016e18:	f001 f95a 	bl	100180d0 <__ssprint_r>
10016e1c:	89a3      	ldrh	r3, [r4, #12]
10016e1e:	f003 0340 	and.w	r3, r3, #64	@ 0x40
10016e22:	f7fe be06 	b.w	10015a32 <_svfprintf_r+0x212>
10016e26:	4628      	mov	r0, r5
10016e28:	960d      	str	r6, [sp, #52]	@ 0x34
10016e2a:	f7fd fae9 	bl	10014400 <strlen>
10016e2e:	4683      	mov	fp, r0
10016e30:	f7fe bf74 	b.w	10015d1c <_svfprintf_r+0x4fc>
10016e34:	9807      	ldr	r0, [sp, #28]
10016e36:	f10b 0101 	add.w	r1, fp, #1
10016e3a:	f7f9 f853 	bl	1000fee4 <_malloc_r>
10016e3e:	4605      	mov	r5, r0
10016e40:	2800      	cmp	r0, #0
10016e42:	f000 81b7 	beq.w	100171b4 <_svfprintf_r+0x1994>
10016e46:	900c      	str	r0, [sp, #48]	@ 0x30
10016e48:	e63e      	b.n	10016ac8 <_svfprintf_r+0x12a8>
10016e4a:	9909      	ldr	r1, [sp, #36]	@ 0x24
10016e4c:	9807      	ldr	r0, [sp, #28]
10016e4e:	aa32      	add	r2, sp, #200	@ 0xc8
10016e50:	f001 f93e 	bl	100180d0 <__ssprint_r>
10016e54:	2800      	cmp	r0, #0
10016e56:	f47f a99a 	bne.w	1001618e <_svfprintf_r+0x96e>
10016e5a:	9c34      	ldr	r4, [sp, #208]	@ 0xd0
10016e5c:	f10d 08d4 	add.w	r8, sp, #212	@ 0xd4
10016e60:	f7ff baaa 	b.w	100163b8 <_svfprintf_r+0xb98>
10016e64:	9909      	ldr	r1, [sp, #36]	@ 0x24
10016e66:	9807      	ldr	r0, [sp, #28]
10016e68:	aa32      	add	r2, sp, #200	@ 0xc8
10016e6a:	f001 f931 	bl	100180d0 <__ssprint_r>
10016e6e:	2800      	cmp	r0, #0
10016e70:	f47f a98d 	bne.w	1001618e <_svfprintf_r+0x96e>
10016e74:	e9dd 3433 	ldrd	r3, r4, [sp, #204]	@ 0xcc
10016e78:	9a29      	ldr	r2, [sp, #164]	@ 0xa4
10016e7a:	f10d 08d4 	add.w	r8, sp, #212	@ 0xd4
10016e7e:	e68f      	b.n	10016ba0 <_svfprintf_r+0x1380>
10016e80:	2306      	movs	r3, #6
10016e82:	9308      	str	r3, [sp, #32]
10016e84:	f7ff bbf1 	b.w	1001666a <_svfprintf_r+0xe4a>
10016e88:	9b08      	ldr	r3, [sp, #32]
10016e8a:	1c5e      	adds	r6, r3, #1
10016e8c:	2302      	movs	r3, #2
10016e8e:	e729      	b.n	10016ce4 <_svfprintf_r+0x14c4>
10016e90:	9e08      	ldr	r6, [sp, #32]
10016e92:	2303      	movs	r3, #3
10016e94:	e726      	b.n	10016ce4 <_svfprintf_r+0x14c4>
10016e96:	aa29      	add	r2, sp, #164	@ 0xa4
10016e98:	e9dd 0124 	ldrd	r0, r1, [sp, #144]	@ 0x90
10016e9c:	f7fd fb4e 	bl	1001453c <frexp>
10016ea0:	2200      	movs	r2, #0
10016ea2:	f04f 537f 	mov.w	r3, #1069547520	@ 0x3fc00000
10016ea6:	f001 fbb1 	bl	1001860c <__aeabi_dmul>
10016eaa:	4602      	mov	r2, r0
10016eac:	460b      	mov	r3, r1
10016eae:	e9cd 2310 	strd	r2, r3, [sp, #64]	@ 0x40
10016eb2:	2200      	movs	r2, #0
10016eb4:	2300      	movs	r3, #0
10016eb6:	f001 fe11 	bl	10018adc <__aeabi_dcmpeq>
10016eba:	2800      	cmp	r0, #0
10016ebc:	f040 81c0 	bne.w	10017240 <_svfprintf_r+0x1a20>
10016ec0:	4b60      	ldr	r3, [pc, #384]	@ (10017044 <_svfprintf_r+0x1824>)
10016ec2:	9312      	str	r3, [sp, #72]	@ 0x48
10016ec4:	9b08      	ldr	r3, [sp, #32]
10016ec6:	f8cd 804c 	str.w	r8, [sp, #76]	@ 0x4c
10016eca:	f103 39ff 	add.w	r9, r3, #4294967295	@ 0xffffffff
10016ece:	462e      	mov	r6, r5
10016ed0:	9514      	str	r5, [sp, #80]	@ 0x50
10016ed2:	f8dd b048 	ldr.w	fp, [sp, #72]	@ 0x48
10016ed6:	464d      	mov	r5, r9
10016ed8:	e9dd 8910 	ldrd	r8, r9, [sp, #64]	@ 0x40
10016edc:	e005      	b.n	10016eea <_svfprintf_r+0x16ca>
10016ede:	2200      	movs	r2, #0
10016ee0:	2300      	movs	r3, #0
10016ee2:	f001 fdfb 	bl	10018adc <__aeabi_dcmpeq>
10016ee6:	b9f0      	cbnz	r0, 10016f26 <_svfprintf_r+0x1706>
10016ee8:	463d      	mov	r5, r7
10016eea:	4b57      	ldr	r3, [pc, #348]	@ (10017048 <_svfprintf_r+0x1828>)
10016eec:	2200      	movs	r2, #0
10016eee:	4640      	mov	r0, r8
10016ef0:	4649      	mov	r1, r9
10016ef2:	f001 fb8b 	bl	1001860c <__aeabi_dmul>
10016ef6:	4689      	mov	r9, r1
10016ef8:	4680      	mov	r8, r0
10016efa:	f001 fe37 	bl	10018b6c <__aeabi_d2iz>
10016efe:	4604      	mov	r4, r0
10016f00:	f001 fb1a 	bl	10018538 <__aeabi_i2d>
10016f04:	460b      	mov	r3, r1
10016f06:	4602      	mov	r2, r0
10016f08:	4649      	mov	r1, r9
10016f0a:	4640      	mov	r0, r8
10016f0c:	f001 f9c6 	bl	1001829c <__aeabi_dsub>
10016f10:	f81b 3004 	ldrb.w	r3, [fp, r4]
10016f14:	46b2      	mov	sl, r6
10016f16:	f806 3b01 	strb.w	r3, [r6], #1
10016f1a:	1c6b      	adds	r3, r5, #1
10016f1c:	f105 37ff 	add.w	r7, r5, #4294967295	@ 0xffffffff
10016f20:	4680      	mov	r8, r0
10016f22:	4689      	mov	r9, r1
10016f24:	d1db      	bne.n	10016ede <_svfprintf_r+0x16be>
10016f26:	46cb      	mov	fp, r9
10016f28:	4657      	mov	r7, sl
10016f2a:	46c2      	mov	sl, r8
10016f2c:	4b47      	ldr	r3, [pc, #284]	@ (1001704c <_svfprintf_r+0x182c>)
10016f2e:	f8dd 804c 	ldr.w	r8, [sp, #76]	@ 0x4c
10016f32:	2200      	movs	r2, #0
10016f34:	4650      	mov	r0, sl
10016f36:	4659      	mov	r1, fp
10016f38:	46a9      	mov	r9, r5
10016f3a:	9d14      	ldr	r5, [sp, #80]	@ 0x50
10016f3c:	f001 fdf6 	bl	10018b2c <__aeabi_dcmpgt>
10016f40:	2800      	cmp	r0, #0
10016f42:	f040 8153 	bne.w	100171ec <_svfprintf_r+0x19cc>
10016f46:	4b41      	ldr	r3, [pc, #260]	@ (1001704c <_svfprintf_r+0x182c>)
10016f48:	4650      	mov	r0, sl
10016f4a:	4659      	mov	r1, fp
10016f4c:	2200      	movs	r2, #0
10016f4e:	f001 fdc5 	bl	10018adc <__aeabi_dcmpeq>
10016f52:	b110      	cbz	r0, 10016f5a <_svfprintf_r+0x173a>
10016f54:	07e2      	lsls	r2, r4, #31
10016f56:	f100 8149 	bmi.w	100171ec <_svfprintf_r+0x19cc>
10016f5a:	f1b9 0f00 	cmp.w	r9, #0
10016f5e:	f2c0 815f 	blt.w	10017220 <_svfprintf_r+0x1a00>
10016f62:	f109 0301 	add.w	r3, r9, #1
10016f66:	4433      	add	r3, r6
10016f68:	2230      	movs	r2, #48	@ 0x30
10016f6a:	f806 2b01 	strb.w	r2, [r6], #1
10016f6e:	42b3      	cmp	r3, r6
10016f70:	d1fb      	bne.n	10016f6a <_svfprintf_r+0x174a>
10016f72:	1b5b      	subs	r3, r3, r5
10016f74:	9313      	str	r3, [sp, #76]	@ 0x4c
10016f76:	9b0e      	ldr	r3, [sp, #56]	@ 0x38
10016f78:	f023 0720 	bic.w	r7, r3, #32
10016f7c:	e6e1      	b.n	10016d42 <_svfprintf_r+0x1522>
10016f7e:	9b06      	ldr	r3, [sp, #24]
10016f80:	07db      	lsls	r3, r3, #31
10016f82:	f100 80f9 	bmi.w	10017178 <_svfprintf_r+0x1958>
10016f86:	9b30      	ldr	r3, [sp, #192]	@ 0xc0
10016f88:	9a29      	ldr	r2, [sp, #164]	@ 0xa4
10016f8a:	1b5b      	subs	r3, r3, r5
10016f8c:	9313      	str	r3, [sp, #76]	@ 0x4c
10016f8e:	1cd3      	adds	r3, r2, #3
10016f90:	9212      	str	r2, [sp, #72]	@ 0x48
10016f92:	db02      	blt.n	10016f9a <_svfprintf_r+0x177a>
10016f94:	9b08      	ldr	r3, [sp, #32]
10016f96:	4293      	cmp	r3, r2
10016f98:	da1b      	bge.n	10016fd2 <_svfprintf_r+0x17b2>
10016f9a:	9b0e      	ldr	r3, [sp, #56]	@ 0x38
10016f9c:	3b02      	subs	r3, #2
10016f9e:	930e      	str	r3, [sp, #56]	@ 0x38
10016fa0:	1e53      	subs	r3, r2, #1
10016fa2:	9329      	str	r3, [sp, #164]	@ 0xa4
10016fa4:	f89d 1038 	ldrb.w	r1, [sp, #56]	@ 0x38
10016fa8:	2000      	movs	r0, #0
10016faa:	e6dd      	b.n	10016d68 <_svfprintf_r+0x1548>
10016fac:	222d      	movs	r2, #45	@ 0x2d
10016fae:	2300      	movs	r3, #0
10016fb0:	f88d 209f 	strb.w	r2, [sp, #159]	@ 0x9f
10016fb4:	9308      	str	r3, [sp, #32]
10016fb6:	f7fe be1d 	b.w	10015bf4 <_svfprintf_r+0x3d4>
10016fba:	9b30      	ldr	r3, [sp, #192]	@ 0xc0
10016fbc:	42a3      	cmp	r3, r4
10016fbe:	f4bf aebe 	bcs.w	10016d3e <_svfprintf_r+0x151e>
10016fc2:	2130      	movs	r1, #48	@ 0x30
10016fc4:	1c5a      	adds	r2, r3, #1
10016fc6:	9230      	str	r2, [sp, #192]	@ 0xc0
10016fc8:	7019      	strb	r1, [r3, #0]
10016fca:	9b30      	ldr	r3, [sp, #192]	@ 0xc0
10016fcc:	429c      	cmp	r4, r3
10016fce:	d8f9      	bhi.n	10016fc4 <_svfprintf_r+0x17a4>
10016fd0:	e6b5      	b.n	10016d3e <_svfprintf_r+0x151e>
10016fd2:	9913      	ldr	r1, [sp, #76]	@ 0x4c
10016fd4:	428a      	cmp	r2, r1
10016fd6:	f2c0 80c4 	blt.w	10017162 <_svfprintf_r+0x1942>
10016fda:	9b06      	ldr	r3, [sp, #24]
10016fdc:	07de      	lsls	r6, r3, #31
10016fde:	f140 8184 	bpl.w	100172ea <_svfprintf_r+0x1aca>
10016fe2:	9b18      	ldr	r3, [sp, #96]	@ 0x60
10016fe4:	eb02 0b03 	add.w	fp, r2, r3
10016fe8:	9b06      	ldr	r3, [sp, #24]
10016fea:	055c      	lsls	r4, r3, #21
10016fec:	d502      	bpl.n	10016ff4 <_svfprintf_r+0x17d4>
10016fee:	2a00      	cmp	r2, #0
10016ff0:	f300 814d 	bgt.w	1001728e <_svfprintf_r+0x1a6e>
10016ff4:	ea2b 73eb 	bic.w	r3, fp, fp, asr #31
10016ff8:	9306      	str	r3, [sp, #24]
10016ffa:	f8dd 9054 	ldr.w	r9, [sp, #84]	@ 0x54
10016ffe:	2367      	movs	r3, #103	@ 0x67
10017000:	930e      	str	r3, [sp, #56]	@ 0x38
10017002:	2300      	movs	r3, #0
10017004:	9314      	str	r3, [sp, #80]	@ 0x50
10017006:	9310      	str	r3, [sp, #64]	@ 0x40
10017008:	e6f9      	b.n	10016dfe <_svfprintf_r+0x15de>
1001700a:	9909      	ldr	r1, [sp, #36]	@ 0x24
1001700c:	aa32      	add	r2, sp, #200	@ 0xc8
1001700e:	4658      	mov	r0, fp
10017010:	f001 f85e 	bl	100180d0 <__ssprint_r>
10017014:	2800      	cmp	r0, #0
10017016:	f47f aaa8 	bne.w	1001656a <_svfprintf_r+0xd4a>
1001701a:	f89a 0000 	ldrb.w	r0, [sl]
1001701e:	9934      	ldr	r1, [sp, #208]	@ 0xd0
10017020:	aa35      	add	r2, sp, #212	@ 0xd4
10017022:	4404      	add	r4, r0
10017024:	e430      	b.n	10016888 <_svfprintf_r+0x1068>
10017026:	9909      	ldr	r1, [sp, #36]	@ 0x24
10017028:	9807      	ldr	r0, [sp, #28]
1001702a:	aa32      	add	r2, sp, #200	@ 0xc8
1001702c:	f001 f850 	bl	100180d0 <__ssprint_r>
10017030:	2800      	cmp	r0, #0
10017032:	f47f a8ac 	bne.w	1001618e <_svfprintf_r+0x96e>
10017036:	9c34      	ldr	r4, [sp, #208]	@ 0xd0
10017038:	f10d 08d4 	add.w	r8, sp, #212	@ 0xd4
1001703c:	f7ff b9b5 	b.w	100163aa <_svfprintf_r+0xb8a>
10017040:	cccccccd 	.word	0xcccccccd
10017044:	10019288 	.word	0x10019288
10017048:	40300000 	.word	0x40300000
1001704c:	3fe00000 	.word	0x3fe00000
10017050:	2378      	movs	r3, #120	@ 0x78
10017052:	f88d 30a1 	strb.w	r3, [sp, #161]	@ 0xa1
10017056:	2330      	movs	r3, #48	@ 0x30
10017058:	f88d 30a0 	strb.w	r3, [sp, #160]	@ 0xa0
1001705c:	f049 0302 	orr.w	r3, r9, #2
10017060:	9306      	str	r3, [sp, #24]
10017062:	9b08      	ldr	r3, [sp, #32]
10017064:	2b63      	cmp	r3, #99	@ 0x63
10017066:	f300 80dd 	bgt.w	10017224 <_svfprintf_r+0x1a04>
1001706a:	2300      	movs	r3, #0
1001706c:	930c      	str	r3, [sp, #48]	@ 0x30
1001706e:	ad45      	add	r5, sp, #276	@ 0x114
10017070:	f449 7381 	orr.w	r3, r9, #258	@ 0x102
10017074:	9315      	str	r3, [sp, #84]	@ 0x54
10017076:	9b17      	ldr	r3, [sp, #92]	@ 0x5c
10017078:	2b00      	cmp	r3, #0
1001707a:	db22      	blt.n	100170c2 <_svfprintf_r+0x18a2>
1001707c:	ed9d 7b16 	vldr	d7, [sp, #88]	@ 0x58
10017080:	ed8d 7b24 	vstr	d7, [sp, #144]	@ 0x90
10017084:	2300      	movs	r3, #0
10017086:	931f      	str	r3, [sp, #124]	@ 0x7c
10017088:	9b0e      	ldr	r3, [sp, #56]	@ 0x38
1001708a:	2b61      	cmp	r3, #97	@ 0x61
1001708c:	f47f aafd 	bne.w	1001668a <_svfprintf_r+0xe6a>
10017090:	aa29      	add	r2, sp, #164	@ 0xa4
10017092:	e9dd 0124 	ldrd	r0, r1, [sp, #144]	@ 0x90
10017096:	f7fd fa51 	bl	1001453c <frexp>
1001709a:	2200      	movs	r2, #0
1001709c:	f04f 537f 	mov.w	r3, #1069547520	@ 0x3fc00000
100170a0:	f001 fab4 	bl	1001860c <__aeabi_dmul>
100170a4:	4602      	mov	r2, r0
100170a6:	460b      	mov	r3, r1
100170a8:	e9cd 2310 	strd	r2, r3, [sp, #64]	@ 0x40
100170ac:	2200      	movs	r2, #0
100170ae:	2300      	movs	r3, #0
100170b0:	f001 fd14 	bl	10018adc <__aeabi_dcmpeq>
100170b4:	2800      	cmp	r0, #0
100170b6:	f040 80c3 	bne.w	10017240 <_svfprintf_r+0x1a20>
100170ba:	4ba8      	ldr	r3, [pc, #672]	@ (1001735c <_svfprintf_r+0x1b3c>)
100170bc:	9312      	str	r3, [sp, #72]	@ 0x48
100170be:	e701      	b.n	10016ec4 <_svfprintf_r+0x16a4>
100170c0:	930c      	str	r3, [sp, #48]	@ 0x30
100170c2:	e9dd 1216 	ldrd	r1, r2, [sp, #88]	@ 0x58
100170c6:	f102 4300 	add.w	r3, r2, #2147483648	@ 0x80000000
100170ca:	9325      	str	r3, [sp, #148]	@ 0x94
100170cc:	232d      	movs	r3, #45	@ 0x2d
100170ce:	9124      	str	r1, [sp, #144]	@ 0x90
100170d0:	931f      	str	r3, [sp, #124]	@ 0x7c
100170d2:	e7d9      	b.n	10017088 <_svfprintf_r+0x1868>
100170d4:	9909      	ldr	r1, [sp, #36]	@ 0x24
100170d6:	9807      	ldr	r0, [sp, #28]
100170d8:	aa32      	add	r2, sp, #200	@ 0xc8
100170da:	f000 fff9 	bl	100180d0 <__ssprint_r>
100170de:	2800      	cmp	r0, #0
100170e0:	f47f a855 	bne.w	1001618e <_svfprintf_r+0x96e>
100170e4:	9d29      	ldr	r5, [sp, #164]	@ 0xa4
100170e6:	9c34      	ldr	r4, [sp, #208]	@ 0xd0
100170e8:	f10d 08d4 	add.w	r8, sp, #212	@ 0xd4
100170ec:	f7ff b981 	b.w	100163f2 <_svfprintf_r+0xbd2>
100170f0:	499b      	ldr	r1, [pc, #620]	@ (10017360 <_svfprintf_r+0x1b40>)
100170f2:	9115      	str	r1, [sp, #84]	@ 0x54
100170f4:	f7fe bdb2 	b.w	10015c5c <_svfprintf_r+0x43c>
100170f8:	9909      	ldr	r1, [sp, #36]	@ 0x24
100170fa:	9807      	ldr	r0, [sp, #28]
100170fc:	aa32      	add	r2, sp, #200	@ 0xc8
100170fe:	f000 ffe7 	bl	100180d0 <__ssprint_r>
10017102:	2800      	cmp	r0, #0
10017104:	f47f a843 	bne.w	1001618e <_svfprintf_r+0x96e>
10017108:	9d29      	ldr	r5, [sp, #164]	@ 0xa4
1001710a:	9b13      	ldr	r3, [sp, #76]	@ 0x4c
1001710c:	9c34      	ldr	r4, [sp, #208]	@ 0xd0
1001710e:	1b5d      	subs	r5, r3, r5
10017110:	f10d 08d4 	add.w	r8, sp, #212	@ 0xd4
10017114:	f7ff b984 	b.w	10016420 <_svfprintf_r+0xc00>
10017118:	9b06      	ldr	r3, [sp, #24]
1001711a:	9912      	ldr	r1, [sp, #72]	@ 0x48
1001711c:	9a08      	ldr	r2, [sp, #32]
1001711e:	f003 0301 	and.w	r3, r3, #1
10017122:	2900      	cmp	r1, #0
10017124:	ea43 0302 	orr.w	r3, r3, r2
10017128:	f340 810f 	ble.w	1001734a <_svfprintf_r+0x1b2a>
1001712c:	2b00      	cmp	r3, #0
1001712e:	f040 80d5 	bne.w	100172dc <_svfprintf_r+0x1abc>
10017132:	2366      	movs	r3, #102	@ 0x66
10017134:	f8dd b048 	ldr.w	fp, [sp, #72]	@ 0x48
10017138:	930e      	str	r3, [sp, #56]	@ 0x38
1001713a:	9b06      	ldr	r3, [sp, #24]
1001713c:	055a      	lsls	r2, r3, #21
1001713e:	f100 80a8 	bmi.w	10017292 <_svfprintf_r+0x1a72>
10017142:	ea2b 73eb 	bic.w	r3, fp, fp, asr #31
10017146:	f8dd 9054 	ldr.w	r9, [sp, #84]	@ 0x54
1001714a:	9306      	str	r3, [sp, #24]
1001714c:	e759      	b.n	10017002 <_svfprintf_r+0x17e2>
1001714e:	2358      	movs	r3, #88	@ 0x58
10017150:	e77f      	b.n	10017052 <_svfprintf_r+0x1832>
10017152:	2200      	movs	r2, #0
10017154:	9208      	str	r2, [sp, #32]
10017156:	f7fe bbbb 	b.w	100158d0 <_svfprintf_r+0xb0>
1001715a:	4a81      	ldr	r2, [pc, #516]	@ (10017360 <_svfprintf_r+0x1b40>)
1001715c:	9215      	str	r2, [sp, #84]	@ 0x54
1001715e:	f7ff b8ef 	b.w	10016340 <_svfprintf_r+0xb20>
10017162:	9b13      	ldr	r3, [sp, #76]	@ 0x4c
10017164:	9a18      	ldr	r2, [sp, #96]	@ 0x60
10017166:	eb03 0b02 	add.w	fp, r3, r2
1001716a:	9b12      	ldr	r3, [sp, #72]	@ 0x48
1001716c:	2b00      	cmp	r3, #0
1001716e:	f340 8083 	ble.w	10017278 <_svfprintf_r+0x1a58>
10017172:	2367      	movs	r3, #103	@ 0x67
10017174:	930e      	str	r3, [sp, #56]	@ 0x38
10017176:	e7e0      	b.n	1001713a <_svfprintf_r+0x191a>
10017178:	19ac      	adds	r4, r5, r6
1001717a:	2747      	movs	r7, #71	@ 0x47
1001717c:	e5d5      	b.n	10016d2a <_svfprintf_r+0x150a>
1001717e:	4655      	mov	r5, sl
10017180:	3301      	adds	r3, #1
10017182:	9a15      	ldr	r2, [sp, #84]	@ 0x54
10017184:	f8c8 2000 	str.w	r2, [r8]
10017188:	4434      	add	r4, r6
1001718a:	2b07      	cmp	r3, #7
1001718c:	e9cd 3433 	strd	r3, r4, [sp, #204]	@ 0xcc
10017190:	f8c8 6004 	str.w	r6, [r8, #4]
10017194:	f77f a823 	ble.w	100161de <_svfprintf_r+0x9be>
10017198:	9909      	ldr	r1, [sp, #36]	@ 0x24
1001719a:	9807      	ldr	r0, [sp, #28]
1001719c:	aa32      	add	r2, sp, #200	@ 0xc8
1001719e:	f000 ff97 	bl	100180d0 <__ssprint_r>
100171a2:	2800      	cmp	r0, #0
100171a4:	f47e aff3 	bne.w	1001618e <_svfprintf_r+0x96e>
100171a8:	e9dd 3433 	ldrd	r3, r4, [sp, #204]	@ 0xcc
100171ac:	f10d 08d4 	add.w	r8, sp, #212	@ 0xd4
100171b0:	f7ff b817 	b.w	100161e2 <_svfprintf_r+0x9c2>
100171b4:	9a09      	ldr	r2, [sp, #36]	@ 0x24
100171b6:	8993      	ldrh	r3, [r2, #12]
100171b8:	f043 0340 	orr.w	r3, r3, #64	@ 0x40
100171bc:	8193      	strh	r3, [r2, #12]
100171be:	f04f 33ff 	mov.w	r3, #4294967295	@ 0xffffffff
100171c2:	930a      	str	r3, [sp, #40]	@ 0x28
100171c4:	f7fe bc38 	b.w	10015a38 <_svfprintf_r+0x218>
100171c8:	4a66      	ldr	r2, [pc, #408]	@ (10017364 <_svfprintf_r+0x1b44>)
100171ca:	9215      	str	r2, [sp, #84]	@ 0x54
100171cc:	f7fe bf84 	b.w	100160d8 <_svfprintf_r+0x8b8>
100171d0:	2800      	cmp	r0, #0
100171d2:	d13f      	bne.n	10017254 <_svfprintf_r+0x1a34>
100171d4:	2230      	movs	r2, #48	@ 0x30
100171d6:	f88d 20b2 	strb.w	r2, [sp, #178]	@ 0xb2
100171da:	f10d 02b3 	add.w	r2, sp, #179	@ 0xb3
100171de:	3330      	adds	r3, #48	@ 0x30
100171e0:	f802 3b01 	strb.w	r3, [r2], #1
100171e4:	ab2c      	add	r3, sp, #176	@ 0xb0
100171e6:	1ad3      	subs	r3, r2, r3
100171e8:	931c      	str	r3, [sp, #112]	@ 0x70
100171ea:	e5f3      	b.n	10016dd4 <_svfprintf_r+0x15b4>
100171ec:	9b12      	ldr	r3, [sp, #72]	@ 0x48
100171ee:	9730      	str	r7, [sp, #192]	@ 0xc0
100171f0:	7bd9      	ldrb	r1, [r3, #15]
100171f2:	f816 2c01 	ldrb.w	r2, [r6, #-1]
100171f6:	428a      	cmp	r2, r1
100171f8:	4633      	mov	r3, r6
100171fa:	d109      	bne.n	10017210 <_svfprintf_r+0x19f0>
100171fc:	2030      	movs	r0, #48	@ 0x30
100171fe:	f803 0c01 	strb.w	r0, [r3, #-1]
10017202:	9b30      	ldr	r3, [sp, #192]	@ 0xc0
10017204:	1e5a      	subs	r2, r3, #1
10017206:	9230      	str	r2, [sp, #192]	@ 0xc0
10017208:	f813 2c01 	ldrb.w	r2, [r3, #-1]
1001720c:	4291      	cmp	r1, r2
1001720e:	d0f6      	beq.n	100171fe <_svfprintf_r+0x19de>
10017210:	2a39      	cmp	r2, #57	@ 0x39
10017212:	bf0b      	itete	eq
10017214:	9a12      	ldreq	r2, [sp, #72]	@ 0x48
10017216:	3201      	addne	r2, #1
10017218:	7a92      	ldrbeq	r2, [r2, #10]
1001721a:	b2d2      	uxtbne	r2, r2
1001721c:	f803 2c01 	strb.w	r2, [r3, #-1]
10017220:	4633      	mov	r3, r6
10017222:	e6a6      	b.n	10016f72 <_svfprintf_r+0x1752>
10017224:	9807      	ldr	r0, [sp, #28]
10017226:	1c59      	adds	r1, r3, #1
10017228:	f7f8 fe5c 	bl	1000fee4 <_malloc_r>
1001722c:	4605      	mov	r5, r0
1001722e:	2800      	cmp	r0, #0
10017230:	d0c0      	beq.n	100171b4 <_svfprintf_r+0x1994>
10017232:	900c      	str	r0, [sp, #48]	@ 0x30
10017234:	e71c      	b.n	10017070 <_svfprintf_r+0x1850>
10017236:	9b06      	ldr	r3, [sp, #24]
10017238:	07df      	lsls	r7, r3, #31
1001723a:	f57f add4 	bpl.w	10016de6 <_svfprintf_r+0x15c6>
1001723e:	e5d0      	b.n	10016de2 <_svfprintf_r+0x15c2>
10017240:	4b49      	ldr	r3, [pc, #292]	@ (10017368 <_svfprintf_r+0x1b48>)
10017242:	4a46      	ldr	r2, [pc, #280]	@ (1001735c <_svfprintf_r+0x1b3c>)
10017244:	990e      	ldr	r1, [sp, #56]	@ 0x38
10017246:	2961      	cmp	r1, #97	@ 0x61
10017248:	bf18      	it	ne
1001724a:	461a      	movne	r2, r3
1001724c:	2301      	movs	r3, #1
1001724e:	9212      	str	r2, [sp, #72]	@ 0x48
10017250:	9329      	str	r3, [sp, #164]	@ 0xa4
10017252:	e637      	b.n	10016ec4 <_svfprintf_r+0x16a4>
10017254:	f10d 02b2 	add.w	r2, sp, #178	@ 0xb2
10017258:	e7c1      	b.n	100171de <_svfprintf_r+0x19be>
1001725a:	9b17      	ldr	r3, [sp, #92]	@ 0x5c
1001725c:	4d43      	ldr	r5, [pc, #268]	@ (1001736c <_svfprintf_r+0x1b4c>)
1001725e:	2b00      	cmp	r3, #0
10017260:	bfb4      	ite	lt
10017262:	222d      	movlt	r2, #45	@ 0x2d
10017264:	f89d 209f 	ldrbge.w	r2, [sp, #159]	@ 0x9f
10017268:	4b41      	ldr	r3, [pc, #260]	@ (10017370 <_svfprintf_r+0x1b50>)
1001726a:	bfb8      	it	lt
1001726c:	f88d 209f 	strblt.w	r2, [sp, #159]	@ 0x9f
10017270:	f029 0980 	bic.w	r9, r9, #128	@ 0x80
10017274:	f7fe bcae 	b.w	10015bd4 <_svfprintf_r+0x3b4>
10017278:	f1c3 0301 	rsb	r3, r3, #1
1001727c:	449b      	add	fp, r3
1001727e:	ea2b 73eb 	bic.w	r3, fp, fp, asr #31
10017282:	9306      	str	r3, [sp, #24]
10017284:	2367      	movs	r3, #103	@ 0x67
10017286:	f8dd 9054 	ldr.w	r9, [sp, #84]	@ 0x54
1001728a:	930e      	str	r3, [sp, #56]	@ 0x38
1001728c:	e6b9      	b.n	10017002 <_svfprintf_r+0x17e2>
1001728e:	2367      	movs	r3, #103	@ 0x67
10017290:	930e      	str	r3, [sp, #56]	@ 0x38
10017292:	991b      	ldr	r1, [sp, #108]	@ 0x6c
10017294:	780b      	ldrb	r3, [r1, #0]
10017296:	2bff      	cmp	r3, #255	@ 0xff
10017298:	f000 808c 	beq.w	100173b4 <_svfprintf_r+0x1b94>
1001729c:	2400      	movs	r4, #0
1001729e:	9a12      	ldr	r2, [sp, #72]	@ 0x48
100172a0:	4620      	mov	r0, r4
100172a2:	e003      	b.n	100172ac <_svfprintf_r+0x1a8c>
100172a4:	3001      	adds	r0, #1
100172a6:	3101      	adds	r1, #1
100172a8:	2bff      	cmp	r3, #255	@ 0xff
100172aa:	d008      	beq.n	100172be <_svfprintf_r+0x1a9e>
100172ac:	4293      	cmp	r3, r2
100172ae:	da06      	bge.n	100172be <_svfprintf_r+0x1a9e>
100172b0:	1ad2      	subs	r2, r2, r3
100172b2:	784b      	ldrb	r3, [r1, #1]
100172b4:	2b00      	cmp	r3, #0
100172b6:	d1f5      	bne.n	100172a4 <_svfprintf_r+0x1a84>
100172b8:	780b      	ldrb	r3, [r1, #0]
100172ba:	3401      	adds	r4, #1
100172bc:	e7f4      	b.n	100172a8 <_svfprintf_r+0x1a88>
100172be:	911b      	str	r1, [sp, #108]	@ 0x6c
100172c0:	9010      	str	r0, [sp, #64]	@ 0x40
100172c2:	9414      	str	r4, [sp, #80]	@ 0x50
100172c4:	9212      	str	r2, [sp, #72]	@ 0x48
100172c6:	e9dd 3914 	ldrd	r3, r9, [sp, #80]	@ 0x50
100172ca:	9a10      	ldr	r2, [sp, #64]	@ 0x40
100172cc:	4413      	add	r3, r2
100172ce:	9a1e      	ldr	r2, [sp, #120]	@ 0x78
100172d0:	fb02 bb03 	mla	fp, r2, r3, fp
100172d4:	ea2b 73eb 	bic.w	r3, fp, fp, asr #31
100172d8:	9306      	str	r3, [sp, #24]
100172da:	e590      	b.n	10016dfe <_svfprintf_r+0x15de>
100172dc:	9b18      	ldr	r3, [sp, #96]	@ 0x60
100172de:	18cf      	adds	r7, r1, r3
100172e0:	443a      	add	r2, r7
100172e2:	2366      	movs	r3, #102	@ 0x66
100172e4:	4693      	mov	fp, r2
100172e6:	930e      	str	r3, [sp, #56]	@ 0x38
100172e8:	e727      	b.n	1001713a <_svfprintf_r+0x191a>
100172ea:	4693      	mov	fp, r2
100172ec:	e67c      	b.n	10016fe8 <_svfprintf_r+0x17c8>
100172ee:	9b08      	ldr	r3, [sp, #32]
100172f0:	9306      	str	r3, [sp, #24]
100172f2:	469b      	mov	fp, r3
100172f4:	2373      	movs	r3, #115	@ 0x73
100172f6:	f89d 209f 	ldrb.w	r2, [sp, #159]	@ 0x9f
100172fa:	960d      	str	r6, [sp, #52]	@ 0x34
100172fc:	9008      	str	r0, [sp, #32]
100172fe:	9014      	str	r0, [sp, #80]	@ 0x50
10017300:	9010      	str	r0, [sp, #64]	@ 0x40
10017302:	930e      	str	r3, [sp, #56]	@ 0x38
10017304:	f7fe bc73 	b.w	10015bee <_svfprintf_r+0x3ce>
10017308:	e9dd 0124 	ldrd	r0, r1, [sp, #144]	@ 0x90
1001730c:	2200      	movs	r2, #0
1001730e:	2300      	movs	r3, #0
10017310:	f001 fbe4 	bl	10018adc <__aeabi_dcmpeq>
10017314:	2800      	cmp	r0, #0
10017316:	f47f ad06 	bne.w	10016d26 <_svfprintf_r+0x1506>
1001731a:	f1c6 0601 	rsb	r6, r6, #1
1001731e:	9629      	str	r6, [sp, #164]	@ 0xa4
10017320:	e502      	b.n	10016d28 <_svfprintf_r+0x1508>
10017322:	f8dd 9018 	ldr.w	r9, [sp, #24]
10017326:	f8dd b020 	ldr.w	fp, [sp, #32]
1001732a:	f7ff bbc2 	b.w	10016ab2 <_svfprintf_r+0x1292>
1001732e:	4e0d      	ldr	r6, [pc, #52]	@ (10017364 <_svfprintf_r+0x1b44>)
10017330:	f7ff bae5 	b.w	100168fe <_svfprintf_r+0x10de>
10017334:	9a0d      	ldr	r2, [sp, #52]	@ 0x34
10017336:	7863      	ldrb	r3, [r4, #1]
10017338:	460c      	mov	r4, r1
1001733a:	f852 1b04 	ldr.w	r1, [r2], #4
1001733e:	920d      	str	r2, [sp, #52]	@ 0x34
10017340:	ea41 71e1 	orr.w	r1, r1, r1, asr #31
10017344:	9108      	str	r1, [sp, #32]
10017346:	f7fe bac2 	b.w	100158ce <_svfprintf_r+0xae>
1001734a:	f8dd 9054 	ldr.w	r9, [sp, #84]	@ 0x54
1001734e:	b98b      	cbnz	r3, 10017374 <_svfprintf_r+0x1b54>
10017350:	2301      	movs	r3, #1
10017352:	2266      	movs	r2, #102	@ 0x66
10017354:	9306      	str	r3, [sp, #24]
10017356:	920e      	str	r2, [sp, #56]	@ 0x38
10017358:	469b      	mov	fp, r3
1001735a:	e652      	b.n	10017002 <_svfprintf_r+0x17e2>
1001735c:	10019274 	.word	0x10019274
10017360:	100194cc 	.word	0x100194cc
10017364:	100194bc 	.word	0x100194bc
10017368:	10019288 	.word	0x10019288
1001736c:	1001926c 	.word	0x1001926c
10017370:	10019270 	.word	0x10019270
10017374:	9b18      	ldr	r3, [sp, #96]	@ 0x60
10017376:	1c5f      	adds	r7, r3, #1
10017378:	9b08      	ldr	r3, [sp, #32]
1001737a:	443b      	add	r3, r7
1001737c:	469b      	mov	fp, r3
1001737e:	ea23 73e3 	bic.w	r3, r3, r3, asr #31
10017382:	9306      	str	r3, [sp, #24]
10017384:	2366      	movs	r3, #102	@ 0x66
10017386:	930e      	str	r3, [sp, #56]	@ 0x38
10017388:	e63b      	b.n	10017002 <_svfprintf_r+0x17e2>
1001738a:	2170      	movs	r1, #112	@ 0x70
1001738c:	e4eb      	b.n	10016d66 <_svfprintf_r+0x1546>
1001738e:	4a0b      	ldr	r2, [pc, #44]	@ (100173bc <_svfprintf_r+0x1b9c>)
10017390:	9215      	str	r2, [sp, #84]	@ 0x54
10017392:	e44b      	b.n	10016c2c <_svfprintf_r+0x140c>
10017394:	2302      	movs	r3, #2
10017396:	931c      	str	r3, [sp, #112]	@ 0x70
10017398:	e51c      	b.n	10016dd4 <_svfprintf_r+0x15b4>
1001739a:	9a09      	ldr	r2, [sp, #36]	@ 0x24
1001739c:	f8dd b01c 	ldr.w	fp, [sp, #28]
100173a0:	8993      	ldrh	r3, [r2, #12]
100173a2:	f043 0340 	orr.w	r3, r3, #64	@ 0x40
100173a6:	8193      	strh	r3, [r2, #12]
100173a8:	f7ff b8df 	b.w	1001656a <_svfprintf_r+0xd4a>
100173ac:	230c      	movs	r3, #12
100173ae:	f8cb 3000 	str.w	r3, [fp]
100173b2:	e704      	b.n	100171be <_svfprintf_r+0x199e>
100173b4:	2300      	movs	r3, #0
100173b6:	9314      	str	r3, [sp, #80]	@ 0x50
100173b8:	9310      	str	r3, [sp, #64]	@ 0x40
100173ba:	e784      	b.n	100172c6 <_svfprintf_r+0x1aa6>
100173bc:	100194bc 	.word	0x100194bc

100173c0 <__smakebuf_r>:
100173c0:	e92d 41f0 	stmdb	sp!, {r4, r5, r6, r7, r8, lr}
100173c4:	f9b1 300c 	ldrsh.w	r3, [r1, #12]
100173c8:	460c      	mov	r4, r1
100173ca:	0799      	lsls	r1, r3, #30
100173cc:	b096      	sub	sp, #88	@ 0x58
100173ce:	d508      	bpl.n	100173e2 <__smakebuf_r+0x22>
100173d0:	f104 0343 	add.w	r3, r4, #67	@ 0x43
100173d4:	2201      	movs	r2, #1
100173d6:	e9c4 3204 	strd	r3, r2, [r4, #16]
100173da:	6023      	str	r3, [r4, #0]
100173dc:	b016      	add	sp, #88	@ 0x58
100173de:	e8bd 81f0 	ldmia.w	sp!, {r4, r5, r6, r7, r8, pc}
100173e2:	f9b4 100e 	ldrsh.w	r1, [r4, #14]
100173e6:	2900      	cmp	r1, #0
100173e8:	4606      	mov	r6, r0
100173ea:	db26      	blt.n	1001743a <__smakebuf_r+0x7a>
100173ec:	466a      	mov	r2, sp
100173ee:	f7fc fea3 	bl	10014138 <_fstat_r>
100173f2:	2800      	cmp	r0, #0
100173f4:	db1f      	blt.n	10017436 <__smakebuf_r+0x76>
100173f6:	9d01      	ldr	r5, [sp, #4]
100173f8:	f405 4570 	and.w	r5, r5, #61440	@ 0xf000
100173fc:	f5a5 5500 	sub.w	r5, r5, #8192	@ 0x2000
10017400:	fab5 f585 	clz	r5, r5
10017404:	f44f 6880 	mov.w	r8, #1024	@ 0x400
10017408:	096d      	lsrs	r5, r5, #5
1001740a:	f44f 6700 	mov.w	r7, #2048	@ 0x800
1001740e:	4641      	mov	r1, r8
10017410:	4630      	mov	r0, r6
10017412:	f7f8 fd67 	bl	1000fee4 <_malloc_r>
10017416:	b1e8      	cbz	r0, 10017454 <__smakebuf_r+0x94>
10017418:	f9b4 300c 	ldrsh.w	r3, [r4, #12]
1001741c:	f8c4 8014 	str.w	r8, [r4, #20]
10017420:	f043 0380 	orr.w	r3, r3, #128	@ 0x80
10017424:	6020      	str	r0, [r4, #0]
10017426:	6120      	str	r0, [r4, #16]
10017428:	81a3      	strh	r3, [r4, #12]
1001742a:	bb3d      	cbnz	r5, 1001747c <__smakebuf_r+0xbc>
1001742c:	433b      	orrs	r3, r7
1001742e:	81a3      	strh	r3, [r4, #12]
10017430:	b016      	add	sp, #88	@ 0x58
10017432:	e8bd 81f0 	ldmia.w	sp!, {r4, r5, r6, r7, r8, pc}
10017436:	f9b4 300c 	ldrsh.w	r3, [r4, #12]
1001743a:	f013 0580 	ands.w	r5, r3, #128	@ 0x80
1001743e:	d019      	beq.n	10017474 <__smakebuf_r+0xb4>
10017440:	f04f 0840 	mov.w	r8, #64	@ 0x40
10017444:	2500      	movs	r5, #0
10017446:	4641      	mov	r1, r8
10017448:	4630      	mov	r0, r6
1001744a:	462f      	mov	r7, r5
1001744c:	f7f8 fd4a 	bl	1000fee4 <_malloc_r>
10017450:	2800      	cmp	r0, #0
10017452:	d1e1      	bne.n	10017418 <__smakebuf_r+0x58>
10017454:	f9b4 300c 	ldrsh.w	r3, [r4, #12]
10017458:	059a      	lsls	r2, r3, #22
1001745a:	d4bf      	bmi.n	100173dc <__smakebuf_r+0x1c>
1001745c:	f023 0303 	bic.w	r3, r3, #3
10017460:	f104 0243 	add.w	r2, r4, #67	@ 0x43
10017464:	f043 0302 	orr.w	r3, r3, #2
10017468:	2101      	movs	r1, #1
1001746a:	e9c4 2104 	strd	r2, r1, [r4, #16]
1001746e:	81a3      	strh	r3, [r4, #12]
10017470:	6022      	str	r2, [r4, #0]
10017472:	e7b3      	b.n	100173dc <__smakebuf_r+0x1c>
10017474:	f44f 6880 	mov.w	r8, #1024	@ 0x400
10017478:	462f      	mov	r7, r5
1001747a:	e7c8      	b.n	1001740e <__smakebuf_r+0x4e>
1001747c:	f9b4 100e 	ldrsh.w	r1, [r4, #14]
10017480:	4630      	mov	r0, r6
10017482:	f000 fc83 	bl	10017d8c <_isatty_r>
10017486:	b910      	cbnz	r0, 1001748e <__smakebuf_r+0xce>
10017488:	f9b4 300c 	ldrsh.w	r3, [r4, #12]
1001748c:	e7ce      	b.n	1001742c <__smakebuf_r+0x6c>
1001748e:	89a3      	ldrh	r3, [r4, #12]
10017490:	f023 0303 	bic.w	r3, r3, #3
10017494:	f043 0301 	orr.w	r3, r3, #1
10017498:	b21b      	sxth	r3, r3
1001749a:	e7c7      	b.n	1001742c <__smakebuf_r+0x6c>

1001749c <_Balloc>:
1001749c:	6c43      	ldr	r3, [r0, #68]	@ 0x44
1001749e:	b570      	push	{r4, r5, r6, lr}
100174a0:	4605      	mov	r5, r0
100174a2:	460c      	mov	r4, r1
100174a4:	b14b      	cbz	r3, 100174ba <_Balloc+0x1e>
100174a6:	f853 0024 	ldr.w	r0, [r3, r4, lsl #2]
100174aa:	b180      	cbz	r0, 100174ce <_Balloc+0x32>
100174ac:	6802      	ldr	r2, [r0, #0]
100174ae:	f843 2024 	str.w	r2, [r3, r4, lsl #2]
100174b2:	2300      	movs	r3, #0
100174b4:	60c3      	str	r3, [r0, #12]
100174b6:	6103      	str	r3, [r0, #16]
100174b8:	bd70      	pop	{r4, r5, r6, pc}
100174ba:	2221      	movs	r2, #33	@ 0x21
100174bc:	2104      	movs	r1, #4
100174be:	f000 fdbd 	bl	1001803c <_calloc_r>
100174c2:	4603      	mov	r3, r0
100174c4:	6468      	str	r0, [r5, #68]	@ 0x44
100174c6:	2800      	cmp	r0, #0
100174c8:	d1ed      	bne.n	100174a6 <_Balloc+0xa>
100174ca:	2000      	movs	r0, #0
100174cc:	bd70      	pop	{r4, r5, r6, pc}
100174ce:	2101      	movs	r1, #1
100174d0:	fa01 f604 	lsl.w	r6, r1, r4
100174d4:	1d72      	adds	r2, r6, #5
100174d6:	0092      	lsls	r2, r2, #2
100174d8:	4628      	mov	r0, r5
100174da:	f000 fdaf 	bl	1001803c <_calloc_r>
100174de:	2800      	cmp	r0, #0
100174e0:	d0f3      	beq.n	100174ca <_Balloc+0x2e>
100174e2:	e9c0 4601 	strd	r4, r6, [r0, #4]
100174e6:	e7e4      	b.n	100174b2 <_Balloc+0x16>

100174e8 <_Bfree>:
100174e8:	b131      	cbz	r1, 100174f8 <_Bfree+0x10>
100174ea:	6c43      	ldr	r3, [r0, #68]	@ 0x44
100174ec:	684a      	ldr	r2, [r1, #4]
100174ee:	f853 0022 	ldr.w	r0, [r3, r2, lsl #2]
100174f2:	6008      	str	r0, [r1, #0]
100174f4:	f843 1022 	str.w	r1, [r3, r2, lsl #2]
100174f8:	4770      	bx	lr
100174fa:	bf00      	nop

100174fc <__multadd>:
100174fc:	e92d 41f0 	stmdb	sp!, {r4, r5, r6, r7, r8, lr}
10017500:	690d      	ldr	r5, [r1, #16]
10017502:	4607      	mov	r7, r0
10017504:	460e      	mov	r6, r1
10017506:	461c      	mov	r4, r3
10017508:	f101 0e14 	add.w	lr, r1, #20
1001750c:	2000      	movs	r0, #0
1001750e:	f8de 1000 	ldr.w	r1, [lr]
10017512:	b28b      	uxth	r3, r1
10017514:	fb02 4303 	mla	r3, r2, r3, r4
10017518:	ea4f 4c13 	mov.w	ip, r3, lsr #16
1001751c:	0c09      	lsrs	r1, r1, #16
1001751e:	fb02 cc01 	mla	ip, r2, r1, ip
10017522:	3001      	adds	r0, #1
10017524:	b29b      	uxth	r3, r3
10017526:	eb03 430c 	add.w	r3, r3, ip, lsl #16
1001752a:	4285      	cmp	r5, r0
1001752c:	f84e 3b04 	str.w	r3, [lr], #4
10017530:	ea4f 441c 	mov.w	r4, ip, lsr #16
10017534:	dceb      	bgt.n	1001750e <__multadd+0x12>
10017536:	b13c      	cbz	r4, 10017548 <__multadd+0x4c>
10017538:	68b3      	ldr	r3, [r6, #8]
1001753a:	42ab      	cmp	r3, r5
1001753c:	dd07      	ble.n	1001754e <__multadd+0x52>
1001753e:	eb06 0385 	add.w	r3, r6, r5, lsl #2
10017542:	3501      	adds	r5, #1
10017544:	615c      	str	r4, [r3, #20]
10017546:	6135      	str	r5, [r6, #16]
10017548:	4630      	mov	r0, r6
1001754a:	e8bd 81f0 	ldmia.w	sp!, {r4, r5, r6, r7, r8, pc}
1001754e:	6871      	ldr	r1, [r6, #4]
10017550:	4638      	mov	r0, r7
10017552:	3101      	adds	r1, #1
10017554:	f7ff ffa2 	bl	1001749c <_Balloc>
10017558:	4680      	mov	r8, r0
1001755a:	b1a8      	cbz	r0, 10017588 <__multadd+0x8c>
1001755c:	6932      	ldr	r2, [r6, #16]
1001755e:	3202      	adds	r2, #2
10017560:	f106 010c 	add.w	r1, r6, #12
10017564:	0092      	lsls	r2, r2, #2
10017566:	300c      	adds	r0, #12
10017568:	f7fc fea2 	bl	100142b0 <memcpy>
1001756c:	6c7b      	ldr	r3, [r7, #68]	@ 0x44
1001756e:	6872      	ldr	r2, [r6, #4]
10017570:	f853 1022 	ldr.w	r1, [r3, r2, lsl #2]
10017574:	6031      	str	r1, [r6, #0]
10017576:	f843 6022 	str.w	r6, [r3, r2, lsl #2]
1001757a:	4646      	mov	r6, r8
1001757c:	eb06 0385 	add.w	r3, r6, r5, lsl #2
10017580:	3501      	adds	r5, #1
10017582:	615c      	str	r4, [r3, #20]
10017584:	6135      	str	r5, [r6, #16]
10017586:	e7df      	b.n	10017548 <__multadd+0x4c>
10017588:	4b02      	ldr	r3, [pc, #8]	@ (10017594 <__multadd+0x98>)
1001758a:	4803      	ldr	r0, [pc, #12]	@ (10017598 <__multadd+0x9c>)
1001758c:	4642      	mov	r2, r8
1001758e:	21ba      	movs	r1, #186	@ 0xba
10017590:	f000 fd34 	bl	10017ffc <__assert_func>
10017594:	10019444 	.word	0x10019444
10017598:	100194dc 	.word	0x100194dc

1001759c <__hi0bits>:
1001759c:	f5b0 3f80 	cmp.w	r0, #65536	@ 0x10000
100175a0:	4603      	mov	r3, r0
100175a2:	bf36      	itet	cc
100175a4:	0403      	lslcc	r3, r0, #16
100175a6:	2000      	movcs	r0, #0
100175a8:	2010      	movcc	r0, #16
100175aa:	f1b3 7f80 	cmp.w	r3, #16777216	@ 0x1000000
100175ae:	bf3c      	itt	cc
100175b0:	021b      	lslcc	r3, r3, #8
100175b2:	3008      	addcc	r0, #8
100175b4:	f1b3 5f80 	cmp.w	r3, #268435456	@ 0x10000000
100175b8:	bf3c      	itt	cc
100175ba:	011b      	lslcc	r3, r3, #4
100175bc:	3004      	addcc	r0, #4
100175be:	f1b3 4f80 	cmp.w	r3, #1073741824	@ 0x40000000
100175c2:	d303      	bcc.n	100175cc <__hi0bits+0x30>
100175c4:	2b00      	cmp	r3, #0
100175c6:	db06      	blt.n	100175d6 <__hi0bits+0x3a>
100175c8:	3001      	adds	r0, #1
100175ca:	4770      	bx	lr
100175cc:	009b      	lsls	r3, r3, #2
100175ce:	d403      	bmi.n	100175d8 <__hi0bits+0x3c>
100175d0:	005b      	lsls	r3, r3, #1
100175d2:	d403      	bmi.n	100175dc <__hi0bits+0x40>
100175d4:	2020      	movs	r0, #32
100175d6:	4770      	bx	lr
100175d8:	3002      	adds	r0, #2
100175da:	4770      	bx	lr
100175dc:	3003      	adds	r0, #3
100175de:	4770      	bx	lr

100175e0 <__lo0bits>:
100175e0:	6803      	ldr	r3, [r0, #0]
100175e2:	f013 0207 	ands.w	r2, r3, #7
100175e6:	4601      	mov	r1, r0
100175e8:	d007      	beq.n	100175fa <__lo0bits+0x1a>
100175ea:	07da      	lsls	r2, r3, #31
100175ec:	d41f      	bmi.n	1001762e <__lo0bits+0x4e>
100175ee:	0798      	lsls	r0, r3, #30
100175f0:	d521      	bpl.n	10017636 <__lo0bits+0x56>
100175f2:	085b      	lsrs	r3, r3, #1
100175f4:	600b      	str	r3, [r1, #0]
100175f6:	2001      	movs	r0, #1
100175f8:	4770      	bx	lr
100175fa:	b298      	uxth	r0, r3
100175fc:	b1a0      	cbz	r0, 10017628 <__lo0bits+0x48>
100175fe:	4610      	mov	r0, r2
10017600:	b2da      	uxtb	r2, r3
10017602:	b90a      	cbnz	r2, 10017608 <__lo0bits+0x28>
10017604:	3008      	adds	r0, #8
10017606:	0a1b      	lsrs	r3, r3, #8
10017608:	071a      	lsls	r2, r3, #28
1001760a:	bf04      	itt	eq
1001760c:	091b      	lsreq	r3, r3, #4
1001760e:	3004      	addeq	r0, #4
10017610:	079a      	lsls	r2, r3, #30
10017612:	bf04      	itt	eq
10017614:	089b      	lsreq	r3, r3, #2
10017616:	3002      	addeq	r0, #2
10017618:	07da      	lsls	r2, r3, #31
1001761a:	d403      	bmi.n	10017624 <__lo0bits+0x44>
1001761c:	085b      	lsrs	r3, r3, #1
1001761e:	f100 0001 	add.w	r0, r0, #1
10017622:	d006      	beq.n	10017632 <__lo0bits+0x52>
10017624:	600b      	str	r3, [r1, #0]
10017626:	4770      	bx	lr
10017628:	0c1b      	lsrs	r3, r3, #16
1001762a:	2010      	movs	r0, #16
1001762c:	e7e8      	b.n	10017600 <__lo0bits+0x20>
1001762e:	2000      	movs	r0, #0
10017630:	4770      	bx	lr
10017632:	2020      	movs	r0, #32
10017634:	4770      	bx	lr
10017636:	089b      	lsrs	r3, r3, #2
10017638:	600b      	str	r3, [r1, #0]
1001763a:	2002      	movs	r0, #2
1001763c:	4770      	bx	lr
1001763e:	bf00      	nop

10017640 <__i2b>:
10017640:	b538      	push	{r3, r4, r5, lr}
10017642:	6c43      	ldr	r3, [r0, #68]	@ 0x44
10017644:	4604      	mov	r4, r0
10017646:	460d      	mov	r5, r1
10017648:	b14b      	cbz	r3, 1001765e <__i2b+0x1e>
1001764a:	6858      	ldr	r0, [r3, #4]
1001764c:	b1b0      	cbz	r0, 1001767c <__i2b+0x3c>
1001764e:	6802      	ldr	r2, [r0, #0]
10017650:	605a      	str	r2, [r3, #4]
10017652:	2200      	movs	r2, #0
10017654:	2301      	movs	r3, #1
10017656:	6145      	str	r5, [r0, #20]
10017658:	60c2      	str	r2, [r0, #12]
1001765a:	6103      	str	r3, [r0, #16]
1001765c:	bd38      	pop	{r3, r4, r5, pc}
1001765e:	2221      	movs	r2, #33	@ 0x21
10017660:	2104      	movs	r1, #4
10017662:	f000 fceb 	bl	1001803c <_calloc_r>
10017666:	4603      	mov	r3, r0
10017668:	6460      	str	r0, [r4, #68]	@ 0x44
1001766a:	2800      	cmp	r0, #0
1001766c:	d1ed      	bne.n	1001764a <__i2b+0xa>
1001766e:	4b09      	ldr	r3, [pc, #36]	@ (10017694 <__i2b+0x54>)
10017670:	4809      	ldr	r0, [pc, #36]	@ (10017698 <__i2b+0x58>)
10017672:	2200      	movs	r2, #0
10017674:	f240 1145 	movw	r1, #325	@ 0x145
10017678:	f000 fcc0 	bl	10017ffc <__assert_func>
1001767c:	221c      	movs	r2, #28
1001767e:	2101      	movs	r1, #1
10017680:	4620      	mov	r0, r4
10017682:	f000 fcdb 	bl	1001803c <_calloc_r>
10017686:	2800      	cmp	r0, #0
10017688:	d0f1      	beq.n	1001766e <__i2b+0x2e>
1001768a:	2201      	movs	r2, #1
1001768c:	2302      	movs	r3, #2
1001768e:	6042      	str	r2, [r0, #4]
10017690:	6083      	str	r3, [r0, #8]
10017692:	e7de      	b.n	10017652 <__i2b+0x12>
10017694:	10019444 	.word	0x10019444
10017698:	100194dc 	.word	0x100194dc

1001769c <__multiply>:
1001769c:	e92d 4ff0 	stmdb	sp!, {r4, r5, r6, r7, r8, r9, sl, fp, lr}
100176a0:	f8d1 8010 	ldr.w	r8, [r1, #16]
100176a4:	6915      	ldr	r5, [r2, #16]
100176a6:	45a8      	cmp	r8, r5
100176a8:	b085      	sub	sp, #20
100176aa:	460e      	mov	r6, r1
100176ac:	4692      	mov	sl, r2
100176ae:	db05      	blt.n	100176bc <__multiply+0x20>
100176b0:	462a      	mov	r2, r5
100176b2:	4653      	mov	r3, sl
100176b4:	4645      	mov	r5, r8
100176b6:	468a      	mov	sl, r1
100176b8:	4690      	mov	r8, r2
100176ba:	461e      	mov	r6, r3
100176bc:	f8da 3008 	ldr.w	r3, [sl, #8]
100176c0:	f8da 1004 	ldr.w	r1, [sl, #4]
100176c4:	eb05 0408 	add.w	r4, r5, r8
100176c8:	42a3      	cmp	r3, r4
100176ca:	bfb8      	it	lt
100176cc:	3101      	addlt	r1, #1
100176ce:	f7ff fee5 	bl	1001749c <_Balloc>
100176d2:	4684      	mov	ip, r0
100176d4:	2800      	cmp	r0, #0
100176d6:	f000 808b 	beq.w	100177f0 <__multiply+0x154>
100176da:	f100 0714 	add.w	r7, r0, #20
100176de:	eb07 0e84 	add.w	lr, r7, r4, lsl #2
100176e2:	4577      	cmp	r7, lr
100176e4:	d205      	bcs.n	100176f2 <__multiply+0x56>
100176e6:	463b      	mov	r3, r7
100176e8:	2200      	movs	r2, #0
100176ea:	f843 2b04 	str.w	r2, [r3], #4
100176ee:	459e      	cmp	lr, r3
100176f0:	d8fb      	bhi.n	100176ea <__multiply+0x4e>
100176f2:	3614      	adds	r6, #20
100176f4:	eb06 0888 	add.w	r8, r6, r8, lsl #2
100176f8:	f10a 0914 	add.w	r9, sl, #20
100176fc:	4546      	cmp	r6, r8
100176fe:	eb09 0585 	add.w	r5, r9, r5, lsl #2
10017702:	d266      	bcs.n	100177d2 <__multiply+0x136>
10017704:	eba5 030a 	sub.w	r3, r5, sl
10017708:	3b15      	subs	r3, #21
1001770a:	f023 0303 	bic.w	r3, r3, #3
1001770e:	f10a 0a15 	add.w	sl, sl, #21
10017712:	3304      	adds	r3, #4
10017714:	4555      	cmp	r5, sl
10017716:	bf2c      	ite	cs
10017718:	469b      	movcs	fp, r3
1001771a:	f04f 0b04 	movcc.w	fp, #4
1001771e:	f8cd e008 	str.w	lr, [sp, #8]
10017722:	9403      	str	r4, [sp, #12]
10017724:	46ae      	mov	lr, r5
10017726:	46e2      	mov	sl, ip
10017728:	e005      	b.n	10017736 <__multiply+0x9a>
1001772a:	0c09      	lsrs	r1, r1, #16
1001772c:	d12a      	bne.n	10017784 <__multiply+0xe8>
1001772e:	45b0      	cmp	r8, r6
10017730:	f107 0704 	add.w	r7, r7, #4
10017734:	d94a      	bls.n	100177cc <__multiply+0x130>
10017736:	f856 1b04 	ldr.w	r1, [r6], #4
1001773a:	b28d      	uxth	r5, r1
1001773c:	2d00      	cmp	r5, #0
1001773e:	d0f4      	beq.n	1001772a <__multiply+0x8e>
10017740:	46cc      	mov	ip, r9
10017742:	463c      	mov	r4, r7
10017744:	2300      	movs	r3, #0
10017746:	9601      	str	r6, [sp, #4]
10017748:	f85c 0b04 	ldr.w	r0, [ip], #4
1001774c:	6821      	ldr	r1, [r4, #0]
1001774e:	b286      	uxth	r6, r0
10017750:	b28a      	uxth	r2, r1
10017752:	0c00      	lsrs	r0, r0, #16
10017754:	fb05 2206 	mla	r2, r5, r6, r2
10017758:	0c09      	lsrs	r1, r1, #16
1001775a:	441a      	add	r2, r3
1001775c:	fb05 1100 	mla	r1, r5, r0, r1
10017760:	eb01 4112 	add.w	r1, r1, r2, lsr #16
10017764:	b292      	uxth	r2, r2
10017766:	ea42 4201 	orr.w	r2, r2, r1, lsl #16
1001776a:	45e6      	cmp	lr, ip
1001776c:	f844 2b04 	str.w	r2, [r4], #4
10017770:	ea4f 4311 	mov.w	r3, r1, lsr #16
10017774:	d8e8      	bhi.n	10017748 <__multiply+0xac>
10017776:	9e01      	ldr	r6, [sp, #4]
10017778:	f847 300b 	str.w	r3, [r7, fp]
1001777c:	f856 1c04 	ldr.w	r1, [r6, #-4]
10017780:	0c09      	lsrs	r1, r1, #16
10017782:	d0d4      	beq.n	1001772e <__multiply+0x92>
10017784:	683b      	ldr	r3, [r7, #0]
10017786:	2200      	movs	r2, #0
10017788:	4648      	mov	r0, r9
1001778a:	461d      	mov	r5, r3
1001778c:	463c      	mov	r4, r7
1001778e:	4694      	mov	ip, r2
10017790:	8802      	ldrh	r2, [r0, #0]
10017792:	fb01 c202 	mla	r2, r1, r2, ip
10017796:	eb02 4215 	add.w	r2, r2, r5, lsr #16
1001779a:	b29b      	uxth	r3, r3
1001779c:	ea43 4302 	orr.w	r3, r3, r2, lsl #16
100177a0:	f844 3b04 	str.w	r3, [r4], #4
100177a4:	f850 3b04 	ldr.w	r3, [r0], #4
100177a8:	6825      	ldr	r5, [r4, #0]
100177aa:	ea4f 4c13 	mov.w	ip, r3, lsr #16
100177ae:	b2ab      	uxth	r3, r5
100177b0:	fb01 330c 	mla	r3, r1, ip, r3
100177b4:	eb03 4312 	add.w	r3, r3, r2, lsr #16
100177b8:	4586      	cmp	lr, r0
100177ba:	ea4f 4c13 	mov.w	ip, r3, lsr #16
100177be:	d8e7      	bhi.n	10017790 <__multiply+0xf4>
100177c0:	45b0      	cmp	r8, r6
100177c2:	f847 300b 	str.w	r3, [r7, fp]
100177c6:	f107 0704 	add.w	r7, r7, #4
100177ca:	d8b4      	bhi.n	10017736 <__multiply+0x9a>
100177cc:	e9dd e402 	ldrd	lr, r4, [sp, #8]
100177d0:	46d4      	mov	ip, sl
100177d2:	2c00      	cmp	r4, #0
100177d4:	dc02      	bgt.n	100177dc <__multiply+0x140>
100177d6:	e005      	b.n	100177e4 <__multiply+0x148>
100177d8:	3c01      	subs	r4, #1
100177da:	d003      	beq.n	100177e4 <__multiply+0x148>
100177dc:	f85e 3d04 	ldr.w	r3, [lr, #-4]!
100177e0:	2b00      	cmp	r3, #0
100177e2:	d0f9      	beq.n	100177d8 <__multiply+0x13c>
100177e4:	4660      	mov	r0, ip
100177e6:	f8cc 4010 	str.w	r4, [ip, #16]
100177ea:	b005      	add	sp, #20
100177ec:	e8bd 8ff0 	ldmia.w	sp!, {r4, r5, r6, r7, r8, r9, sl, fp, pc}
100177f0:	4b03      	ldr	r3, [pc, #12]	@ (10017800 <__multiply+0x164>)
100177f2:	4804      	ldr	r0, [pc, #16]	@ (10017804 <__multiply+0x168>)
100177f4:	4662      	mov	r2, ip
100177f6:	f44f 71b1 	mov.w	r1, #354	@ 0x162
100177fa:	f000 fbff 	bl	10017ffc <__assert_func>
100177fe:	bf00      	nop
10017800:	10019444 	.word	0x10019444
10017804:	100194dc 	.word	0x100194dc

10017808 <__pow5mult>:
10017808:	f012 0303 	ands.w	r3, r2, #3
1001780c:	e92d 41f0 	stmdb	sp!, {r4, r5, r6, r7, r8, lr}
10017810:	4614      	mov	r4, r2
10017812:	4607      	mov	r7, r0
10017814:	d12c      	bne.n	10017870 <__pow5mult+0x68>
10017816:	460d      	mov	r5, r1
10017818:	10a4      	asrs	r4, r4, #2
1001781a:	d01c      	beq.n	10017856 <__pow5mult+0x4e>
1001781c:	6c3e      	ldr	r6, [r7, #64]	@ 0x40
1001781e:	b386      	cbz	r6, 10017882 <__pow5mult+0x7a>
10017820:	07e3      	lsls	r3, r4, #31
10017822:	f04f 0800 	mov.w	r8, #0
10017826:	d406      	bmi.n	10017836 <__pow5mult+0x2e>
10017828:	1064      	asrs	r4, r4, #1
1001782a:	d014      	beq.n	10017856 <__pow5mult+0x4e>
1001782c:	6830      	ldr	r0, [r6, #0]
1001782e:	b1a8      	cbz	r0, 1001785c <__pow5mult+0x54>
10017830:	4606      	mov	r6, r0
10017832:	07e3      	lsls	r3, r4, #31
10017834:	d5f8      	bpl.n	10017828 <__pow5mult+0x20>
10017836:	4632      	mov	r2, r6
10017838:	4629      	mov	r1, r5
1001783a:	4638      	mov	r0, r7
1001783c:	f7ff ff2e 	bl	1001769c <__multiply>
10017840:	b135      	cbz	r5, 10017850 <__pow5mult+0x48>
10017842:	6c7b      	ldr	r3, [r7, #68]	@ 0x44
10017844:	6869      	ldr	r1, [r5, #4]
10017846:	f853 2021 	ldr.w	r2, [r3, r1, lsl #2]
1001784a:	602a      	str	r2, [r5, #0]
1001784c:	f843 5021 	str.w	r5, [r3, r1, lsl #2]
10017850:	1064      	asrs	r4, r4, #1
10017852:	4605      	mov	r5, r0
10017854:	d1ea      	bne.n	1001782c <__pow5mult+0x24>
10017856:	4628      	mov	r0, r5
10017858:	e8bd 81f0 	ldmia.w	sp!, {r4, r5, r6, r7, r8, pc}
1001785c:	4632      	mov	r2, r6
1001785e:	4631      	mov	r1, r6
10017860:	4638      	mov	r0, r7
10017862:	f7ff ff1b 	bl	1001769c <__multiply>
10017866:	6030      	str	r0, [r6, #0]
10017868:	f8c0 8000 	str.w	r8, [r0]
1001786c:	4606      	mov	r6, r0
1001786e:	e7e0      	b.n	10017832 <__pow5mult+0x2a>
10017870:	3b01      	subs	r3, #1
10017872:	4a0f      	ldr	r2, [pc, #60]	@ (100178b0 <__pow5mult+0xa8>)
10017874:	f852 2023 	ldr.w	r2, [r2, r3, lsl #2]
10017878:	2300      	movs	r3, #0
1001787a:	f7ff fe3f 	bl	100174fc <__multadd>
1001787e:	4605      	mov	r5, r0
10017880:	e7ca      	b.n	10017818 <__pow5mult+0x10>
10017882:	2101      	movs	r1, #1
10017884:	4638      	mov	r0, r7
10017886:	f7ff fe09 	bl	1001749c <_Balloc>
1001788a:	4606      	mov	r6, r0
1001788c:	b140      	cbz	r0, 100178a0 <__pow5mult+0x98>
1001788e:	2301      	movs	r3, #1
10017890:	f240 2271 	movw	r2, #625	@ 0x271
10017894:	e9c0 3204 	strd	r3, r2, [r0, #16]
10017898:	2300      	movs	r3, #0
1001789a:	6438      	str	r0, [r7, #64]	@ 0x40
1001789c:	6003      	str	r3, [r0, #0]
1001789e:	e7bf      	b.n	10017820 <__pow5mult+0x18>
100178a0:	4b04      	ldr	r3, [pc, #16]	@ (100178b4 <__pow5mult+0xac>)
100178a2:	4805      	ldr	r0, [pc, #20]	@ (100178b8 <__pow5mult+0xb0>)
100178a4:	4632      	mov	r2, r6
100178a6:	f240 1145 	movw	r1, #325	@ 0x145
100178aa:	f000 fba7 	bl	10017ffc <__assert_func>
100178ae:	bf00      	nop
100178b0:	10019540 	.word	0x10019540
100178b4:	10019444 	.word	0x10019444
100178b8:	100194dc 	.word	0x100194dc

100178bc <__lshift>:
100178bc:	e92d 47f0 	stmdb	sp!, {r4, r5, r6, r7, r8, r9, sl, lr}
100178c0:	460c      	mov	r4, r1
100178c2:	4690      	mov	r8, r2
100178c4:	6927      	ldr	r7, [r4, #16]
100178c6:	68a3      	ldr	r3, [r4, #8]
100178c8:	6849      	ldr	r1, [r1, #4]
100178ca:	eb07 1762 	add.w	r7, r7, r2, asr #5
100178ce:	1c7d      	adds	r5, r7, #1
100178d0:	429d      	cmp	r5, r3
100178d2:	4606      	mov	r6, r0
100178d4:	ea4f 1962 	mov.w	r9, r2, asr #5
100178d8:	dd04      	ble.n	100178e4 <__lshift+0x28>
100178da:	005b      	lsls	r3, r3, #1
100178dc:	429d      	cmp	r5, r3
100178de:	f101 0101 	add.w	r1, r1, #1
100178e2:	dcfa      	bgt.n	100178da <__lshift+0x1e>
100178e4:	4630      	mov	r0, r6
100178e6:	f7ff fdd9 	bl	1001749c <_Balloc>
100178ea:	4684      	mov	ip, r0
100178ec:	2800      	cmp	r0, #0
100178ee:	d051      	beq.n	10017994 <__lshift+0xd8>
100178f0:	f1b9 0f00 	cmp.w	r9, #0
100178f4:	f100 0014 	add.w	r0, r0, #20
100178f8:	dd0e      	ble.n	10017918 <__lshift+0x5c>
100178fa:	f109 0205 	add.w	r2, r9, #5
100178fe:	ea4f 0e82 	mov.w	lr, r2, lsl #2
10017902:	4603      	mov	r3, r0
10017904:	eb0c 0282 	add.w	r2, ip, r2, lsl #2
10017908:	2100      	movs	r1, #0
1001790a:	f843 1b04 	str.w	r1, [r3], #4
1001790e:	4293      	cmp	r3, r2
10017910:	d1fb      	bne.n	1001790a <__lshift+0x4e>
10017912:	f1ae 0314 	sub.w	r3, lr, #20
10017916:	4418      	add	r0, r3
10017918:	6921      	ldr	r1, [r4, #16]
1001791a:	f104 0314 	add.w	r3, r4, #20
1001791e:	f018 081f 	ands.w	r8, r8, #31
10017922:	eb03 0181 	add.w	r1, r3, r1, lsl #2
10017926:	d02d      	beq.n	10017984 <__lshift+0xc8>
10017928:	f1c8 0920 	rsb	r9, r8, #32
1001792c:	4686      	mov	lr, r0
1001792e:	f04f 0a00 	mov.w	sl, #0
10017932:	681a      	ldr	r2, [r3, #0]
10017934:	fa02 f208 	lsl.w	r2, r2, r8
10017938:	ea42 020a 	orr.w	r2, r2, sl
1001793c:	f84e 2b04 	str.w	r2, [lr], #4
10017940:	f853 2b04 	ldr.w	r2, [r3], #4
10017944:	4299      	cmp	r1, r3
10017946:	fa22 fa09 	lsr.w	sl, r2, r9
1001794a:	d8f2      	bhi.n	10017932 <__lshift+0x76>
1001794c:	1b0b      	subs	r3, r1, r4
1001794e:	3b15      	subs	r3, #21
10017950:	f023 0303 	bic.w	r3, r3, #3
10017954:	3304      	adds	r3, #4
10017956:	f104 0215 	add.w	r2, r4, #21
1001795a:	4291      	cmp	r1, r2
1001795c:	bf38      	it	cc
1001795e:	2304      	movcc	r3, #4
10017960:	f840 a003 	str.w	sl, [r0, r3]
10017964:	f1ba 0f00 	cmp.w	sl, #0
10017968:	d100      	bne.n	1001796c <__lshift+0xb0>
1001796a:	463d      	mov	r5, r7
1001796c:	6c73      	ldr	r3, [r6, #68]	@ 0x44
1001796e:	6862      	ldr	r2, [r4, #4]
10017970:	f8cc 5010 	str.w	r5, [ip, #16]
10017974:	f853 1022 	ldr.w	r1, [r3, r2, lsl #2]
10017978:	6021      	str	r1, [r4, #0]
1001797a:	4660      	mov	r0, ip
1001797c:	f843 4022 	str.w	r4, [r3, r2, lsl #2]
10017980:	e8bd 87f0 	ldmia.w	sp!, {r4, r5, r6, r7, r8, r9, sl, pc}
10017984:	3804      	subs	r0, #4
10017986:	f853 2b04 	ldr.w	r2, [r3], #4
1001798a:	f840 2f04 	str.w	r2, [r0, #4]!
1001798e:	4299      	cmp	r1, r3
10017990:	d8f9      	bhi.n	10017986 <__lshift+0xca>
10017992:	e7ea      	b.n	1001796a <__lshift+0xae>
10017994:	4b03      	ldr	r3, [pc, #12]	@ (100179a4 <__lshift+0xe8>)
10017996:	4804      	ldr	r0, [pc, #16]	@ (100179a8 <__lshift+0xec>)
10017998:	4662      	mov	r2, ip
1001799a:	f44f 71ef 	mov.w	r1, #478	@ 0x1de
1001799e:	f000 fb2d 	bl	10017ffc <__assert_func>
100179a2:	bf00      	nop
100179a4:	10019444 	.word	0x10019444
100179a8:	100194dc 	.word	0x100194dc

100179ac <__mcmp>:
100179ac:	690b      	ldr	r3, [r1, #16]
100179ae:	4684      	mov	ip, r0
100179b0:	6900      	ldr	r0, [r0, #16]
100179b2:	1ac0      	subs	r0, r0, r3
100179b4:	d116      	bne.n	100179e4 <__mcmp+0x38>
100179b6:	f10c 0c14 	add.w	ip, ip, #20
100179ba:	3114      	adds	r1, #20
100179bc:	eb0c 0283 	add.w	r2, ip, r3, lsl #2
100179c0:	b410      	push	{r4}
100179c2:	eb01 0383 	add.w	r3, r1, r3, lsl #2
100179c6:	e001      	b.n	100179cc <__mcmp+0x20>
100179c8:	4594      	cmp	ip, r2
100179ca:	d208      	bcs.n	100179de <__mcmp+0x32>
100179cc:	f852 4d04 	ldr.w	r4, [r2, #-4]!
100179d0:	f853 1d04 	ldr.w	r1, [r3, #-4]!
100179d4:	428c      	cmp	r4, r1
100179d6:	d0f7      	beq.n	100179c8 <__mcmp+0x1c>
100179d8:	d205      	bcs.n	100179e6 <__mcmp+0x3a>
100179da:	f04f 30ff 	mov.w	r0, #4294967295	@ 0xffffffff
100179de:	f85d 4b04 	ldr.w	r4, [sp], #4
100179e2:	4770      	bx	lr
100179e4:	4770      	bx	lr
100179e6:	2001      	movs	r0, #1
100179e8:	f85d 4b04 	ldr.w	r4, [sp], #4
100179ec:	4770      	bx	lr
100179ee:	bf00      	nop

100179f0 <__mdiff>:
100179f0:	e92d 4ff0 	stmdb	sp!, {r4, r5, r6, r7, r8, r9, sl, fp, lr}
100179f4:	6913      	ldr	r3, [r2, #16]
100179f6:	690f      	ldr	r7, [r1, #16]
100179f8:	1aff      	subs	r7, r7, r3
100179fa:	2f00      	cmp	r7, #0
100179fc:	b083      	sub	sp, #12
100179fe:	460d      	mov	r5, r1
10017a00:	4690      	mov	r8, r2
10017a02:	d115      	bne.n	10017a30 <__mdiff+0x40>
10017a04:	f101 0614 	add.w	r6, r1, #20
10017a08:	3214      	adds	r2, #20
10017a0a:	eb02 0283 	add.w	r2, r2, r3, lsl #2
10017a0e:	eb06 0383 	add.w	r3, r6, r3, lsl #2
10017a12:	e001      	b.n	10017a18 <__mdiff+0x28>
10017a14:	429e      	cmp	r6, r3
10017a16:	d276      	bcs.n	10017b06 <__mdiff+0x116>
10017a18:	f853 4d04 	ldr.w	r4, [r3, #-4]!
10017a1c:	f852 1d04 	ldr.w	r1, [r2, #-4]!
10017a20:	428c      	cmp	r4, r1
10017a22:	d0f7      	beq.n	10017a14 <__mdiff+0x24>
10017a24:	d206      	bcs.n	10017a34 <__mdiff+0x44>
10017a26:	462b      	mov	r3, r5
10017a28:	2701      	movs	r7, #1
10017a2a:	4645      	mov	r5, r8
10017a2c:	4698      	mov	r8, r3
10017a2e:	e001      	b.n	10017a34 <__mdiff+0x44>
10017a30:	dbf9      	blt.n	10017a26 <__mdiff+0x36>
10017a32:	2700      	movs	r7, #0
10017a34:	6869      	ldr	r1, [r5, #4]
10017a36:	f7ff fd31 	bl	1001749c <_Balloc>
10017a3a:	4681      	mov	r9, r0
10017a3c:	2800      	cmp	r0, #0
10017a3e:	d076      	beq.n	10017b2e <__mdiff+0x13e>
10017a40:	692e      	ldr	r6, [r5, #16]
10017a42:	60c7      	str	r7, [r0, #12]
10017a44:	f8d8 0010 	ldr.w	r0, [r8, #16]
10017a48:	f105 0b14 	add.w	fp, r5, #20
10017a4c:	f108 0e14 	add.w	lr, r8, #20
10017a50:	f109 0a14 	add.w	sl, r9, #20
10017a54:	f105 0110 	add.w	r1, r5, #16
10017a58:	eb0e 0080 	add.w	r0, lr, r0, lsl #2
10017a5c:	eb0b 0286 	add.w	r2, fp, r6, lsl #2
10017a60:	4657      	mov	r7, sl
10017a62:	f04f 0c00 	mov.w	ip, #0
10017a66:	f8cd b004 	str.w	fp, [sp, #4]
10017a6a:	f85e 4b04 	ldr.w	r4, [lr], #4
10017a6e:	f851 5f04 	ldr.w	r5, [r1, #4]!
10017a72:	fa1f fb84 	uxth.w	fp, r4
10017a76:	b2ab      	uxth	r3, r5
10017a78:	eba3 030b 	sub.w	r3, r3, fp
10017a7c:	0c24      	lsrs	r4, r4, #16
10017a7e:	4463      	add	r3, ip
10017a80:	ebc4 4415 	rsb	r4, r4, r5, lsr #16
10017a84:	eb04 4423 	add.w	r4, r4, r3, asr #16
10017a88:	b29b      	uxth	r3, r3
10017a8a:	ea43 4304 	orr.w	r3, r3, r4, lsl #16
10017a8e:	4570      	cmp	r0, lr
10017a90:	f847 3b04 	str.w	r3, [r7], #4
10017a94:	ea4f 4c24 	mov.w	ip, r4, asr #16
10017a98:	d8e7      	bhi.n	10017a6a <__mdiff+0x7a>
10017a9a:	eba0 0108 	sub.w	r1, r0, r8
10017a9e:	3915      	subs	r1, #21
10017aa0:	0889      	lsrs	r1, r1, #2
10017aa2:	1c4c      	adds	r4, r1, #1
10017aa4:	f8dd b004 	ldr.w	fp, [sp, #4]
10017aa8:	f108 0815 	add.w	r8, r8, #21
10017aac:	00a4      	lsls	r4, r4, #2
10017aae:	4540      	cmp	r0, r8
10017ab0:	bf38      	it	cc
10017ab2:	2404      	movcc	r4, #4
10017ab4:	eb0b 0504 	add.w	r5, fp, r4
10017ab8:	42aa      	cmp	r2, r5
10017aba:	4454      	add	r4, sl
10017abc:	d930      	bls.n	10017b20 <__mdiff+0x130>
10017abe:	4627      	mov	r7, r4
10017ac0:	4628      	mov	r0, r5
10017ac2:	f850 3b04 	ldr.w	r3, [r0], #4
10017ac6:	fa1c fe83 	uxtah	lr, ip, r3
10017aca:	0c19      	lsrs	r1, r3, #16
10017acc:	4463      	add	r3, ip
10017ace:	eb01 412e 	add.w	r1, r1, lr, asr #16
10017ad2:	b29b      	uxth	r3, r3
10017ad4:	ea43 4301 	orr.w	r3, r3, r1, lsl #16
10017ad8:	4282      	cmp	r2, r0
10017ada:	f847 3b04 	str.w	r3, [r7], #4
10017ade:	ea4f 4c21 	mov.w	ip, r1, asr #16
10017ae2:	d8ee      	bhi.n	10017ac2 <__mdiff+0xd2>
10017ae4:	3a01      	subs	r2, #1
10017ae6:	1b52      	subs	r2, r2, r5
10017ae8:	f022 0203 	bic.w	r2, r2, #3
10017aec:	4414      	add	r4, r2
10017aee:	b923      	cbnz	r3, 10017afa <__mdiff+0x10a>
10017af0:	f854 3d04 	ldr.w	r3, [r4, #-4]!
10017af4:	3e01      	subs	r6, #1
10017af6:	2b00      	cmp	r3, #0
10017af8:	d0fa      	beq.n	10017af0 <__mdiff+0x100>
10017afa:	4648      	mov	r0, r9
10017afc:	f8c9 6010 	str.w	r6, [r9, #16]
10017b00:	b003      	add	sp, #12
10017b02:	e8bd 8ff0 	ldmia.w	sp!, {r4, r5, r6, r7, r8, r9, sl, fp, pc}
10017b06:	2100      	movs	r1, #0
10017b08:	f7ff fcc8 	bl	1001749c <_Balloc>
10017b0c:	4681      	mov	r9, r0
10017b0e:	b1a8      	cbz	r0, 10017b3c <__mdiff+0x14c>
10017b10:	2201      	movs	r2, #1
10017b12:	2300      	movs	r3, #0
10017b14:	e9c0 2304 	strd	r2, r3, [r0, #16]
10017b18:	4648      	mov	r0, r9
10017b1a:	b003      	add	sp, #12
10017b1c:	e8bd 8ff0 	ldmia.w	sp!, {r4, r5, r6, r7, r8, r9, sl, fp, pc}
10017b20:	0089      	lsls	r1, r1, #2
10017b22:	4540      	cmp	r0, r8
10017b24:	bf38      	it	cc
10017b26:	2100      	movcc	r1, #0
10017b28:	eb0a 0401 	add.w	r4, sl, r1
10017b2c:	e7df      	b.n	10017aee <__mdiff+0xfe>
10017b2e:	4b07      	ldr	r3, [pc, #28]	@ (10017b4c <__mdiff+0x15c>)
10017b30:	4807      	ldr	r0, [pc, #28]	@ (10017b50 <__mdiff+0x160>)
10017b32:	464a      	mov	r2, r9
10017b34:	f240 2145 	movw	r1, #581	@ 0x245
10017b38:	f000 fa60 	bl	10017ffc <__assert_func>
10017b3c:	4b03      	ldr	r3, [pc, #12]	@ (10017b4c <__mdiff+0x15c>)
10017b3e:	4804      	ldr	r0, [pc, #16]	@ (10017b50 <__mdiff+0x160>)
10017b40:	464a      	mov	r2, r9
10017b42:	f240 2137 	movw	r1, #567	@ 0x237
10017b46:	f000 fa59 	bl	10017ffc <__assert_func>
10017b4a:	bf00      	nop
10017b4c:	10019444 	.word	0x10019444
10017b50:	100194dc 	.word	0x100194dc

10017b54 <__d2b>:
10017b54:	b5f0      	push	{r4, r5, r6, r7, lr}
10017b56:	2101      	movs	r1, #1
10017b58:	b083      	sub	sp, #12
10017b5a:	4616      	mov	r6, r2
10017b5c:	461f      	mov	r7, r3
10017b5e:	f7ff fc9d 	bl	1001749c <_Balloc>
10017b62:	4605      	mov	r5, r0
10017b64:	2800      	cmp	r0, #0
10017b66:	d047      	beq.n	10017bf8 <__d2b+0xa4>
10017b68:	f3c7 540a 	ubfx	r4, r7, #20, #11
10017b6c:	f3c7 0313 	ubfx	r3, r7, #0, #20
10017b70:	b10c      	cbz	r4, 10017b76 <__d2b+0x22>
10017b72:	f443 1380 	orr.w	r3, r3, #1048576	@ 0x100000
10017b76:	2e00      	cmp	r6, #0
10017b78:	9301      	str	r3, [sp, #4]
10017b7a:	d114      	bne.n	10017ba6 <__d2b+0x52>
10017b7c:	a801      	add	r0, sp, #4
10017b7e:	f7ff fd2f 	bl	100175e0 <__lo0bits>
10017b82:	9b01      	ldr	r3, [sp, #4]
10017b84:	616b      	str	r3, [r5, #20]
10017b86:	2201      	movs	r2, #1
10017b88:	3020      	adds	r0, #32
10017b8a:	612a      	str	r2, [r5, #16]
10017b8c:	b314      	cbz	r4, 10017bd4 <__d2b+0x80>
10017b8e:	9b08      	ldr	r3, [sp, #32]
10017b90:	f2a4 4433 	subw	r4, r4, #1075	@ 0x433
10017b94:	4404      	add	r4, r0
10017b96:	601c      	str	r4, [r3, #0]
10017b98:	9b09      	ldr	r3, [sp, #36]	@ 0x24
10017b9a:	f1c0 0035 	rsb	r0, r0, #53	@ 0x35
10017b9e:	6018      	str	r0, [r3, #0]
10017ba0:	4628      	mov	r0, r5
10017ba2:	b003      	add	sp, #12
10017ba4:	bdf0      	pop	{r4, r5, r6, r7, pc}
10017ba6:	4668      	mov	r0, sp
10017ba8:	9600      	str	r6, [sp, #0]
10017baa:	f7ff fd19 	bl	100175e0 <__lo0bits>
10017bae:	9b01      	ldr	r3, [sp, #4]
10017bb0:	b300      	cbz	r0, 10017bf4 <__d2b+0xa0>
10017bb2:	9900      	ldr	r1, [sp, #0]
10017bb4:	f1c0 0220 	rsb	r2, r0, #32
10017bb8:	fa03 f202 	lsl.w	r2, r3, r2
10017bbc:	40c3      	lsrs	r3, r0
10017bbe:	9301      	str	r3, [sp, #4]
10017bc0:	430a      	orrs	r2, r1
10017bc2:	2b00      	cmp	r3, #0
10017bc4:	e9c5 2305 	strd	r2, r3, [r5, #20]
10017bc8:	bf0c      	ite	eq
10017bca:	2201      	moveq	r2, #1
10017bcc:	2202      	movne	r2, #2
10017bce:	612a      	str	r2, [r5, #16]
10017bd0:	2c00      	cmp	r4, #0
10017bd2:	d1dc      	bne.n	10017b8e <__d2b+0x3a>
10017bd4:	eb05 0182 	add.w	r1, r5, r2, lsl #2
10017bd8:	f2a0 4332 	subw	r3, r0, #1074	@ 0x432
10017bdc:	6908      	ldr	r0, [r1, #16]
10017bde:	9908      	ldr	r1, [sp, #32]
10017be0:	600b      	str	r3, [r1, #0]
10017be2:	f7ff fcdb 	bl	1001759c <__hi0bits>
10017be6:	9b09      	ldr	r3, [sp, #36]	@ 0x24
10017be8:	ebc0 1042 	rsb	r0, r0, r2, lsl #5
10017bec:	6018      	str	r0, [r3, #0]
10017bee:	4628      	mov	r0, r5
10017bf0:	b003      	add	sp, #12
10017bf2:	bdf0      	pop	{r4, r5, r6, r7, pc}
10017bf4:	9a00      	ldr	r2, [sp, #0]
10017bf6:	e7e4      	b.n	10017bc2 <__d2b+0x6e>
10017bf8:	4b03      	ldr	r3, [pc, #12]	@ (10017c08 <__d2b+0xb4>)
10017bfa:	4804      	ldr	r0, [pc, #16]	@ (10017c0c <__d2b+0xb8>)
10017bfc:	462a      	mov	r2, r5
10017bfe:	f240 310f 	movw	r1, #783	@ 0x30f
10017c02:	f000 f9fb 	bl	10017ffc <__assert_func>
10017c06:	bf00      	nop
10017c08:	10019444 	.word	0x10019444
10017c0c:	100194dc 	.word	0x100194dc

10017c10 <__sread>:
10017c10:	b510      	push	{r4, lr}
10017c12:	460c      	mov	r4, r1
10017c14:	f9b1 100e 	ldrsh.w	r1, [r1, #14]
10017c18:	f000 f8e0 	bl	10017ddc <_read_r>
10017c1c:	2800      	cmp	r0, #0
10017c1e:	db03      	blt.n	10017c28 <__sread+0x18>
10017c20:	6d23      	ldr	r3, [r4, #80]	@ 0x50
10017c22:	4403      	add	r3, r0
10017c24:	6523      	str	r3, [r4, #80]	@ 0x50
10017c26:	bd10      	pop	{r4, pc}
10017c28:	89a3      	ldrh	r3, [r4, #12]
10017c2a:	f423 5380 	bic.w	r3, r3, #4096	@ 0x1000
10017c2e:	81a3      	strh	r3, [r4, #12]
10017c30:	bd10      	pop	{r4, pc}
10017c32:	bf00      	nop

10017c34 <__swrite>:
10017c34:	e92d 41f0 	stmdb	sp!, {r4, r5, r6, r7, r8, lr}
10017c38:	460c      	mov	r4, r1
10017c3a:	f9b1 100c 	ldrsh.w	r1, [r1, #12]
10017c3e:	461f      	mov	r7, r3
10017c40:	05cb      	lsls	r3, r1, #23
10017c42:	4605      	mov	r5, r0
10017c44:	4616      	mov	r6, r2
10017c46:	d40b      	bmi.n	10017c60 <__swrite+0x2c>
10017c48:	f421 5180 	bic.w	r1, r1, #4096	@ 0x1000
10017c4c:	81a1      	strh	r1, [r4, #12]
10017c4e:	463b      	mov	r3, r7
10017c50:	f9b4 100e 	ldrsh.w	r1, [r4, #14]
10017c54:	4632      	mov	r2, r6
10017c56:	4628      	mov	r0, r5
10017c58:	e8bd 41f0 	ldmia.w	sp!, {r4, r5, r6, r7, r8, lr}
10017c5c:	f000 b8d4 	b.w	10017e08 <_write_r>
10017c60:	f9b4 100e 	ldrsh.w	r1, [r4, #14]
10017c64:	2302      	movs	r3, #2
10017c66:	2200      	movs	r2, #0
10017c68:	f000 f8a2 	bl	10017db0 <_lseek_r>
10017c6c:	f9b4 100c 	ldrsh.w	r1, [r4, #12]
10017c70:	e7ea      	b.n	10017c48 <__swrite+0x14>
10017c72:	bf00      	nop

10017c74 <__sseek>:
10017c74:	b510      	push	{r4, lr}
10017c76:	460c      	mov	r4, r1
10017c78:	f9b1 100e 	ldrsh.w	r1, [r1, #14]
10017c7c:	f000 f898 	bl	10017db0 <_lseek_r>
10017c80:	f9b4 300c 	ldrsh.w	r3, [r4, #12]
10017c84:	1c42      	adds	r2, r0, #1
10017c86:	bf0e      	itee	eq
10017c88:	f423 5380 	biceq.w	r3, r3, #4096	@ 0x1000
10017c8c:	f443 5380 	orrne.w	r3, r3, #4096	@ 0x1000
10017c90:	6520      	strne	r0, [r4, #80]	@ 0x50
10017c92:	81a3      	strh	r3, [r4, #12]
10017c94:	bd10      	pop	{r4, pc}
10017c96:	bf00      	nop

10017c98 <__sclose>:
10017c98:	f9b1 100e 	ldrsh.w	r1, [r1, #14]
10017c9c:	f000 b864 	b.w	10017d68 <_close_r>

10017ca0 <__ascii_wctomb>:
10017ca0:	b149      	cbz	r1, 10017cb6 <__ascii_wctomb+0x16>
10017ca2:	2aff      	cmp	r2, #255	@ 0xff
10017ca4:	d802      	bhi.n	10017cac <__ascii_wctomb+0xc>
10017ca6:	700a      	strb	r2, [r1, #0]
10017ca8:	2001      	movs	r0, #1
10017caa:	4770      	bx	lr
10017cac:	238a      	movs	r3, #138	@ 0x8a
10017cae:	6003      	str	r3, [r0, #0]
10017cb0:	f04f 30ff 	mov.w	r0, #4294967295	@ 0xffffffff
10017cb4:	4770      	bx	lr
10017cb6:	4608      	mov	r0, r1
10017cb8:	4770      	bx	lr
10017cba:	bf00      	nop

10017cbc <__swbuf_r>:
10017cbc:	b5f8      	push	{r3, r4, r5, r6, r7, lr}
10017cbe:	460d      	mov	r5, r1
10017cc0:	4614      	mov	r4, r2
10017cc2:	4606      	mov	r6, r0
10017cc4:	b110      	cbz	r0, 10017ccc <__swbuf_r+0x10>
10017cc6:	6b43      	ldr	r3, [r0, #52]	@ 0x34
10017cc8:	2b00      	cmp	r3, #0
10017cca:	d04a      	beq.n	10017d62 <__swbuf_r+0xa6>
10017ccc:	f9b4 200c 	ldrsh.w	r2, [r4, #12]
10017cd0:	69a3      	ldr	r3, [r4, #24]
10017cd2:	60a3      	str	r3, [r4, #8]
10017cd4:	0710      	lsls	r0, r2, #28
10017cd6:	d51b      	bpl.n	10017d10 <__swbuf_r+0x54>
10017cd8:	6923      	ldr	r3, [r4, #16]
10017cda:	b1cb      	cbz	r3, 10017d10 <__swbuf_r+0x54>
10017cdc:	b2ed      	uxtb	r5, r5
10017cde:	0491      	lsls	r1, r2, #18
10017ce0:	462f      	mov	r7, r5
10017ce2:	d521      	bpl.n	10017d28 <__swbuf_r+0x6c>
10017ce4:	6822      	ldr	r2, [r4, #0]
10017ce6:	6961      	ldr	r1, [r4, #20]
10017ce8:	1ad3      	subs	r3, r2, r3
10017cea:	4299      	cmp	r1, r3
10017cec:	dd28      	ble.n	10017d40 <__swbuf_r+0x84>
10017cee:	3301      	adds	r3, #1
10017cf0:	68a1      	ldr	r1, [r4, #8]
10017cf2:	3901      	subs	r1, #1
10017cf4:	60a1      	str	r1, [r4, #8]
10017cf6:	1c51      	adds	r1, r2, #1
10017cf8:	6021      	str	r1, [r4, #0]
10017cfa:	7015      	strb	r5, [r2, #0]
10017cfc:	6962      	ldr	r2, [r4, #20]
10017cfe:	429a      	cmp	r2, r3
10017d00:	d026      	beq.n	10017d50 <__swbuf_r+0x94>
10017d02:	89a3      	ldrh	r3, [r4, #12]
10017d04:	07db      	lsls	r3, r3, #31
10017d06:	d501      	bpl.n	10017d0c <__swbuf_r+0x50>
10017d08:	2d0a      	cmp	r5, #10
10017d0a:	d021      	beq.n	10017d50 <__swbuf_r+0x94>
10017d0c:	4638      	mov	r0, r7
10017d0e:	bdf8      	pop	{r3, r4, r5, r6, r7, pc}
10017d10:	4621      	mov	r1, r4
10017d12:	4630      	mov	r0, r6
10017d14:	f7fc f832 	bl	10013d7c <__swsetup_r>
10017d18:	bb00      	cbnz	r0, 10017d5c <__swbuf_r+0xa0>
10017d1a:	f9b4 200c 	ldrsh.w	r2, [r4, #12]
10017d1e:	6923      	ldr	r3, [r4, #16]
10017d20:	b2ed      	uxtb	r5, r5
10017d22:	0491      	lsls	r1, r2, #18
10017d24:	462f      	mov	r7, r5
10017d26:	d4dd      	bmi.n	10017ce4 <__swbuf_r+0x28>
10017d28:	f442 5200 	orr.w	r2, r2, #8192	@ 0x2000
10017d2c:	81a2      	strh	r2, [r4, #12]
10017d2e:	6e62      	ldr	r2, [r4, #100]	@ 0x64
10017d30:	6961      	ldr	r1, [r4, #20]
10017d32:	f422 5200 	bic.w	r2, r2, #8192	@ 0x2000
10017d36:	6662      	str	r2, [r4, #100]	@ 0x64
10017d38:	6822      	ldr	r2, [r4, #0]
10017d3a:	1ad3      	subs	r3, r2, r3
10017d3c:	4299      	cmp	r1, r3
10017d3e:	dcd6      	bgt.n	10017cee <__swbuf_r+0x32>
10017d40:	4621      	mov	r1, r4
10017d42:	4630      	mov	r0, r6
10017d44:	f7fb fd5e 	bl	10013804 <_fflush_r>
10017d48:	b940      	cbnz	r0, 10017d5c <__swbuf_r+0xa0>
10017d4a:	6822      	ldr	r2, [r4, #0]
10017d4c:	2301      	movs	r3, #1
10017d4e:	e7cf      	b.n	10017cf0 <__swbuf_r+0x34>
10017d50:	4621      	mov	r1, r4
10017d52:	4630      	mov	r0, r6
10017d54:	f7fb fd56 	bl	10013804 <_fflush_r>
10017d58:	2800      	cmp	r0, #0
10017d5a:	d0d7      	beq.n	10017d0c <__swbuf_r+0x50>
10017d5c:	f04f 37ff 	mov.w	r7, #4294967295	@ 0xffffffff
10017d60:	e7d4      	b.n	10017d0c <__swbuf_r+0x50>
10017d62:	f7fb fe3d 	bl	100139e0 <__sinit>
10017d66:	e7b1      	b.n	10017ccc <__swbuf_r+0x10>

10017d68 <_close_r>:
10017d68:	b538      	push	{r3, r4, r5, lr}
10017d6a:	4d07      	ldr	r5, [pc, #28]	@ (10017d88 <_close_r+0x20>)
10017d6c:	2200      	movs	r2, #0
10017d6e:	4604      	mov	r4, r0
10017d70:	4608      	mov	r0, r1
10017d72:	602a      	str	r2, [r5, #0]
10017d74:	f7f6 fd14 	bl	1000e7a0 <_close>
10017d78:	1c43      	adds	r3, r0, #1
10017d7a:	d000      	beq.n	10017d7e <_close_r+0x16>
10017d7c:	bd38      	pop	{r3, r4, r5, pc}
10017d7e:	682b      	ldr	r3, [r5, #0]
10017d80:	2b00      	cmp	r3, #0
10017d82:	d0fb      	beq.n	10017d7c <_close_r+0x14>
10017d84:	6023      	str	r3, [r4, #0]
10017d86:	bd38      	pop	{r3, r4, r5, pc}
10017d88:	200011ac 	.word	0x200011ac

10017d8c <_isatty_r>:
10017d8c:	b538      	push	{r3, r4, r5, lr}
10017d8e:	4d07      	ldr	r5, [pc, #28]	@ (10017dac <_isatty_r+0x20>)
10017d90:	2200      	movs	r2, #0
10017d92:	4604      	mov	r4, r0
10017d94:	4608      	mov	r0, r1
10017d96:	602a      	str	r2, [r5, #0]
10017d98:	f7f6 fd06 	bl	1000e7a8 <_isatty>
10017d9c:	1c43      	adds	r3, r0, #1
10017d9e:	d000      	beq.n	10017da2 <_isatty_r+0x16>
10017da0:	bd38      	pop	{r3, r4, r5, pc}
10017da2:	682b      	ldr	r3, [r5, #0]
10017da4:	2b00      	cmp	r3, #0
10017da6:	d0fb      	beq.n	10017da0 <_isatty_r+0x14>
10017da8:	6023      	str	r3, [r4, #0]
10017daa:	bd38      	pop	{r3, r4, r5, pc}
10017dac:	200011ac 	.word	0x200011ac

10017db0 <_lseek_r>:
10017db0:	b538      	push	{r3, r4, r5, lr}
10017db2:	460c      	mov	r4, r1
10017db4:	4d08      	ldr	r5, [pc, #32]	@ (10017dd8 <_lseek_r+0x28>)
10017db6:	4684      	mov	ip, r0
10017db8:	4611      	mov	r1, r2
10017dba:	4620      	mov	r0, r4
10017dbc:	461a      	mov	r2, r3
10017dbe:	2300      	movs	r3, #0
10017dc0:	602b      	str	r3, [r5, #0]
10017dc2:	4664      	mov	r4, ip
10017dc4:	f7f6 fcf4 	bl	1000e7b0 <_lseek>
10017dc8:	1c43      	adds	r3, r0, #1
10017dca:	d000      	beq.n	10017dce <_lseek_r+0x1e>
10017dcc:	bd38      	pop	{r3, r4, r5, pc}
10017dce:	682b      	ldr	r3, [r5, #0]
10017dd0:	2b00      	cmp	r3, #0
10017dd2:	d0fb      	beq.n	10017dcc <_lseek_r+0x1c>
10017dd4:	6023      	str	r3, [r4, #0]
10017dd6:	bd38      	pop	{r3, r4, r5, pc}
10017dd8:	200011ac 	.word	0x200011ac

10017ddc <_read_r>:
10017ddc:	b538      	push	{r3, r4, r5, lr}
10017dde:	460c      	mov	r4, r1
10017de0:	4d08      	ldr	r5, [pc, #32]	@ (10017e04 <_read_r+0x28>)
10017de2:	4684      	mov	ip, r0
10017de4:	4611      	mov	r1, r2
10017de6:	4620      	mov	r0, r4
10017de8:	461a      	mov	r2, r3
10017dea:	2300      	movs	r3, #0
10017dec:	602b      	str	r3, [r5, #0]
10017dee:	4664      	mov	r4, ip
10017df0:	f7f6 fce6 	bl	1000e7c0 <_read>
10017df4:	1c43      	adds	r3, r0, #1
10017df6:	d000      	beq.n	10017dfa <_read_r+0x1e>
10017df8:	bd38      	pop	{r3, r4, r5, pc}
10017dfa:	682b      	ldr	r3, [r5, #0]
10017dfc:	2b00      	cmp	r3, #0
10017dfe:	d0fb      	beq.n	10017df8 <_read_r+0x1c>
10017e00:	6023      	str	r3, [r4, #0]
10017e02:	bd38      	pop	{r3, r4, r5, pc}
10017e04:	200011ac 	.word	0x200011ac

10017e08 <_write_r>:
10017e08:	b538      	push	{r3, r4, r5, lr}
10017e0a:	460c      	mov	r4, r1
10017e0c:	4d08      	ldr	r5, [pc, #32]	@ (10017e30 <_write_r+0x28>)
10017e0e:	4684      	mov	ip, r0
10017e10:	4611      	mov	r1, r2
10017e12:	4620      	mov	r0, r4
10017e14:	461a      	mov	r2, r3
10017e16:	2300      	movs	r3, #0
10017e18:	602b      	str	r3, [r5, #0]
10017e1a:	4664      	mov	r4, ip
10017e1c:	f7f6 fcf8 	bl	1000e810 <_write>
10017e20:	1c43      	adds	r3, r0, #1
10017e22:	d000      	beq.n	10017e26 <_write_r+0x1e>
10017e24:	bd38      	pop	{r3, r4, r5, pc}
10017e26:	682b      	ldr	r3, [r5, #0]
10017e28:	2b00      	cmp	r3, #0
10017e2a:	d0fb      	beq.n	10017e24 <_write_r+0x1c>
10017e2c:	6023      	str	r3, [r4, #0]
10017e2e:	bd38      	pop	{r3, r4, r5, pc}
10017e30:	200011ac 	.word	0x200011ac

10017e34 <__libc_fini_array>:
10017e34:	b538      	push	{r3, r4, r5, lr}
10017e36:	4d07      	ldr	r5, [pc, #28]	@ (10017e54 <__libc_fini_array+0x20>)
10017e38:	4c07      	ldr	r4, [pc, #28]	@ (10017e58 <__libc_fini_array+0x24>)
10017e3a:	1b2c      	subs	r4, r5, r4
10017e3c:	10a4      	asrs	r4, r4, #2
10017e3e:	d005      	beq.n	10017e4c <__libc_fini_array+0x18>
10017e40:	3c01      	subs	r4, #1
10017e42:	f855 3d04 	ldr.w	r3, [r5, #-4]!
10017e46:	4798      	blx	r3
10017e48:	2c00      	cmp	r4, #0
10017e4a:	d1f9      	bne.n	10017e40 <__libc_fini_array+0xc>
10017e4c:	e8bd 4038 	ldmia.w	sp!, {r3, r4, r5, lr}
10017e50:	f001 bc1c 	b.w	1001968c <_fini>
10017e54:	200006f8 	.word	0x200006f8
10017e58:	200006f4 	.word	0x200006f4

10017e5c <_wcsnrtombs_l>:
10017e5c:	e92d 4ff0 	stmdb	sp!, {r4, r5, r6, r7, r8, r9, sl, fp, lr}
10017e60:	b08b      	sub	sp, #44	@ 0x2c
10017e62:	e9dd 7a15 	ldrd	r7, sl, [sp, #84]	@ 0x54
10017e66:	4686      	mov	lr, r0
10017e68:	461e      	mov	r6, r3
10017e6a:	2f00      	cmp	r7, #0
10017e6c:	d05a      	beq.n	10017f24 <_wcsnrtombs_l+0xc8>
10017e6e:	6815      	ldr	r5, [r2, #0]
10017e70:	2900      	cmp	r1, #0
10017e72:	d05c      	beq.n	10017f2e <_wcsnrtombs_l+0xd2>
10017e74:	9b14      	ldr	r3, [sp, #80]	@ 0x50
10017e76:	2b00      	cmp	r3, #0
10017e78:	d069      	beq.n	10017f4e <_wcsnrtombs_l+0xf2>
10017e7a:	1e74      	subs	r4, r6, #1
10017e7c:	b34e      	cbz	r6, 10017ed2 <_wcsnrtombs_l+0x76>
10017e7e:	3d04      	subs	r5, #4
10017e80:	e9cd 5e01 	strd	r5, lr, [sp, #4]
10017e84:	f8dd b050 	ldr.w	fp, [sp, #80]	@ 0x50
10017e88:	9104      	str	r1, [sp, #16]
10017e8a:	2600      	movs	r6, #0
10017e8c:	9103      	str	r1, [sp, #12]
10017e8e:	9205      	str	r2, [sp, #20]
10017e90:	e00b      	b.n	10017eaa <_wcsnrtombs_l+0x4e>
10017e92:	9b03      	ldr	r3, [sp, #12]
10017e94:	bb0b      	cbnz	r3, 10017eda <_wcsnrtombs_l+0x7e>
10017e96:	9b01      	ldr	r3, [sp, #4]
10017e98:	6818      	ldr	r0, [r3, #0]
10017e9a:	2800      	cmp	r0, #0
10017e9c:	d036      	beq.n	10017f0c <_wcsnrtombs_l+0xb0>
10017e9e:	45dc      	cmp	ip, fp
10017ea0:	d257      	bcs.n	10017f52 <_wcsnrtombs_l+0xf6>
10017ea2:	3c01      	subs	r4, #1
10017ea4:	1c63      	adds	r3, r4, #1
10017ea6:	4666      	mov	r6, ip
10017ea8:	d013      	beq.n	10017ed2 <_wcsnrtombs_l+0x76>
10017eaa:	9b01      	ldr	r3, [sp, #4]
10017eac:	9802      	ldr	r0, [sp, #8]
10017eae:	f853 2f04 	ldr.w	r2, [r3, #4]!
10017eb2:	9301      	str	r3, [sp, #4]
10017eb4:	f8da 50e0 	ldr.w	r5, [sl, #224]	@ 0xe0
10017eb8:	463b      	mov	r3, r7
10017eba:	a907      	add	r1, sp, #28
10017ebc:	e9d7 9800 	ldrd	r9, r8, [r7]
10017ec0:	47a8      	blx	r5
10017ec2:	1c42      	adds	r2, r0, #1
10017ec4:	d037      	beq.n	10017f36 <_wcsnrtombs_l+0xda>
10017ec6:	eb00 0c06 	add.w	ip, r0, r6
10017eca:	45dc      	cmp	ip, fp
10017ecc:	d9e1      	bls.n	10017e92 <_wcsnrtombs_l+0x36>
10017ece:	e9c7 9800 	strd	r9, r8, [r7]
10017ed2:	4630      	mov	r0, r6
10017ed4:	b00b      	add	sp, #44	@ 0x2c
10017ed6:	e8bd 8ff0 	ldmia.w	sp!, {r4, r5, r6, r7, r8, r9, sl, fp, pc}
10017eda:	2800      	cmp	r0, #0
10017edc:	dd0e      	ble.n	10017efc <_wcsnrtombs_l+0xa0>
10017ede:	9b04      	ldr	r3, [sp, #16]
10017ee0:	9d01      	ldr	r5, [sp, #4]
10017ee2:	4418      	add	r0, r3
10017ee4:	1e5a      	subs	r2, r3, #1
10017ee6:	a907      	add	r1, sp, #28
10017ee8:	f100 3eff 	add.w	lr, r0, #4294967295	@ 0xffffffff
10017eec:	f811 3b01 	ldrb.w	r3, [r1], #1
10017ef0:	f802 3f01 	strb.w	r3, [r2, #1]!
10017ef4:	4596      	cmp	lr, r2
10017ef6:	d1f9      	bne.n	10017eec <_wcsnrtombs_l+0x90>
10017ef8:	9501      	str	r5, [sp, #4]
10017efa:	9004      	str	r0, [sp, #16]
10017efc:	9b05      	ldr	r3, [sp, #20]
10017efe:	681a      	ldr	r2, [r3, #0]
10017f00:	3204      	adds	r2, #4
10017f02:	601a      	str	r2, [r3, #0]
10017f04:	9b01      	ldr	r3, [sp, #4]
10017f06:	6818      	ldr	r0, [r3, #0]
10017f08:	2800      	cmp	r0, #0
10017f0a:	d1c8      	bne.n	10017e9e <_wcsnrtombs_l+0x42>
10017f0c:	9903      	ldr	r1, [sp, #12]
10017f0e:	9a05      	ldr	r2, [sp, #20]
10017f10:	b101      	cbz	r1, 10017f14 <_wcsnrtombs_l+0xb8>
10017f12:	6010      	str	r0, [r2, #0]
10017f14:	f10c 36ff 	add.w	r6, ip, #4294967295	@ 0xffffffff
10017f18:	2200      	movs	r2, #0
10017f1a:	4630      	mov	r0, r6
10017f1c:	603a      	str	r2, [r7, #0]
10017f1e:	b00b      	add	sp, #44	@ 0x2c
10017f20:	e8bd 8ff0 	ldmia.w	sp!, {r4, r5, r6, r7, r8, r9, sl, fp, pc}
10017f24:	6815      	ldr	r5, [r2, #0]
10017f26:	f500 7786 	add.w	r7, r0, #268	@ 0x10c
10017f2a:	2900      	cmp	r1, #0
10017f2c:	d1a2      	bne.n	10017e74 <_wcsnrtombs_l+0x18>
10017f2e:	f04f 33ff 	mov.w	r3, #4294967295	@ 0xffffffff
10017f32:	9314      	str	r3, [sp, #80]	@ 0x50
10017f34:	e7a1      	b.n	10017e7a <_wcsnrtombs_l+0x1e>
10017f36:	f8dd e008 	ldr.w	lr, [sp, #8]
10017f3a:	4606      	mov	r6, r0
10017f3c:	218a      	movs	r1, #138	@ 0x8a
10017f3e:	2200      	movs	r2, #0
10017f40:	4630      	mov	r0, r6
10017f42:	f8ce 1000 	str.w	r1, [lr]
10017f46:	603a      	str	r2, [r7, #0]
10017f48:	b00b      	add	sp, #44	@ 0x2c
10017f4a:	e8bd 8ff0 	ldmia.w	sp!, {r4, r5, r6, r7, r8, r9, sl, fp, pc}
10017f4e:	9e14      	ldr	r6, [sp, #80]	@ 0x50
10017f50:	e7bf      	b.n	10017ed2 <_wcsnrtombs_l+0x76>
10017f52:	4666      	mov	r6, ip
10017f54:	e7bd      	b.n	10017ed2 <_wcsnrtombs_l+0x76>
10017f56:	bf00      	nop

10017f58 <_wcsnrtombs_r>:
10017f58:	b510      	push	{r4, lr}
10017f5a:	b084      	sub	sp, #16
10017f5c:	4c05      	ldr	r4, [pc, #20]	@ (10017f74 <_wcsnrtombs_r+0x1c>)
10017f5e:	9806      	ldr	r0, [sp, #24]
10017f60:	9000      	str	r0, [sp, #0]
10017f62:	9807      	ldr	r0, [sp, #28]
10017f64:	9001      	str	r0, [sp, #4]
10017f66:	4804      	ldr	r0, [pc, #16]	@ (10017f78 <_wcsnrtombs_r+0x20>)
10017f68:	6800      	ldr	r0, [r0, #0]
10017f6a:	9402      	str	r4, [sp, #8]
10017f6c:	f7ff ff76 	bl	10017e5c <_wcsnrtombs_l>
10017f70:	b004      	add	sp, #16
10017f72:	bd10      	pop	{r4, pc}
10017f74:	20000454 	.word	0x20000454
10017f78:	200005c0 	.word	0x200005c0

10017f7c <__register_exitproc>:
10017f7c:	e92d 43f8 	stmdb	sp!, {r3, r4, r5, r6, r7, r8, r9, lr}
10017f80:	4d1b      	ldr	r5, [pc, #108]	@ (10017ff0 <__register_exitproc+0x74>)
10017f82:	4606      	mov	r6, r0
10017f84:	6828      	ldr	r0, [r5, #0]
10017f86:	4698      	mov	r8, r3
10017f88:	460f      	mov	r7, r1
10017f8a:	4691      	mov	r9, r2
10017f8c:	f7fc f93c 	bl	10014208 <__retarget_lock_acquire_recursive>
10017f90:	4b18      	ldr	r3, [pc, #96]	@ (10017ff4 <__register_exitproc+0x78>)
10017f92:	681c      	ldr	r4, [r3, #0]
10017f94:	b31c      	cbz	r4, 10017fde <__register_exitproc+0x62>
10017f96:	6828      	ldr	r0, [r5, #0]
10017f98:	6865      	ldr	r5, [r4, #4]
10017f9a:	2d1f      	cmp	r5, #31
10017f9c:	dc22      	bgt.n	10017fe4 <__register_exitproc+0x68>
10017f9e:	b94e      	cbnz	r6, 10017fb4 <__register_exitproc+0x38>
10017fa0:	1c6b      	adds	r3, r5, #1
10017fa2:	3502      	adds	r5, #2
10017fa4:	6063      	str	r3, [r4, #4]
10017fa6:	f844 7025 	str.w	r7, [r4, r5, lsl #2]
10017faa:	f7fc f92f 	bl	1001420c <__retarget_lock_release_recursive>
10017fae:	2000      	movs	r0, #0
10017fb0:	e8bd 83f8 	ldmia.w	sp!, {r3, r4, r5, r6, r7, r8, r9, pc}
10017fb4:	eb04 0185 	add.w	r1, r4, r5, lsl #2
10017fb8:	2301      	movs	r3, #1
10017fba:	f8c1 9088 	str.w	r9, [r1, #136]	@ 0x88
10017fbe:	f8d4 2188 	ldr.w	r2, [r4, #392]	@ 0x188
10017fc2:	40ab      	lsls	r3, r5
10017fc4:	431a      	orrs	r2, r3
10017fc6:	2e02      	cmp	r6, #2
10017fc8:	f8c4 2188 	str.w	r2, [r4, #392]	@ 0x188
10017fcc:	f8c1 8108 	str.w	r8, [r1, #264]	@ 0x108
10017fd0:	d1e6      	bne.n	10017fa0 <__register_exitproc+0x24>
10017fd2:	f8d4 218c 	ldr.w	r2, [r4, #396]	@ 0x18c
10017fd6:	431a      	orrs	r2, r3
10017fd8:	f8c4 218c 	str.w	r2, [r4, #396]	@ 0x18c
10017fdc:	e7e0      	b.n	10017fa0 <__register_exitproc+0x24>
10017fde:	4c06      	ldr	r4, [pc, #24]	@ (10017ff8 <__register_exitproc+0x7c>)
10017fe0:	601c      	str	r4, [r3, #0]
10017fe2:	e7d8      	b.n	10017f96 <__register_exitproc+0x1a>
10017fe4:	f7fc f912 	bl	1001420c <__retarget_lock_release_recursive>
10017fe8:	f04f 30ff 	mov.w	r0, #4294967295	@ 0xffffffff
10017fec:	e7e0      	b.n	10017fb0 <__register_exitproc+0x34>
10017fee:	bf00      	nop
10017ff0:	200006e8 	.word	0x200006e8
10017ff4:	200011a8 	.word	0x200011a8
10017ff8:	200011b0 	.word	0x200011b0

10017ffc <__assert_func>:
10017ffc:	b500      	push	{lr}
10017ffe:	4c0b      	ldr	r4, [pc, #44]	@ (1001802c <__assert_func+0x30>)
10018000:	6825      	ldr	r5, [r4, #0]
10018002:	4614      	mov	r4, r2
10018004:	68ee      	ldr	r6, [r5, #12]
10018006:	461a      	mov	r2, r3
10018008:	b085      	sub	sp, #20
1001800a:	4603      	mov	r3, r0
1001800c:	460d      	mov	r5, r1
1001800e:	b14c      	cbz	r4, 10018024 <__assert_func+0x28>
10018010:	4907      	ldr	r1, [pc, #28]	@ (10018030 <__assert_func+0x34>)
10018012:	9500      	str	r5, [sp, #0]
10018014:	e9cd 1401 	strd	r1, r4, [sp, #4]
10018018:	4630      	mov	r0, r6
1001801a:	4906      	ldr	r1, [pc, #24]	@ (10018034 <__assert_func+0x38>)
1001801c:	f000 f844 	bl	100180a8 <fiprintf>
10018020:	f000 f8da 	bl	100181d8 <abort>
10018024:	4904      	ldr	r1, [pc, #16]	@ (10018038 <__assert_func+0x3c>)
10018026:	460c      	mov	r4, r1
10018028:	e7f3      	b.n	10018012 <__assert_func+0x16>
1001802a:	bf00      	nop
1001802c:	200005c0 	.word	0x200005c0
10018030:	10019640 	.word	0x10019640
10018034:	10019650 	.word	0x10019650
10018038:	10019068 	.word	0x10019068

1001803c <_calloc_r>:
1001803c:	b538      	push	{r3, r4, r5, lr}
1001803e:	fba1 1402 	umull	r1, r4, r1, r2
10018042:	bb54      	cbnz	r4, 1001809a <_calloc_r+0x5e>
10018044:	f7f7 ff4e 	bl	1000fee4 <_malloc_r>
10018048:	4605      	mov	r5, r0
1001804a:	b350      	cbz	r0, 100180a2 <_calloc_r+0x66>
1001804c:	f850 2c04 	ldr.w	r2, [r0, #-4]
10018050:	f022 0203 	bic.w	r2, r2, #3
10018054:	3a04      	subs	r2, #4
10018056:	2a24      	cmp	r2, #36	@ 0x24
10018058:	d810      	bhi.n	1001807c <_calloc_r+0x40>
1001805a:	2a13      	cmp	r2, #19
1001805c:	d913      	bls.n	10018086 <_calloc_r+0x4a>
1001805e:	2a1b      	cmp	r2, #27
10018060:	6004      	str	r4, [r0, #0]
10018062:	6044      	str	r4, [r0, #4]
10018064:	d916      	bls.n	10018094 <_calloc_r+0x58>
10018066:	2a24      	cmp	r2, #36	@ 0x24
10018068:	6084      	str	r4, [r0, #8]
1001806a:	60c4      	str	r4, [r0, #12]
1001806c:	bf11      	iteee	ne
1001806e:	f100 0210 	addne.w	r2, r0, #16
10018072:	f100 0218 	addeq.w	r2, r0, #24
10018076:	6104      	streq	r4, [r0, #16]
10018078:	6144      	streq	r4, [r0, #20]
1001807a:	e005      	b.n	10018088 <_calloc_r+0x4c>
1001807c:	4621      	mov	r1, r4
1001807e:	f7fb ffcb 	bl	10014018 <memset>
10018082:	4628      	mov	r0, r5
10018084:	bd38      	pop	{r3, r4, r5, pc}
10018086:	4602      	mov	r2, r0
10018088:	2300      	movs	r3, #0
1001808a:	6013      	str	r3, [r2, #0]
1001808c:	6053      	str	r3, [r2, #4]
1001808e:	6093      	str	r3, [r2, #8]
10018090:	4628      	mov	r0, r5
10018092:	bd38      	pop	{r3, r4, r5, pc}
10018094:	f100 0208 	add.w	r2, r0, #8
10018098:	e7f6      	b.n	10018088 <_calloc_r+0x4c>
1001809a:	f7fc f875 	bl	10014188 <__errno>
1001809e:	230c      	movs	r3, #12
100180a0:	6003      	str	r3, [r0, #0]
100180a2:	2500      	movs	r5, #0
100180a4:	4628      	mov	r0, r5
100180a6:	bd38      	pop	{r3, r4, r5, pc}

100180a8 <fiprintf>:
100180a8:	b40e      	push	{r1, r2, r3}
100180aa:	b510      	push	{r4, lr}
100180ac:	b083      	sub	sp, #12
100180ae:	ab05      	add	r3, sp, #20
100180b0:	4c06      	ldr	r4, [pc, #24]	@ (100180cc <fiprintf+0x24>)
100180b2:	f853 2b04 	ldr.w	r2, [r3], #4
100180b6:	9301      	str	r3, [sp, #4]
100180b8:	4601      	mov	r1, r0
100180ba:	6820      	ldr	r0, [r4, #0]
100180bc:	f7fa f890 	bl	100121e0 <_vfiprintf_r>
100180c0:	b003      	add	sp, #12
100180c2:	e8bd 4010 	ldmia.w	sp!, {r4, lr}
100180c6:	b003      	add	sp, #12
100180c8:	4770      	bx	lr
100180ca:	bf00      	nop
100180cc:	200005c0 	.word	0x200005c0

100180d0 <__ssprint_r>:
100180d0:	e92d 4ff0 	stmdb	sp!, {r4, r5, r6, r7, r8, r9, sl, fp, lr}
100180d4:	6893      	ldr	r3, [r2, #8]
100180d6:	6817      	ldr	r7, [r2, #0]
100180d8:	b083      	sub	sp, #12
100180da:	4692      	mov	sl, r2
100180dc:	2b00      	cmp	r3, #0
100180de:	d074      	beq.n	100181ca <__ssprint_r+0xfa>
100180e0:	f04f 0b00 	mov.w	fp, #0
100180e4:	688b      	ldr	r3, [r1, #8]
100180e6:	680a      	ldr	r2, [r1, #0]
100180e8:	4681      	mov	r9, r0
100180ea:	460c      	mov	r4, r1
100180ec:	465d      	mov	r5, fp
100180ee:	e045      	b.n	1001817c <__ssprint_r+0xac>
100180f0:	f9b4 300c 	ldrsh.w	r3, [r4, #12]
100180f4:	f413 6f90 	tst.w	r3, #1152	@ 0x480
100180f8:	d02c      	beq.n	10018154 <__ssprint_r+0x84>
100180fa:	e9d4 0104 	ldrd	r0, r1, [r4, #16]
100180fe:	1a16      	subs	r6, r2, r0
10018100:	eb01 0241 	add.w	r2, r1, r1, lsl #1
10018104:	eb02 72d2 	add.w	r2, r2, r2, lsr #31
10018108:	1c71      	adds	r1, r6, #1
1001810a:	1052      	asrs	r2, r2, #1
1001810c:	4429      	add	r1, r5
1001810e:	4291      	cmp	r1, r2
10018110:	bf92      	itee	ls
10018112:	4690      	movls	r8, r2
10018114:	4688      	movhi	r8, r1
10018116:	460a      	movhi	r2, r1
10018118:	055b      	lsls	r3, r3, #21
1001811a:	d539      	bpl.n	10018190 <__ssprint_r+0xc0>
1001811c:	4611      	mov	r1, r2
1001811e:	4648      	mov	r0, r9
10018120:	f7f7 fee0 	bl	1000fee4 <_malloc_r>
10018124:	9001      	str	r0, [sp, #4]
10018126:	2800      	cmp	r0, #0
10018128:	d03d      	beq.n	100181a6 <__ssprint_r+0xd6>
1001812a:	4632      	mov	r2, r6
1001812c:	6921      	ldr	r1, [r4, #16]
1001812e:	f7fc f8bf 	bl	100142b0 <memcpy>
10018132:	89a2      	ldrh	r2, [r4, #12]
10018134:	9b01      	ldr	r3, [sp, #4]
10018136:	f422 6290 	bic.w	r2, r2, #1152	@ 0x480
1001813a:	f042 0280 	orr.w	r2, r2, #128	@ 0x80
1001813e:	81a2      	strh	r2, [r4, #12]
10018140:	1998      	adds	r0, r3, r6
10018142:	eba8 0606 	sub.w	r6, r8, r6
10018146:	60a6      	str	r6, [r4, #8]
10018148:	f8c4 8014 	str.w	r8, [r4, #20]
1001814c:	6123      	str	r3, [r4, #16]
1001814e:	6020      	str	r0, [r4, #0]
10018150:	46a8      	mov	r8, r5
10018152:	462e      	mov	r6, r5
10018154:	4632      	mov	r2, r6
10018156:	4659      	mov	r1, fp
10018158:	f7fb fede 	bl	10013f18 <memmove>
1001815c:	f8da 1008 	ldr.w	r1, [sl, #8]
10018160:	68a3      	ldr	r3, [r4, #8]
10018162:	6822      	ldr	r2, [r4, #0]
10018164:	eba3 0308 	sub.w	r3, r3, r8
10018168:	4432      	add	r2, r6
1001816a:	1b49      	subs	r1, r1, r5
1001816c:	60a3      	str	r3, [r4, #8]
1001816e:	6022      	str	r2, [r4, #0]
10018170:	f8ca 1008 	str.w	r1, [sl, #8]
10018174:	b349      	cbz	r1, 100181ca <__ssprint_r+0xfa>
10018176:	e9d7 b500 	ldrd	fp, r5, [r7]
1001817a:	3708      	adds	r7, #8
1001817c:	4698      	mov	r8, r3
1001817e:	4610      	mov	r0, r2
10018180:	2d00      	cmp	r5, #0
10018182:	d0f8      	beq.n	10018176 <__ssprint_r+0xa6>
10018184:	429d      	cmp	r5, r3
10018186:	461e      	mov	r6, r3
10018188:	d2b2      	bcs.n	100180f0 <__ssprint_r+0x20>
1001818a:	46a8      	mov	r8, r5
1001818c:	462e      	mov	r6, r5
1001818e:	e7e1      	b.n	10018154 <__ssprint_r+0x84>
10018190:	4601      	mov	r1, r0
10018192:	4648      	mov	r0, r9
10018194:	f7fb f8f8 	bl	10013388 <_realloc_r>
10018198:	4603      	mov	r3, r0
1001819a:	2800      	cmp	r0, #0
1001819c:	d1d0      	bne.n	10018140 <__ssprint_r+0x70>
1001819e:	6921      	ldr	r1, [r4, #16]
100181a0:	4648      	mov	r0, r9
100181a2:	f7fd fa27 	bl	100155f4 <_free_r>
100181a6:	89a3      	ldrh	r3, [r4, #12]
100181a8:	220c      	movs	r2, #12
100181aa:	f043 0340 	orr.w	r3, r3, #64	@ 0x40
100181ae:	f8c9 2000 	str.w	r2, [r9]
100181b2:	f04f 30ff 	mov.w	r0, #4294967295	@ 0xffffffff
100181b6:	81a3      	strh	r3, [r4, #12]
100181b8:	2200      	movs	r2, #0
100181ba:	2300      	movs	r3, #0
100181bc:	f8ca 2008 	str.w	r2, [sl, #8]
100181c0:	f8ca 3004 	str.w	r3, [sl, #4]
100181c4:	b003      	add	sp, #12
100181c6:	e8bd 8ff0 	ldmia.w	sp!, {r4, r5, r6, r7, r8, r9, sl, fp, pc}
100181ca:	2000      	movs	r0, #0
100181cc:	2300      	movs	r3, #0
100181ce:	f8ca 3004 	str.w	r3, [sl, #4]
100181d2:	b003      	add	sp, #12
100181d4:	e8bd 8ff0 	ldmia.w	sp!, {r4, r5, r6, r7, r8, r9, sl, fp, pc}

100181d8 <abort>:
100181d8:	b508      	push	{r3, lr}
100181da:	2006      	movs	r0, #6
100181dc:	f000 f804 	bl	100181e8 <raise>
100181e0:	2001      	movs	r0, #1
100181e2:	f000 f855 	bl	10018290 <_exit>
100181e6:	bf00      	nop

100181e8 <raise>:
100181e8:	b538      	push	{r3, r4, r5, lr}
100181ea:	4b14      	ldr	r3, [pc, #80]	@ (1001823c <raise+0x54>)
100181ec:	281f      	cmp	r0, #31
100181ee:	681d      	ldr	r5, [r3, #0]
100181f0:	d81e      	bhi.n	10018230 <raise+0x48>
100181f2:	f8d5 2118 	ldr.w	r2, [r5, #280]	@ 0x118
100181f6:	4604      	mov	r4, r0
100181f8:	b162      	cbz	r2, 10018214 <raise+0x2c>
100181fa:	f852 3020 	ldr.w	r3, [r2, r0, lsl #2]
100181fe:	b14b      	cbz	r3, 10018214 <raise+0x2c>
10018200:	2b01      	cmp	r3, #1
10018202:	d005      	beq.n	10018210 <raise+0x28>
10018204:	1c59      	adds	r1, r3, #1
10018206:	d00f      	beq.n	10018228 <raise+0x40>
10018208:	2100      	movs	r1, #0
1001820a:	f842 1020 	str.w	r1, [r2, r0, lsl #2]
1001820e:	4798      	blx	r3
10018210:	2000      	movs	r0, #0
10018212:	bd38      	pop	{r3, r4, r5, pc}
10018214:	4628      	mov	r0, r5
10018216:	f000 f829 	bl	1001826c <_getpid_r>
1001821a:	4622      	mov	r2, r4
1001821c:	4601      	mov	r1, r0
1001821e:	4628      	mov	r0, r5
10018220:	e8bd 4038 	ldmia.w	sp!, {r3, r4, r5, lr}
10018224:	f000 b80c 	b.w	10018240 <_kill_r>
10018228:	2316      	movs	r3, #22
1001822a:	602b      	str	r3, [r5, #0]
1001822c:	2001      	movs	r0, #1
1001822e:	bd38      	pop	{r3, r4, r5, pc}
10018230:	2316      	movs	r3, #22
10018232:	602b      	str	r3, [r5, #0]
10018234:	f04f 30ff 	mov.w	r0, #4294967295	@ 0xffffffff
10018238:	bd38      	pop	{r3, r4, r5, pc}
1001823a:	bf00      	nop
1001823c:	200005c0 	.word	0x200005c0

10018240 <_kill_r>:
10018240:	b570      	push	{r4, r5, r6, lr}
10018242:	460c      	mov	r4, r1
10018244:	4d08      	ldr	r5, [pc, #32]	@ (10018268 <_kill_r+0x28>)
10018246:	4603      	mov	r3, r0
10018248:	2600      	movs	r6, #0
1001824a:	4620      	mov	r0, r4
1001824c:	4611      	mov	r1, r2
1001824e:	461c      	mov	r4, r3
10018250:	602e      	str	r6, [r5, #0]
10018252:	f000 f815 	bl	10018280 <_kill>
10018256:	1c43      	adds	r3, r0, #1
10018258:	d000      	beq.n	1001825c <_kill_r+0x1c>
1001825a:	bd70      	pop	{r4, r5, r6, pc}
1001825c:	682b      	ldr	r3, [r5, #0]
1001825e:	2b00      	cmp	r3, #0
10018260:	d0fb      	beq.n	1001825a <_kill_r+0x1a>
10018262:	6023      	str	r3, [r4, #0]
10018264:	bd70      	pop	{r4, r5, r6, pc}
10018266:	bf00      	nop
10018268:	200011ac 	.word	0x200011ac

1001826c <_getpid_r>:
1001826c:	f000 b800 	b.w	10018270 <_getpid>

10018270 <_getpid>:
10018270:	4b02      	ldr	r3, [pc, #8]	@ (1001827c <_getpid+0xc>)
10018272:	2258      	movs	r2, #88	@ 0x58
10018274:	601a      	str	r2, [r3, #0]
10018276:	f04f 30ff 	mov.w	r0, #4294967295	@ 0xffffffff
1001827a:	4770      	bx	lr
1001827c:	200011ac 	.word	0x200011ac

10018280 <_kill>:
10018280:	4b02      	ldr	r3, [pc, #8]	@ (1001828c <_kill+0xc>)
10018282:	2258      	movs	r2, #88	@ 0x58
10018284:	601a      	str	r2, [r3, #0]
10018286:	f04f 30ff 	mov.w	r0, #4294967295	@ 0xffffffff
1001828a:	4770      	bx	lr
1001828c:	200011ac 	.word	0x200011ac

10018290 <_exit>:
10018290:	e7fe      	b.n	10018290 <_exit>
10018292:	bf00      	nop

10018294 <__aeabi_drsub>:
10018294:	f081 4100 	eor.w	r1, r1, #2147483648	@ 0x80000000
10018298:	e002      	b.n	100182a0 <__adddf3>
1001829a:	bf00      	nop

1001829c <__aeabi_dsub>:
1001829c:	f083 4300 	eor.w	r3, r3, #2147483648	@ 0x80000000

100182a0 <__adddf3>:
100182a0:	b530      	push	{r4, r5, lr}
100182a2:	ea4f 0441 	mov.w	r4, r1, lsl #1
100182a6:	ea4f 0543 	mov.w	r5, r3, lsl #1
100182aa:	ea94 0f05 	teq	r4, r5
100182ae:	bf08      	it	eq
100182b0:	ea90 0f02 	teqeq	r0, r2
100182b4:	bf1f      	itttt	ne
100182b6:	ea54 0c00 	orrsne.w	ip, r4, r0
100182ba:	ea55 0c02 	orrsne.w	ip, r5, r2
100182be:	ea7f 5c64 	mvnsne.w	ip, r4, asr #21
100182c2:	ea7f 5c65 	mvnsne.w	ip, r5, asr #21
100182c6:	f000 80e2 	beq.w	1001848e <__adddf3+0x1ee>
100182ca:	ea4f 5454 	mov.w	r4, r4, lsr #21
100182ce:	ebd4 5555 	rsbs	r5, r4, r5, lsr #21
100182d2:	bfb8      	it	lt
100182d4:	426d      	neglt	r5, r5
100182d6:	dd0c      	ble.n	100182f2 <__adddf3+0x52>
100182d8:	442c      	add	r4, r5
100182da:	ea80 0202 	eor.w	r2, r0, r2
100182de:	ea81 0303 	eor.w	r3, r1, r3
100182e2:	ea82 0000 	eor.w	r0, r2, r0
100182e6:	ea83 0101 	eor.w	r1, r3, r1
100182ea:	ea80 0202 	eor.w	r2, r0, r2
100182ee:	ea81 0303 	eor.w	r3, r1, r3
100182f2:	2d36      	cmp	r5, #54	@ 0x36
100182f4:	bf88      	it	hi
100182f6:	bd30      	pophi	{r4, r5, pc}
100182f8:	f011 4f00 	tst.w	r1, #2147483648	@ 0x80000000
100182fc:	ea4f 3101 	mov.w	r1, r1, lsl #12
10018300:	f44f 1c80 	mov.w	ip, #1048576	@ 0x100000
10018304:	ea4c 3111 	orr.w	r1, ip, r1, lsr #12
10018308:	d002      	beq.n	10018310 <__adddf3+0x70>
1001830a:	4240      	negs	r0, r0
1001830c:	eb61 0141 	sbc.w	r1, r1, r1, lsl #1
10018310:	f013 4f00 	tst.w	r3, #2147483648	@ 0x80000000
10018314:	ea4f 3303 	mov.w	r3, r3, lsl #12
10018318:	ea4c 3313 	orr.w	r3, ip, r3, lsr #12
1001831c:	d002      	beq.n	10018324 <__adddf3+0x84>
1001831e:	4252      	negs	r2, r2
10018320:	eb63 0343 	sbc.w	r3, r3, r3, lsl #1
10018324:	ea94 0f05 	teq	r4, r5
10018328:	f000 80a7 	beq.w	1001847a <__adddf3+0x1da>
1001832c:	f1a4 0401 	sub.w	r4, r4, #1
10018330:	f1d5 0e20 	rsbs	lr, r5, #32
10018334:	db0d      	blt.n	10018352 <__adddf3+0xb2>
10018336:	fa02 fc0e 	lsl.w	ip, r2, lr
1001833a:	fa22 f205 	lsr.w	r2, r2, r5
1001833e:	1880      	adds	r0, r0, r2
10018340:	f141 0100 	adc.w	r1, r1, #0
10018344:	fa03 f20e 	lsl.w	r2, r3, lr
10018348:	1880      	adds	r0, r0, r2
1001834a:	fa43 f305 	asr.w	r3, r3, r5
1001834e:	4159      	adcs	r1, r3
10018350:	e00e      	b.n	10018370 <__adddf3+0xd0>
10018352:	f1a5 0520 	sub.w	r5, r5, #32
10018356:	f10e 0e20 	add.w	lr, lr, #32
1001835a:	2a01      	cmp	r2, #1
1001835c:	fa03 fc0e 	lsl.w	ip, r3, lr
10018360:	bf28      	it	cs
10018362:	f04c 0c02 	orrcs.w	ip, ip, #2
10018366:	fa43 f305 	asr.w	r3, r3, r5
1001836a:	18c0      	adds	r0, r0, r3
1001836c:	eb51 71e3 	adcs.w	r1, r1, r3, asr #31
10018370:	f001 4500 	and.w	r5, r1, #2147483648	@ 0x80000000
10018374:	d507      	bpl.n	10018386 <__adddf3+0xe6>
10018376:	f04f 0e00 	mov.w	lr, #0
1001837a:	f1dc 0c00 	rsbs	ip, ip, #0
1001837e:	eb7e 0000 	sbcs.w	r0, lr, r0
10018382:	eb6e 0101 	sbc.w	r1, lr, r1
10018386:	f5b1 1f80 	cmp.w	r1, #1048576	@ 0x100000
1001838a:	d31b      	bcc.n	100183c4 <__adddf3+0x124>
1001838c:	f5b1 1f00 	cmp.w	r1, #2097152	@ 0x200000
10018390:	d30c      	bcc.n	100183ac <__adddf3+0x10c>
10018392:	0849      	lsrs	r1, r1, #1
10018394:	ea5f 0030 	movs.w	r0, r0, rrx
10018398:	ea4f 0c3c 	mov.w	ip, ip, rrx
1001839c:	f104 0401 	add.w	r4, r4, #1
100183a0:	ea4f 5244 	mov.w	r2, r4, lsl #21
100183a4:	f512 0f80 	cmn.w	r2, #4194304	@ 0x400000
100183a8:	f080 809a 	bcs.w	100184e0 <__adddf3+0x240>
100183ac:	f1bc 4f00 	cmp.w	ip, #2147483648	@ 0x80000000
100183b0:	bf08      	it	eq
100183b2:	ea5f 0c50 	movseq.w	ip, r0, lsr #1
100183b6:	f150 0000 	adcs.w	r0, r0, #0
100183ba:	eb41 5104 	adc.w	r1, r1, r4, lsl #20
100183be:	ea41 0105 	orr.w	r1, r1, r5
100183c2:	bd30      	pop	{r4, r5, pc}
100183c4:	ea5f 0c4c 	movs.w	ip, ip, lsl #1
100183c8:	4140      	adcs	r0, r0
100183ca:	eb41 0101 	adc.w	r1, r1, r1
100183ce:	3c01      	subs	r4, #1
100183d0:	bf28      	it	cs
100183d2:	f5b1 1f80 	cmpcs.w	r1, #1048576	@ 0x100000
100183d6:	d2e9      	bcs.n	100183ac <__adddf3+0x10c>
100183d8:	f091 0f00 	teq	r1, #0
100183dc:	bf04      	itt	eq
100183de:	4601      	moveq	r1, r0
100183e0:	2000      	moveq	r0, #0
100183e2:	fab1 f381 	clz	r3, r1
100183e6:	bf08      	it	eq
100183e8:	3320      	addeq	r3, #32
100183ea:	f1a3 030b 	sub.w	r3, r3, #11
100183ee:	f1b3 0220 	subs.w	r2, r3, #32
100183f2:	da0c      	bge.n	1001840e <__adddf3+0x16e>
100183f4:	320c      	adds	r2, #12
100183f6:	dd08      	ble.n	1001840a <__adddf3+0x16a>
100183f8:	f102 0c14 	add.w	ip, r2, #20
100183fc:	f1c2 020c 	rsb	r2, r2, #12
10018400:	fa01 f00c 	lsl.w	r0, r1, ip
10018404:	fa21 f102 	lsr.w	r1, r1, r2
10018408:	e00c      	b.n	10018424 <__adddf3+0x184>
1001840a:	f102 0214 	add.w	r2, r2, #20
1001840e:	bfd8      	it	le
10018410:	f1c2 0c20 	rsble	ip, r2, #32
10018414:	fa01 f102 	lsl.w	r1, r1, r2
10018418:	fa20 fc0c 	lsr.w	ip, r0, ip
1001841c:	bfdc      	itt	le
1001841e:	ea41 010c 	orrle.w	r1, r1, ip
10018422:	4090      	lslle	r0, r2
10018424:	1ae4      	subs	r4, r4, r3
10018426:	bfa2      	ittt	ge
10018428:	eb01 5104 	addge.w	r1, r1, r4, lsl #20
1001842c:	4329      	orrge	r1, r5
1001842e:	bd30      	popge	{r4, r5, pc}
10018430:	ea6f 0404 	mvn.w	r4, r4
10018434:	3c1f      	subs	r4, #31
10018436:	da1c      	bge.n	10018472 <__adddf3+0x1d2>
10018438:	340c      	adds	r4, #12
1001843a:	dc0e      	bgt.n	1001845a <__adddf3+0x1ba>
1001843c:	f104 0414 	add.w	r4, r4, #20
10018440:	f1c4 0220 	rsb	r2, r4, #32
10018444:	fa20 f004 	lsr.w	r0, r0, r4
10018448:	fa01 f302 	lsl.w	r3, r1, r2
1001844c:	ea40 0003 	orr.w	r0, r0, r3
10018450:	fa21 f304 	lsr.w	r3, r1, r4
10018454:	ea45 0103 	orr.w	r1, r5, r3
10018458:	bd30      	pop	{r4, r5, pc}
1001845a:	f1c4 040c 	rsb	r4, r4, #12
1001845e:	f1c4 0220 	rsb	r2, r4, #32
10018462:	fa20 f002 	lsr.w	r0, r0, r2
10018466:	fa01 f304 	lsl.w	r3, r1, r4
1001846a:	ea40 0003 	orr.w	r0, r0, r3
1001846e:	4629      	mov	r1, r5
10018470:	bd30      	pop	{r4, r5, pc}
10018472:	fa21 f004 	lsr.w	r0, r1, r4
10018476:	4629      	mov	r1, r5
10018478:	bd30      	pop	{r4, r5, pc}
1001847a:	f094 0f00 	teq	r4, #0
1001847e:	f483 1380 	eor.w	r3, r3, #1048576	@ 0x100000
10018482:	bf06      	itte	eq
10018484:	f481 1180 	eoreq.w	r1, r1, #1048576	@ 0x100000
10018488:	3401      	addeq	r4, #1
1001848a:	3d01      	subne	r5, #1
1001848c:	e74e      	b.n	1001832c <__adddf3+0x8c>
1001848e:	ea7f 5c64 	mvns.w	ip, r4, asr #21
10018492:	bf18      	it	ne
10018494:	ea7f 5c65 	mvnsne.w	ip, r5, asr #21
10018498:	d029      	beq.n	100184ee <__adddf3+0x24e>
1001849a:	ea94 0f05 	teq	r4, r5
1001849e:	bf08      	it	eq
100184a0:	ea90 0f02 	teqeq	r0, r2
100184a4:	d005      	beq.n	100184b2 <__adddf3+0x212>
100184a6:	ea54 0c00 	orrs.w	ip, r4, r0
100184aa:	bf04      	itt	eq
100184ac:	4619      	moveq	r1, r3
100184ae:	4610      	moveq	r0, r2
100184b0:	bd30      	pop	{r4, r5, pc}
100184b2:	ea91 0f03 	teq	r1, r3
100184b6:	bf1e      	ittt	ne
100184b8:	2100      	movne	r1, #0
100184ba:	2000      	movne	r0, #0
100184bc:	bd30      	popne	{r4, r5, pc}
100184be:	ea5f 5c54 	movs.w	ip, r4, lsr #21
100184c2:	d105      	bne.n	100184d0 <__adddf3+0x230>
100184c4:	0040      	lsls	r0, r0, #1
100184c6:	4149      	adcs	r1, r1
100184c8:	bf28      	it	cs
100184ca:	f041 4100 	orrcs.w	r1, r1, #2147483648	@ 0x80000000
100184ce:	bd30      	pop	{r4, r5, pc}
100184d0:	f514 0480 	adds.w	r4, r4, #4194304	@ 0x400000
100184d4:	bf3c      	itt	cc
100184d6:	f501 1180 	addcc.w	r1, r1, #1048576	@ 0x100000
100184da:	bd30      	popcc	{r4, r5, pc}
100184dc:	f001 4500 	and.w	r5, r1, #2147483648	@ 0x80000000
100184e0:	f045 41fe 	orr.w	r1, r5, #2130706432	@ 0x7f000000
100184e4:	f441 0170 	orr.w	r1, r1, #15728640	@ 0xf00000
100184e8:	f04f 0000 	mov.w	r0, #0
100184ec:	bd30      	pop	{r4, r5, pc}
100184ee:	ea7f 5c64 	mvns.w	ip, r4, asr #21
100184f2:	bf1a      	itte	ne
100184f4:	4619      	movne	r1, r3
100184f6:	4610      	movne	r0, r2
100184f8:	ea7f 5c65 	mvnseq.w	ip, r5, asr #21
100184fc:	bf1c      	itt	ne
100184fe:	460b      	movne	r3, r1
10018500:	4602      	movne	r2, r0
10018502:	ea50 3401 	orrs.w	r4, r0, r1, lsl #12
10018506:	bf06      	itte	eq
10018508:	ea52 3503 	orrseq.w	r5, r2, r3, lsl #12
1001850c:	ea91 0f03 	teqeq	r1, r3
10018510:	f441 2100 	orrne.w	r1, r1, #524288	@ 0x80000
10018514:	bd30      	pop	{r4, r5, pc}
10018516:	bf00      	nop

10018518 <__aeabi_ui2d>:
10018518:	f090 0f00 	teq	r0, #0
1001851c:	bf04      	itt	eq
1001851e:	2100      	moveq	r1, #0
10018520:	4770      	bxeq	lr
10018522:	b530      	push	{r4, r5, lr}
10018524:	f44f 6480 	mov.w	r4, #1024	@ 0x400
10018528:	f104 0432 	add.w	r4, r4, #50	@ 0x32
1001852c:	f04f 0500 	mov.w	r5, #0
10018530:	f04f 0100 	mov.w	r1, #0
10018534:	e750      	b.n	100183d8 <__adddf3+0x138>
10018536:	bf00      	nop

10018538 <__aeabi_i2d>:
10018538:	f090 0f00 	teq	r0, #0
1001853c:	bf04      	itt	eq
1001853e:	2100      	moveq	r1, #0
10018540:	4770      	bxeq	lr
10018542:	b530      	push	{r4, r5, lr}
10018544:	f44f 6480 	mov.w	r4, #1024	@ 0x400
10018548:	f104 0432 	add.w	r4, r4, #50	@ 0x32
1001854c:	f010 4500 	ands.w	r5, r0, #2147483648	@ 0x80000000
10018550:	bf48      	it	mi
10018552:	4240      	negmi	r0, r0
10018554:	f04f 0100 	mov.w	r1, #0
10018558:	e73e      	b.n	100183d8 <__adddf3+0x138>
1001855a:	bf00      	nop

1001855c <__aeabi_f2d>:
1001855c:	0042      	lsls	r2, r0, #1
1001855e:	ea4f 01e2 	mov.w	r1, r2, asr #3
10018562:	ea4f 0131 	mov.w	r1, r1, rrx
10018566:	ea4f 7002 	mov.w	r0, r2, lsl #28
1001856a:	bf1f      	itttt	ne
1001856c:	f012 437f 	andsne.w	r3, r2, #4278190080	@ 0xff000000
10018570:	f093 4f7f 	teqne	r3, #4278190080	@ 0xff000000
10018574:	f081 5160 	eorne.w	r1, r1, #939524096	@ 0x38000000
10018578:	4770      	bxne	lr
1001857a:	f032 427f 	bics.w	r2, r2, #4278190080	@ 0xff000000
1001857e:	bf08      	it	eq
10018580:	4770      	bxeq	lr
10018582:	f093 4f7f 	teq	r3, #4278190080	@ 0xff000000
10018586:	bf04      	itt	eq
10018588:	f441 2100 	orreq.w	r1, r1, #524288	@ 0x80000
1001858c:	4770      	bxeq	lr
1001858e:	b530      	push	{r4, r5, lr}
10018590:	f44f 7460 	mov.w	r4, #896	@ 0x380
10018594:	f001 4500 	and.w	r5, r1, #2147483648	@ 0x80000000
10018598:	f021 4100 	bic.w	r1, r1, #2147483648	@ 0x80000000
1001859c:	e71c      	b.n	100183d8 <__adddf3+0x138>
1001859e:	bf00      	nop

100185a0 <__aeabi_ul2d>:
100185a0:	ea50 0201 	orrs.w	r2, r0, r1
100185a4:	bf08      	it	eq
100185a6:	4770      	bxeq	lr
100185a8:	b530      	push	{r4, r5, lr}
100185aa:	f04f 0500 	mov.w	r5, #0
100185ae:	e00a      	b.n	100185c6 <__aeabi_l2d+0x16>

100185b0 <__aeabi_l2d>:
100185b0:	ea50 0201 	orrs.w	r2, r0, r1
100185b4:	bf08      	it	eq
100185b6:	4770      	bxeq	lr
100185b8:	b530      	push	{r4, r5, lr}
100185ba:	f011 4500 	ands.w	r5, r1, #2147483648	@ 0x80000000
100185be:	d502      	bpl.n	100185c6 <__aeabi_l2d+0x16>
100185c0:	4240      	negs	r0, r0
100185c2:	eb61 0141 	sbc.w	r1, r1, r1, lsl #1
100185c6:	f44f 6480 	mov.w	r4, #1024	@ 0x400
100185ca:	f104 0432 	add.w	r4, r4, #50	@ 0x32
100185ce:	ea5f 5c91 	movs.w	ip, r1, lsr #22
100185d2:	f43f aed8 	beq.w	10018386 <__adddf3+0xe6>
100185d6:	f04f 0203 	mov.w	r2, #3
100185da:	ea5f 0cdc 	movs.w	ip, ip, lsr #3
100185de:	bf18      	it	ne
100185e0:	3203      	addne	r2, #3
100185e2:	ea5f 0cdc 	movs.w	ip, ip, lsr #3
100185e6:	bf18      	it	ne
100185e8:	3203      	addne	r2, #3
100185ea:	eb02 02dc 	add.w	r2, r2, ip, lsr #3
100185ee:	f1c2 0320 	rsb	r3, r2, #32
100185f2:	fa00 fc03 	lsl.w	ip, r0, r3
100185f6:	fa20 f002 	lsr.w	r0, r0, r2
100185fa:	fa01 fe03 	lsl.w	lr, r1, r3
100185fe:	ea40 000e 	orr.w	r0, r0, lr
10018602:	fa21 f102 	lsr.w	r1, r1, r2
10018606:	4414      	add	r4, r2
10018608:	e6bd      	b.n	10018386 <__adddf3+0xe6>
1001860a:	bf00      	nop

1001860c <__aeabi_dmul>:
1001860c:	b570      	push	{r4, r5, r6, lr}
1001860e:	f04f 0cff 	mov.w	ip, #255	@ 0xff
10018612:	f44c 6ce0 	orr.w	ip, ip, #1792	@ 0x700
10018616:	ea1c 5411 	ands.w	r4, ip, r1, lsr #20
1001861a:	bf1d      	ittte	ne
1001861c:	ea1c 5513 	andsne.w	r5, ip, r3, lsr #20
10018620:	ea94 0f0c 	teqne	r4, ip
10018624:	ea95 0f0c 	teqne	r5, ip
10018628:	f000 f8de 	bleq	100187e8 <__aeabi_dmul+0x1dc>
1001862c:	442c      	add	r4, r5
1001862e:	ea81 0603 	eor.w	r6, r1, r3
10018632:	ea21 514c 	bic.w	r1, r1, ip, lsl #21
10018636:	ea23 534c 	bic.w	r3, r3, ip, lsl #21
1001863a:	ea50 3501 	orrs.w	r5, r0, r1, lsl #12
1001863e:	bf18      	it	ne
10018640:	ea52 3503 	orrsne.w	r5, r2, r3, lsl #12
10018644:	f441 1180 	orr.w	r1, r1, #1048576	@ 0x100000
10018648:	f443 1380 	orr.w	r3, r3, #1048576	@ 0x100000
1001864c:	d038      	beq.n	100186c0 <__aeabi_dmul+0xb4>
1001864e:	fba0 ce02 	umull	ip, lr, r0, r2
10018652:	f04f 0500 	mov.w	r5, #0
10018656:	fbe1 e502 	umlal	lr, r5, r1, r2
1001865a:	f006 4200 	and.w	r2, r6, #2147483648	@ 0x80000000
1001865e:	fbe0 e503 	umlal	lr, r5, r0, r3
10018662:	f04f 0600 	mov.w	r6, #0
10018666:	fbe1 5603 	umlal	r5, r6, r1, r3
1001866a:	f09c 0f00 	teq	ip, #0
1001866e:	bf18      	it	ne
10018670:	f04e 0e01 	orrne.w	lr, lr, #1
10018674:	f1a4 04ff 	sub.w	r4, r4, #255	@ 0xff
10018678:	f5b6 7f00 	cmp.w	r6, #512	@ 0x200
1001867c:	f564 7440 	sbc.w	r4, r4, #768	@ 0x300
10018680:	d204      	bcs.n	1001868c <__aeabi_dmul+0x80>
10018682:	ea5f 0e4e 	movs.w	lr, lr, lsl #1
10018686:	416d      	adcs	r5, r5
10018688:	eb46 0606 	adc.w	r6, r6, r6
1001868c:	ea42 21c6 	orr.w	r1, r2, r6, lsl #11
10018690:	ea41 5155 	orr.w	r1, r1, r5, lsr #21
10018694:	ea4f 20c5 	mov.w	r0, r5, lsl #11
10018698:	ea40 505e 	orr.w	r0, r0, lr, lsr #21
1001869c:	ea4f 2ece 	mov.w	lr, lr, lsl #11
100186a0:	f1b4 0cfd 	subs.w	ip, r4, #253	@ 0xfd
100186a4:	bf88      	it	hi
100186a6:	f5bc 6fe0 	cmphi.w	ip, #1792	@ 0x700
100186aa:	d81e      	bhi.n	100186ea <__aeabi_dmul+0xde>
100186ac:	f1be 4f00 	cmp.w	lr, #2147483648	@ 0x80000000
100186b0:	bf08      	it	eq
100186b2:	ea5f 0e50 	movseq.w	lr, r0, lsr #1
100186b6:	f150 0000 	adcs.w	r0, r0, #0
100186ba:	eb41 5104 	adc.w	r1, r1, r4, lsl #20
100186be:	bd70      	pop	{r4, r5, r6, pc}
100186c0:	f006 4600 	and.w	r6, r6, #2147483648	@ 0x80000000
100186c4:	ea46 0101 	orr.w	r1, r6, r1
100186c8:	ea40 0002 	orr.w	r0, r0, r2
100186cc:	ea81 0103 	eor.w	r1, r1, r3
100186d0:	ebb4 045c 	subs.w	r4, r4, ip, lsr #1
100186d4:	bfc2      	ittt	gt
100186d6:	ebd4 050c 	rsbsgt	r5, r4, ip
100186da:	ea41 5104 	orrgt.w	r1, r1, r4, lsl #20
100186de:	bd70      	popgt	{r4, r5, r6, pc}
100186e0:	f441 1180 	orr.w	r1, r1, #1048576	@ 0x100000
100186e4:	f04f 0e00 	mov.w	lr, #0
100186e8:	3c01      	subs	r4, #1
100186ea:	f300 80ab 	bgt.w	10018844 <__aeabi_dmul+0x238>
100186ee:	f114 0f36 	cmn.w	r4, #54	@ 0x36
100186f2:	bfde      	ittt	le
100186f4:	2000      	movle	r0, #0
100186f6:	f001 4100 	andle.w	r1, r1, #2147483648	@ 0x80000000
100186fa:	bd70      	pople	{r4, r5, r6, pc}
100186fc:	f1c4 0400 	rsb	r4, r4, #0
10018700:	3c20      	subs	r4, #32
10018702:	da35      	bge.n	10018770 <__aeabi_dmul+0x164>
10018704:	340c      	adds	r4, #12
10018706:	dc1b      	bgt.n	10018740 <__aeabi_dmul+0x134>
10018708:	f104 0414 	add.w	r4, r4, #20
1001870c:	f1c4 0520 	rsb	r5, r4, #32
10018710:	fa00 f305 	lsl.w	r3, r0, r5
10018714:	fa20 f004 	lsr.w	r0, r0, r4
10018718:	fa01 f205 	lsl.w	r2, r1, r5
1001871c:	ea40 0002 	orr.w	r0, r0, r2
10018720:	f001 4200 	and.w	r2, r1, #2147483648	@ 0x80000000
10018724:	f021 4100 	bic.w	r1, r1, #2147483648	@ 0x80000000
10018728:	eb10 70d3 	adds.w	r0, r0, r3, lsr #31
1001872c:	fa21 f604 	lsr.w	r6, r1, r4
10018730:	eb42 0106 	adc.w	r1, r2, r6
10018734:	ea5e 0e43 	orrs.w	lr, lr, r3, lsl #1
10018738:	bf08      	it	eq
1001873a:	ea20 70d3 	biceq.w	r0, r0, r3, lsr #31
1001873e:	bd70      	pop	{r4, r5, r6, pc}
10018740:	f1c4 040c 	rsb	r4, r4, #12
10018744:	f1c4 0520 	rsb	r5, r4, #32
10018748:	fa00 f304 	lsl.w	r3, r0, r4
1001874c:	fa20 f005 	lsr.w	r0, r0, r5
10018750:	fa01 f204 	lsl.w	r2, r1, r4
10018754:	ea40 0002 	orr.w	r0, r0, r2
10018758:	f001 4100 	and.w	r1, r1, #2147483648	@ 0x80000000
1001875c:	eb10 70d3 	adds.w	r0, r0, r3, lsr #31
10018760:	f141 0100 	adc.w	r1, r1, #0
10018764:	ea5e 0e43 	orrs.w	lr, lr, r3, lsl #1
10018768:	bf08      	it	eq
1001876a:	ea20 70d3 	biceq.w	r0, r0, r3, lsr #31
1001876e:	bd70      	pop	{r4, r5, r6, pc}
10018770:	f1c4 0520 	rsb	r5, r4, #32
10018774:	fa00 f205 	lsl.w	r2, r0, r5
10018778:	ea4e 0e02 	orr.w	lr, lr, r2
1001877c:	fa20 f304 	lsr.w	r3, r0, r4
10018780:	fa01 f205 	lsl.w	r2, r1, r5
10018784:	ea43 0302 	orr.w	r3, r3, r2
10018788:	fa21 f004 	lsr.w	r0, r1, r4
1001878c:	f001 4100 	and.w	r1, r1, #2147483648	@ 0x80000000
10018790:	fa21 f204 	lsr.w	r2, r1, r4
10018794:	ea20 0002 	bic.w	r0, r0, r2
10018798:	eb00 70d3 	add.w	r0, r0, r3, lsr #31
1001879c:	ea5e 0e43 	orrs.w	lr, lr, r3, lsl #1
100187a0:	bf08      	it	eq
100187a2:	ea20 70d3 	biceq.w	r0, r0, r3, lsr #31
100187a6:	bd70      	pop	{r4, r5, r6, pc}
100187a8:	f094 0f00 	teq	r4, #0
100187ac:	d10f      	bne.n	100187ce <__aeabi_dmul+0x1c2>
100187ae:	f001 4600 	and.w	r6, r1, #2147483648	@ 0x80000000
100187b2:	0040      	lsls	r0, r0, #1
100187b4:	eb41 0101 	adc.w	r1, r1, r1
100187b8:	f411 1f80 	tst.w	r1, #1048576	@ 0x100000
100187bc:	bf08      	it	eq
100187be:	3c01      	subeq	r4, #1
100187c0:	d0f7      	beq.n	100187b2 <__aeabi_dmul+0x1a6>
100187c2:	ea41 0106 	orr.w	r1, r1, r6
100187c6:	f095 0f00 	teq	r5, #0
100187ca:	bf18      	it	ne
100187cc:	4770      	bxne	lr
100187ce:	f003 4600 	and.w	r6, r3, #2147483648	@ 0x80000000
100187d2:	0052      	lsls	r2, r2, #1
100187d4:	eb43 0303 	adc.w	r3, r3, r3
100187d8:	f413 1f80 	tst.w	r3, #1048576	@ 0x100000
100187dc:	bf08      	it	eq
100187de:	3d01      	subeq	r5, #1
100187e0:	d0f7      	beq.n	100187d2 <__aeabi_dmul+0x1c6>
100187e2:	ea43 0306 	orr.w	r3, r3, r6
100187e6:	4770      	bx	lr
100187e8:	ea94 0f0c 	teq	r4, ip
100187ec:	ea0c 5513 	and.w	r5, ip, r3, lsr #20
100187f0:	bf18      	it	ne
100187f2:	ea95 0f0c 	teqne	r5, ip
100187f6:	d00c      	beq.n	10018812 <__aeabi_dmul+0x206>
100187f8:	ea50 0641 	orrs.w	r6, r0, r1, lsl #1
100187fc:	bf18      	it	ne
100187fe:	ea52 0643 	orrsne.w	r6, r2, r3, lsl #1
10018802:	d1d1      	bne.n	100187a8 <__aeabi_dmul+0x19c>
10018804:	ea81 0103 	eor.w	r1, r1, r3
10018808:	f001 4100 	and.w	r1, r1, #2147483648	@ 0x80000000
1001880c:	f04f 0000 	mov.w	r0, #0
10018810:	bd70      	pop	{r4, r5, r6, pc}
10018812:	ea50 0641 	orrs.w	r6, r0, r1, lsl #1
10018816:	bf06      	itte	eq
10018818:	4610      	moveq	r0, r2
1001881a:	4619      	moveq	r1, r3
1001881c:	ea52 0643 	orrsne.w	r6, r2, r3, lsl #1
10018820:	d019      	beq.n	10018856 <__aeabi_dmul+0x24a>
10018822:	ea94 0f0c 	teq	r4, ip
10018826:	d102      	bne.n	1001882e <__aeabi_dmul+0x222>
10018828:	ea50 3601 	orrs.w	r6, r0, r1, lsl #12
1001882c:	d113      	bne.n	10018856 <__aeabi_dmul+0x24a>
1001882e:	ea95 0f0c 	teq	r5, ip
10018832:	d105      	bne.n	10018840 <__aeabi_dmul+0x234>
10018834:	ea52 3603 	orrs.w	r6, r2, r3, lsl #12
10018838:	bf1c      	itt	ne
1001883a:	4610      	movne	r0, r2
1001883c:	4619      	movne	r1, r3
1001883e:	d10a      	bne.n	10018856 <__aeabi_dmul+0x24a>
10018840:	ea81 0103 	eor.w	r1, r1, r3
10018844:	f001 4100 	and.w	r1, r1, #2147483648	@ 0x80000000
10018848:	f041 41fe 	orr.w	r1, r1, #2130706432	@ 0x7f000000
1001884c:	f441 0170 	orr.w	r1, r1, #15728640	@ 0xf00000
10018850:	f04f 0000 	mov.w	r0, #0
10018854:	bd70      	pop	{r4, r5, r6, pc}
10018856:	f041 41fe 	orr.w	r1, r1, #2130706432	@ 0x7f000000
1001885a:	f441 0178 	orr.w	r1, r1, #16252928	@ 0xf80000
1001885e:	bd70      	pop	{r4, r5, r6, pc}

10018860 <__aeabi_ddiv>:
10018860:	b570      	push	{r4, r5, r6, lr}
10018862:	f04f 0cff 	mov.w	ip, #255	@ 0xff
10018866:	f44c 6ce0 	orr.w	ip, ip, #1792	@ 0x700
1001886a:	ea1c 5411 	ands.w	r4, ip, r1, lsr #20
1001886e:	bf1d      	ittte	ne
10018870:	ea1c 5513 	andsne.w	r5, ip, r3, lsr #20
10018874:	ea94 0f0c 	teqne	r4, ip
10018878:	ea95 0f0c 	teqne	r5, ip
1001887c:	f000 f8a7 	bleq	100189ce <__aeabi_ddiv+0x16e>
10018880:	eba4 0405 	sub.w	r4, r4, r5
10018884:	ea81 0e03 	eor.w	lr, r1, r3
10018888:	ea52 3503 	orrs.w	r5, r2, r3, lsl #12
1001888c:	ea4f 3101 	mov.w	r1, r1, lsl #12
10018890:	f000 8088 	beq.w	100189a4 <__aeabi_ddiv+0x144>
10018894:	ea4f 3303 	mov.w	r3, r3, lsl #12
10018898:	f04f 5580 	mov.w	r5, #268435456	@ 0x10000000
1001889c:	ea45 1313 	orr.w	r3, r5, r3, lsr #4
100188a0:	ea43 6312 	orr.w	r3, r3, r2, lsr #24
100188a4:	ea4f 2202 	mov.w	r2, r2, lsl #8
100188a8:	ea45 1511 	orr.w	r5, r5, r1, lsr #4
100188ac:	ea45 6510 	orr.w	r5, r5, r0, lsr #24
100188b0:	ea4f 2600 	mov.w	r6, r0, lsl #8
100188b4:	f00e 4100 	and.w	r1, lr, #2147483648	@ 0x80000000
100188b8:	429d      	cmp	r5, r3
100188ba:	bf08      	it	eq
100188bc:	4296      	cmpeq	r6, r2
100188be:	f144 04fd 	adc.w	r4, r4, #253	@ 0xfd
100188c2:	f504 7440 	add.w	r4, r4, #768	@ 0x300
100188c6:	d202      	bcs.n	100188ce <__aeabi_ddiv+0x6e>
100188c8:	085b      	lsrs	r3, r3, #1
100188ca:	ea4f 0232 	mov.w	r2, r2, rrx
100188ce:	1ab6      	subs	r6, r6, r2
100188d0:	eb65 0503 	sbc.w	r5, r5, r3
100188d4:	085b      	lsrs	r3, r3, #1
100188d6:	ea4f 0232 	mov.w	r2, r2, rrx
100188da:	f44f 1080 	mov.w	r0, #1048576	@ 0x100000
100188de:	f44f 2c00 	mov.w	ip, #524288	@ 0x80000
100188e2:	ebb6 0e02 	subs.w	lr, r6, r2
100188e6:	eb75 0e03 	sbcs.w	lr, r5, r3
100188ea:	bf22      	ittt	cs
100188ec:	1ab6      	subcs	r6, r6, r2
100188ee:	4675      	movcs	r5, lr
100188f0:	ea40 000c 	orrcs.w	r0, r0, ip
100188f4:	085b      	lsrs	r3, r3, #1
100188f6:	ea4f 0232 	mov.w	r2, r2, rrx
100188fa:	ebb6 0e02 	subs.w	lr, r6, r2
100188fe:	eb75 0e03 	sbcs.w	lr, r5, r3
10018902:	bf22      	ittt	cs
10018904:	1ab6      	subcs	r6, r6, r2
10018906:	4675      	movcs	r5, lr
10018908:	ea40 005c 	orrcs.w	r0, r0, ip, lsr #1
1001890c:	085b      	lsrs	r3, r3, #1
1001890e:	ea4f 0232 	mov.w	r2, r2, rrx
10018912:	ebb6 0e02 	subs.w	lr, r6, r2
10018916:	eb75 0e03 	sbcs.w	lr, r5, r3
1001891a:	bf22      	ittt	cs
1001891c:	1ab6      	subcs	r6, r6, r2
1001891e:	4675      	movcs	r5, lr
10018920:	ea40 009c 	orrcs.w	r0, r0, ip, lsr #2
10018924:	085b      	lsrs	r3, r3, #1
10018926:	ea4f 0232 	mov.w	r2, r2, rrx
1001892a:	ebb6 0e02 	subs.w	lr, r6, r2
1001892e:	eb75 0e03 	sbcs.w	lr, r5, r3
10018932:	bf22      	ittt	cs
10018934:	1ab6      	subcs	r6, r6, r2
10018936:	4675      	movcs	r5, lr
10018938:	ea40 00dc 	orrcs.w	r0, r0, ip, lsr #3
1001893c:	ea55 0e06 	orrs.w	lr, r5, r6
10018940:	d018      	beq.n	10018974 <__aeabi_ddiv+0x114>
10018942:	ea4f 1505 	mov.w	r5, r5, lsl #4
10018946:	ea45 7516 	orr.w	r5, r5, r6, lsr #28
1001894a:	ea4f 1606 	mov.w	r6, r6, lsl #4
1001894e:	ea4f 03c3 	mov.w	r3, r3, lsl #3
10018952:	ea43 7352 	orr.w	r3, r3, r2, lsr #29
10018956:	ea4f 02c2 	mov.w	r2, r2, lsl #3
1001895a:	ea5f 1c1c 	movs.w	ip, ip, lsr #4
1001895e:	d1c0      	bne.n	100188e2 <__aeabi_ddiv+0x82>
10018960:	f411 1f80 	tst.w	r1, #1048576	@ 0x100000
10018964:	d10b      	bne.n	1001897e <__aeabi_ddiv+0x11e>
10018966:	ea41 0100 	orr.w	r1, r1, r0
1001896a:	f04f 0000 	mov.w	r0, #0
1001896e:	f04f 4c00 	mov.w	ip, #2147483648	@ 0x80000000
10018972:	e7b6      	b.n	100188e2 <__aeabi_ddiv+0x82>
10018974:	f411 1f80 	tst.w	r1, #1048576	@ 0x100000
10018978:	bf04      	itt	eq
1001897a:	4301      	orreq	r1, r0
1001897c:	2000      	moveq	r0, #0
1001897e:	f1b4 0cfd 	subs.w	ip, r4, #253	@ 0xfd
10018982:	bf88      	it	hi
10018984:	f5bc 6fe0 	cmphi.w	ip, #1792	@ 0x700
10018988:	f63f aeaf 	bhi.w	100186ea <__aeabi_dmul+0xde>
1001898c:	ebb5 0c03 	subs.w	ip, r5, r3
10018990:	bf04      	itt	eq
10018992:	ebb6 0c02 	subseq.w	ip, r6, r2
10018996:	ea5f 0c50 	movseq.w	ip, r0, lsr #1
1001899a:	f150 0000 	adcs.w	r0, r0, #0
1001899e:	eb41 5104 	adc.w	r1, r1, r4, lsl #20
100189a2:	bd70      	pop	{r4, r5, r6, pc}
100189a4:	f00e 4e00 	and.w	lr, lr, #2147483648	@ 0x80000000
100189a8:	ea4e 3111 	orr.w	r1, lr, r1, lsr #12
100189ac:	eb14 045c 	adds.w	r4, r4, ip, lsr #1
100189b0:	bfc2      	ittt	gt
100189b2:	ebd4 050c 	rsbsgt	r5, r4, ip
100189b6:	ea41 5104 	orrgt.w	r1, r1, r4, lsl #20
100189ba:	bd70      	popgt	{r4, r5, r6, pc}
100189bc:	f441 1180 	orr.w	r1, r1, #1048576	@ 0x100000
100189c0:	f04f 0e00 	mov.w	lr, #0
100189c4:	3c01      	subs	r4, #1
100189c6:	e690      	b.n	100186ea <__aeabi_dmul+0xde>
100189c8:	ea45 0e06 	orr.w	lr, r5, r6
100189cc:	e68d      	b.n	100186ea <__aeabi_dmul+0xde>
100189ce:	ea0c 5513 	and.w	r5, ip, r3, lsr #20
100189d2:	ea94 0f0c 	teq	r4, ip
100189d6:	bf08      	it	eq
100189d8:	ea95 0f0c 	teqeq	r5, ip
100189dc:	f43f af3b 	beq.w	10018856 <__aeabi_dmul+0x24a>
100189e0:	ea94 0f0c 	teq	r4, ip
100189e4:	d10a      	bne.n	100189fc <__aeabi_ddiv+0x19c>
100189e6:	ea50 3401 	orrs.w	r4, r0, r1, lsl #12
100189ea:	f47f af34 	bne.w	10018856 <__aeabi_dmul+0x24a>
100189ee:	ea95 0f0c 	teq	r5, ip
100189f2:	f47f af25 	bne.w	10018840 <__aeabi_dmul+0x234>
100189f6:	4610      	mov	r0, r2
100189f8:	4619      	mov	r1, r3
100189fa:	e72c      	b.n	10018856 <__aeabi_dmul+0x24a>
100189fc:	ea95 0f0c 	teq	r5, ip
10018a00:	d106      	bne.n	10018a10 <__aeabi_ddiv+0x1b0>
10018a02:	ea52 3503 	orrs.w	r5, r2, r3, lsl #12
10018a06:	f43f aefd 	beq.w	10018804 <__aeabi_dmul+0x1f8>
10018a0a:	4610      	mov	r0, r2
10018a0c:	4619      	mov	r1, r3
10018a0e:	e722      	b.n	10018856 <__aeabi_dmul+0x24a>
10018a10:	ea50 0641 	orrs.w	r6, r0, r1, lsl #1
10018a14:	bf18      	it	ne
10018a16:	ea52 0643 	orrsne.w	r6, r2, r3, lsl #1
10018a1a:	f47f aec5 	bne.w	100187a8 <__aeabi_dmul+0x19c>
10018a1e:	ea50 0441 	orrs.w	r4, r0, r1, lsl #1
10018a22:	f47f af0d 	bne.w	10018840 <__aeabi_dmul+0x234>
10018a26:	ea52 0543 	orrs.w	r5, r2, r3, lsl #1
10018a2a:	f47f aeeb 	bne.w	10018804 <__aeabi_dmul+0x1f8>
10018a2e:	e712      	b.n	10018856 <__aeabi_dmul+0x24a>

10018a30 <__gedf2>:
10018a30:	f04f 3cff 	mov.w	ip, #4294967295	@ 0xffffffff
10018a34:	e006      	b.n	10018a44 <__cmpdf2+0x4>
10018a36:	bf00      	nop

10018a38 <__ledf2>:
10018a38:	f04f 0c01 	mov.w	ip, #1
10018a3c:	e002      	b.n	10018a44 <__cmpdf2+0x4>
10018a3e:	bf00      	nop

10018a40 <__cmpdf2>:
10018a40:	f04f 0c01 	mov.w	ip, #1
10018a44:	f84d cd04 	str.w	ip, [sp, #-4]!
10018a48:	ea4f 0c41 	mov.w	ip, r1, lsl #1
10018a4c:	ea7f 5c6c 	mvns.w	ip, ip, asr #21
10018a50:	ea4f 0c43 	mov.w	ip, r3, lsl #1
10018a54:	bf18      	it	ne
10018a56:	ea7f 5c6c 	mvnsne.w	ip, ip, asr #21
10018a5a:	d01b      	beq.n	10018a94 <__cmpdf2+0x54>
10018a5c:	b001      	add	sp, #4
10018a5e:	ea50 0c41 	orrs.w	ip, r0, r1, lsl #1
10018a62:	bf0c      	ite	eq
10018a64:	ea52 0c43 	orrseq.w	ip, r2, r3, lsl #1
10018a68:	ea91 0f03 	teqne	r1, r3
10018a6c:	bf02      	ittt	eq
10018a6e:	ea90 0f02 	teqeq	r0, r2
10018a72:	2000      	moveq	r0, #0
10018a74:	4770      	bxeq	lr
10018a76:	f110 0f00 	cmn.w	r0, #0
10018a7a:	ea91 0f03 	teq	r1, r3
10018a7e:	bf58      	it	pl
10018a80:	4299      	cmppl	r1, r3
10018a82:	bf08      	it	eq
10018a84:	4290      	cmpeq	r0, r2
10018a86:	bf2c      	ite	cs
10018a88:	17d8      	asrcs	r0, r3, #31
10018a8a:	ea6f 70e3 	mvncc.w	r0, r3, asr #31
10018a8e:	f040 0001 	orr.w	r0, r0, #1
10018a92:	4770      	bx	lr
10018a94:	ea4f 0c41 	mov.w	ip, r1, lsl #1
10018a98:	ea7f 5c6c 	mvns.w	ip, ip, asr #21
10018a9c:	d102      	bne.n	10018aa4 <__cmpdf2+0x64>
10018a9e:	ea50 3c01 	orrs.w	ip, r0, r1, lsl #12
10018aa2:	d107      	bne.n	10018ab4 <__cmpdf2+0x74>
10018aa4:	ea4f 0c43 	mov.w	ip, r3, lsl #1
10018aa8:	ea7f 5c6c 	mvns.w	ip, ip, asr #21
10018aac:	d1d6      	bne.n	10018a5c <__cmpdf2+0x1c>
10018aae:	ea52 3c03 	orrs.w	ip, r2, r3, lsl #12
10018ab2:	d0d3      	beq.n	10018a5c <__cmpdf2+0x1c>
10018ab4:	f85d 0b04 	ldr.w	r0, [sp], #4
10018ab8:	4770      	bx	lr
10018aba:	bf00      	nop

10018abc <__aeabi_cdrcmple>:
10018abc:	4684      	mov	ip, r0
10018abe:	4610      	mov	r0, r2
10018ac0:	4662      	mov	r2, ip
10018ac2:	468c      	mov	ip, r1
10018ac4:	4619      	mov	r1, r3
10018ac6:	4663      	mov	r3, ip
10018ac8:	e000      	b.n	10018acc <__aeabi_cdcmpeq>
10018aca:	bf00      	nop

10018acc <__aeabi_cdcmpeq>:
10018acc:	b501      	push	{r0, lr}
10018ace:	f7ff ffb7 	bl	10018a40 <__cmpdf2>
10018ad2:	2800      	cmp	r0, #0
10018ad4:	bf48      	it	mi
10018ad6:	f110 0f00 	cmnmi.w	r0, #0
10018ada:	bd01      	pop	{r0, pc}

10018adc <__aeabi_dcmpeq>:
10018adc:	f84d ed08 	str.w	lr, [sp, #-8]!
10018ae0:	f7ff fff4 	bl	10018acc <__aeabi_cdcmpeq>
10018ae4:	bf0c      	ite	eq
10018ae6:	2001      	moveq	r0, #1
10018ae8:	2000      	movne	r0, #0
10018aea:	f85d fb08 	ldr.w	pc, [sp], #8
10018aee:	bf00      	nop

10018af0 <__aeabi_dcmplt>:
10018af0:	f84d ed08 	str.w	lr, [sp, #-8]!
10018af4:	f7ff ffea 	bl	10018acc <__aeabi_cdcmpeq>
10018af8:	bf34      	ite	cc
10018afa:	2001      	movcc	r0, #1
10018afc:	2000      	movcs	r0, #0
10018afe:	f85d fb08 	ldr.w	pc, [sp], #8
10018b02:	bf00      	nop

10018b04 <__aeabi_dcmple>:
10018b04:	f84d ed08 	str.w	lr, [sp, #-8]!
10018b08:	f7ff ffe0 	bl	10018acc <__aeabi_cdcmpeq>
10018b0c:	bf94      	ite	ls
10018b0e:	2001      	movls	r0, #1
10018b10:	2000      	movhi	r0, #0
10018b12:	f85d fb08 	ldr.w	pc, [sp], #8
10018b16:	bf00      	nop

10018b18 <__aeabi_dcmpge>:
10018b18:	f84d ed08 	str.w	lr, [sp, #-8]!
10018b1c:	f7ff ffce 	bl	10018abc <__aeabi_cdrcmple>
10018b20:	bf94      	ite	ls
10018b22:	2001      	movls	r0, #1
10018b24:	2000      	movhi	r0, #0
10018b26:	f85d fb08 	ldr.w	pc, [sp], #8
10018b2a:	bf00      	nop

10018b2c <__aeabi_dcmpgt>:
10018b2c:	f84d ed08 	str.w	lr, [sp, #-8]!
10018b30:	f7ff ffc4 	bl	10018abc <__aeabi_cdrcmple>
10018b34:	bf34      	ite	cc
10018b36:	2001      	movcc	r0, #1
10018b38:	2000      	movcs	r0, #0
10018b3a:	f85d fb08 	ldr.w	pc, [sp], #8
10018b3e:	bf00      	nop

10018b40 <__aeabi_dcmpun>:
10018b40:	ea4f 0c41 	mov.w	ip, r1, lsl #1
10018b44:	ea7f 5c6c 	mvns.w	ip, ip, asr #21
10018b48:	d102      	bne.n	10018b50 <__aeabi_dcmpun+0x10>
10018b4a:	ea50 3c01 	orrs.w	ip, r0, r1, lsl #12
10018b4e:	d10a      	bne.n	10018b66 <__aeabi_dcmpun+0x26>
10018b50:	ea4f 0c43 	mov.w	ip, r3, lsl #1
10018b54:	ea7f 5c6c 	mvns.w	ip, ip, asr #21
10018b58:	d102      	bne.n	10018b60 <__aeabi_dcmpun+0x20>
10018b5a:	ea52 3c03 	orrs.w	ip, r2, r3, lsl #12
10018b5e:	d102      	bne.n	10018b66 <__aeabi_dcmpun+0x26>
10018b60:	f04f 0000 	mov.w	r0, #0
10018b64:	4770      	bx	lr
10018b66:	f04f 0001 	mov.w	r0, #1
10018b6a:	4770      	bx	lr

10018b6c <__aeabi_d2iz>:
10018b6c:	ea4f 0241 	mov.w	r2, r1, lsl #1
10018b70:	f512 1200 	adds.w	r2, r2, #2097152	@ 0x200000
10018b74:	d215      	bcs.n	10018ba2 <__aeabi_d2iz+0x36>
10018b76:	d511      	bpl.n	10018b9c <__aeabi_d2iz+0x30>
10018b78:	f46f 7378 	mvn.w	r3, #992	@ 0x3e0
10018b7c:	ebb3 5262 	subs.w	r2, r3, r2, asr #21
10018b80:	d912      	bls.n	10018ba8 <__aeabi_d2iz+0x3c>
10018b82:	ea4f 23c1 	mov.w	r3, r1, lsl #11
10018b86:	f043 4300 	orr.w	r3, r3, #2147483648	@ 0x80000000
10018b8a:	ea43 5350 	orr.w	r3, r3, r0, lsr #21
10018b8e:	f011 4f00 	tst.w	r1, #2147483648	@ 0x80000000
10018b92:	fa23 f002 	lsr.w	r0, r3, r2
10018b96:	bf18      	it	ne
10018b98:	4240      	negne	r0, r0
10018b9a:	4770      	bx	lr
10018b9c:	f04f 0000 	mov.w	r0, #0
10018ba0:	4770      	bx	lr
10018ba2:	ea50 3001 	orrs.w	r0, r0, r1, lsl #12
10018ba6:	d105      	bne.n	10018bb4 <__aeabi_d2iz+0x48>
10018ba8:	f011 4000 	ands.w	r0, r1, #2147483648	@ 0x80000000
10018bac:	bf08      	it	eq
10018bae:	f06f 4000 	mvneq.w	r0, #2147483648	@ 0x80000000
10018bb2:	4770      	bx	lr
10018bb4:	f04f 0000 	mov.w	r0, #0
10018bb8:	4770      	bx	lr
10018bba:	bf00      	nop

10018bbc <__aeabi_uldivmod>:
10018bbc:	b953      	cbnz	r3, 10018bd4 <__aeabi_uldivmod+0x18>
10018bbe:	b94a      	cbnz	r2, 10018bd4 <__aeabi_uldivmod+0x18>
10018bc0:	2900      	cmp	r1, #0
10018bc2:	bf08      	it	eq
10018bc4:	2800      	cmpeq	r0, #0
10018bc6:	bf1c      	itt	ne
10018bc8:	f04f 31ff 	movne.w	r1, #4294967295	@ 0xffffffff
10018bcc:	f04f 30ff 	movne.w	r0, #4294967295	@ 0xffffffff
10018bd0:	f000 b96a 	b.w	10018ea8 <__aeabi_idiv0>
10018bd4:	f1ad 0c08 	sub.w	ip, sp, #8
10018bd8:	e96d ce04 	strd	ip, lr, [sp, #-16]!
10018bdc:	f000 f806 	bl	10018bec <__udivmoddi4>
10018be0:	f8dd e004 	ldr.w	lr, [sp, #4]
10018be4:	e9dd 2302 	ldrd	r2, r3, [sp, #8]
10018be8:	b004      	add	sp, #16
10018bea:	4770      	bx	lr

10018bec <__udivmoddi4>:
10018bec:	e92d 47f0 	stmdb	sp!, {r4, r5, r6, r7, r8, r9, sl, lr}
10018bf0:	9d08      	ldr	r5, [sp, #32]
10018bf2:	460c      	mov	r4, r1
10018bf4:	2b00      	cmp	r3, #0
10018bf6:	d14e      	bne.n	10018c96 <__udivmoddi4+0xaa>
10018bf8:	4694      	mov	ip, r2
10018bfa:	458c      	cmp	ip, r1
10018bfc:	4686      	mov	lr, r0
10018bfe:	fab2 f282 	clz	r2, r2
10018c02:	d962      	bls.n	10018cca <__udivmoddi4+0xde>
10018c04:	b14a      	cbz	r2, 10018c1a <__udivmoddi4+0x2e>
10018c06:	f1c2 0320 	rsb	r3, r2, #32
10018c0a:	4091      	lsls	r1, r2
10018c0c:	fa20 f303 	lsr.w	r3, r0, r3
10018c10:	fa0c fc02 	lsl.w	ip, ip, r2
10018c14:	4319      	orrs	r1, r3
10018c16:	fa00 fe02 	lsl.w	lr, r0, r2
10018c1a:	ea4f 471c 	mov.w	r7, ip, lsr #16
10018c1e:	fa1f f68c 	uxth.w	r6, ip
10018c22:	fbb1 f4f7 	udiv	r4, r1, r7
10018c26:	ea4f 431e 	mov.w	r3, lr, lsr #16
10018c2a:	fb07 1114 	mls	r1, r7, r4, r1
10018c2e:	ea43 4301 	orr.w	r3, r3, r1, lsl #16
10018c32:	fb04 f106 	mul.w	r1, r4, r6
10018c36:	4299      	cmp	r1, r3
10018c38:	d90a      	bls.n	10018c50 <__udivmoddi4+0x64>
10018c3a:	eb1c 0303 	adds.w	r3, ip, r3
10018c3e:	f104 30ff 	add.w	r0, r4, #4294967295	@ 0xffffffff
10018c42:	f080 8112 	bcs.w	10018e6a <__udivmoddi4+0x27e>
10018c46:	4299      	cmp	r1, r3
10018c48:	f240 810f 	bls.w	10018e6a <__udivmoddi4+0x27e>
10018c4c:	3c02      	subs	r4, #2
10018c4e:	4463      	add	r3, ip
10018c50:	1a59      	subs	r1, r3, r1
10018c52:	fa1f f38e 	uxth.w	r3, lr
10018c56:	fbb1 f0f7 	udiv	r0, r1, r7
10018c5a:	fb07 1110 	mls	r1, r7, r0, r1
10018c5e:	ea43 4301 	orr.w	r3, r3, r1, lsl #16
10018c62:	fb00 f606 	mul.w	r6, r0, r6
10018c66:	429e      	cmp	r6, r3
10018c68:	d90a      	bls.n	10018c80 <__udivmoddi4+0x94>
10018c6a:	eb1c 0303 	adds.w	r3, ip, r3
10018c6e:	f100 31ff 	add.w	r1, r0, #4294967295	@ 0xffffffff
10018c72:	f080 80fc 	bcs.w	10018e6e <__udivmoddi4+0x282>
10018c76:	429e      	cmp	r6, r3
10018c78:	f240 80f9 	bls.w	10018e6e <__udivmoddi4+0x282>
10018c7c:	4463      	add	r3, ip
10018c7e:	3802      	subs	r0, #2
10018c80:	1b9b      	subs	r3, r3, r6
10018c82:	ea40 4004 	orr.w	r0, r0, r4, lsl #16
10018c86:	2100      	movs	r1, #0
10018c88:	b11d      	cbz	r5, 10018c92 <__udivmoddi4+0xa6>
10018c8a:	40d3      	lsrs	r3, r2
10018c8c:	2200      	movs	r2, #0
10018c8e:	e9c5 3200 	strd	r3, r2, [r5]
10018c92:	e8bd 87f0 	ldmia.w	sp!, {r4, r5, r6, r7, r8, r9, sl, pc}
10018c96:	428b      	cmp	r3, r1
10018c98:	d905      	bls.n	10018ca6 <__udivmoddi4+0xba>
10018c9a:	b10d      	cbz	r5, 10018ca0 <__udivmoddi4+0xb4>
10018c9c:	e9c5 0100 	strd	r0, r1, [r5]
10018ca0:	2100      	movs	r1, #0
10018ca2:	4608      	mov	r0, r1
10018ca4:	e7f5      	b.n	10018c92 <__udivmoddi4+0xa6>
10018ca6:	fab3 f183 	clz	r1, r3
10018caa:	2900      	cmp	r1, #0
10018cac:	d146      	bne.n	10018d3c <__udivmoddi4+0x150>
10018cae:	42a3      	cmp	r3, r4
10018cb0:	d302      	bcc.n	10018cb8 <__udivmoddi4+0xcc>
10018cb2:	4290      	cmp	r0, r2
10018cb4:	f0c0 80f0 	bcc.w	10018e98 <__udivmoddi4+0x2ac>
10018cb8:	1a86      	subs	r6, r0, r2
10018cba:	eb64 0303 	sbc.w	r3, r4, r3
10018cbe:	2001      	movs	r0, #1
10018cc0:	2d00      	cmp	r5, #0
10018cc2:	d0e6      	beq.n	10018c92 <__udivmoddi4+0xa6>
10018cc4:	e9c5 6300 	strd	r6, r3, [r5]
10018cc8:	e7e3      	b.n	10018c92 <__udivmoddi4+0xa6>
10018cca:	2a00      	cmp	r2, #0
10018ccc:	f040 8090 	bne.w	10018df0 <__udivmoddi4+0x204>
10018cd0:	eba1 040c 	sub.w	r4, r1, ip
10018cd4:	ea4f 481c 	mov.w	r8, ip, lsr #16
10018cd8:	fa1f f78c 	uxth.w	r7, ip
10018cdc:	2101      	movs	r1, #1
10018cde:	fbb4 f6f8 	udiv	r6, r4, r8
10018ce2:	ea4f 431e 	mov.w	r3, lr, lsr #16
10018ce6:	fb08 4416 	mls	r4, r8, r6, r4
10018cea:	ea43 4304 	orr.w	r3, r3, r4, lsl #16
10018cee:	fb07 f006 	mul.w	r0, r7, r6
10018cf2:	4298      	cmp	r0, r3
10018cf4:	d908      	bls.n	10018d08 <__udivmoddi4+0x11c>
10018cf6:	eb1c 0303 	adds.w	r3, ip, r3
10018cfa:	f106 34ff 	add.w	r4, r6, #4294967295	@ 0xffffffff
10018cfe:	d202      	bcs.n	10018d06 <__udivmoddi4+0x11a>
10018d00:	4298      	cmp	r0, r3
10018d02:	f200 80cd 	bhi.w	10018ea0 <__udivmoddi4+0x2b4>
10018d06:	4626      	mov	r6, r4
10018d08:	1a1c      	subs	r4, r3, r0
10018d0a:	fa1f f38e 	uxth.w	r3, lr
10018d0e:	fbb4 f0f8 	udiv	r0, r4, r8
10018d12:	fb08 4410 	mls	r4, r8, r0, r4
10018d16:	ea43 4304 	orr.w	r3, r3, r4, lsl #16
10018d1a:	fb00 f707 	mul.w	r7, r0, r7
10018d1e:	429f      	cmp	r7, r3
10018d20:	d908      	bls.n	10018d34 <__udivmoddi4+0x148>
10018d22:	eb1c 0303 	adds.w	r3, ip, r3
10018d26:	f100 34ff 	add.w	r4, r0, #4294967295	@ 0xffffffff
10018d2a:	d202      	bcs.n	10018d32 <__udivmoddi4+0x146>
10018d2c:	429f      	cmp	r7, r3
10018d2e:	f200 80b0 	bhi.w	10018e92 <__udivmoddi4+0x2a6>
10018d32:	4620      	mov	r0, r4
10018d34:	1bdb      	subs	r3, r3, r7
10018d36:	ea40 4006 	orr.w	r0, r0, r6, lsl #16
10018d3a:	e7a5      	b.n	10018c88 <__udivmoddi4+0x9c>
10018d3c:	f1c1 0620 	rsb	r6, r1, #32
10018d40:	408b      	lsls	r3, r1
10018d42:	fa22 f706 	lsr.w	r7, r2, r6
10018d46:	431f      	orrs	r7, r3
10018d48:	fa20 fc06 	lsr.w	ip, r0, r6
10018d4c:	fa04 f301 	lsl.w	r3, r4, r1
10018d50:	ea43 030c 	orr.w	r3, r3, ip
10018d54:	40f4      	lsrs	r4, r6
10018d56:	fa00 f801 	lsl.w	r8, r0, r1
10018d5a:	0c38      	lsrs	r0, r7, #16
10018d5c:	ea4f 4913 	mov.w	r9, r3, lsr #16
10018d60:	fbb4 fef0 	udiv	lr, r4, r0
10018d64:	fa1f fc87 	uxth.w	ip, r7
10018d68:	fb00 441e 	mls	r4, r0, lr, r4
10018d6c:	ea49 4404 	orr.w	r4, r9, r4, lsl #16
10018d70:	fb0e f90c 	mul.w	r9, lr, ip
10018d74:	45a1      	cmp	r9, r4
10018d76:	fa02 f201 	lsl.w	r2, r2, r1
10018d7a:	d90a      	bls.n	10018d92 <__udivmoddi4+0x1a6>
10018d7c:	193c      	adds	r4, r7, r4
10018d7e:	f10e 3aff 	add.w	sl, lr, #4294967295	@ 0xffffffff
10018d82:	f080 8084 	bcs.w	10018e8e <__udivmoddi4+0x2a2>
10018d86:	45a1      	cmp	r9, r4
10018d88:	f240 8081 	bls.w	10018e8e <__udivmoddi4+0x2a2>
10018d8c:	f1ae 0e02 	sub.w	lr, lr, #2
10018d90:	443c      	add	r4, r7
10018d92:	eba4 0409 	sub.w	r4, r4, r9
10018d96:	fa1f f983 	uxth.w	r9, r3
10018d9a:	fbb4 f3f0 	udiv	r3, r4, r0
10018d9e:	fb00 4413 	mls	r4, r0, r3, r4
10018da2:	ea49 4404 	orr.w	r4, r9, r4, lsl #16
10018da6:	fb03 fc0c 	mul.w	ip, r3, ip
10018daa:	45a4      	cmp	ip, r4
10018dac:	d907      	bls.n	10018dbe <__udivmoddi4+0x1d2>
10018dae:	193c      	adds	r4, r7, r4
10018db0:	f103 30ff 	add.w	r0, r3, #4294967295	@ 0xffffffff
10018db4:	d267      	bcs.n	10018e86 <__udivmoddi4+0x29a>
10018db6:	45a4      	cmp	ip, r4
10018db8:	d965      	bls.n	10018e86 <__udivmoddi4+0x29a>
10018dba:	3b02      	subs	r3, #2
10018dbc:	443c      	add	r4, r7
10018dbe:	ea43 400e 	orr.w	r0, r3, lr, lsl #16
10018dc2:	fba0 9302 	umull	r9, r3, r0, r2
10018dc6:	eba4 040c 	sub.w	r4, r4, ip
10018dca:	429c      	cmp	r4, r3
10018dcc:	46ce      	mov	lr, r9
10018dce:	469c      	mov	ip, r3
10018dd0:	d351      	bcc.n	10018e76 <__udivmoddi4+0x28a>
10018dd2:	d04e      	beq.n	10018e72 <__udivmoddi4+0x286>
10018dd4:	b155      	cbz	r5, 10018dec <__udivmoddi4+0x200>
10018dd6:	ebb8 030e 	subs.w	r3, r8, lr
10018dda:	eb64 040c 	sbc.w	r4, r4, ip
10018dde:	fa04 f606 	lsl.w	r6, r4, r6
10018de2:	40cb      	lsrs	r3, r1
10018de4:	431e      	orrs	r6, r3
10018de6:	40cc      	lsrs	r4, r1
10018de8:	e9c5 6400 	strd	r6, r4, [r5]
10018dec:	2100      	movs	r1, #0
10018dee:	e750      	b.n	10018c92 <__udivmoddi4+0xa6>
10018df0:	f1c2 0320 	rsb	r3, r2, #32
10018df4:	fa20 f103 	lsr.w	r1, r0, r3
10018df8:	fa0c fc02 	lsl.w	ip, ip, r2
10018dfc:	fa24 f303 	lsr.w	r3, r4, r3
10018e00:	4094      	lsls	r4, r2
10018e02:	430c      	orrs	r4, r1
10018e04:	ea4f 481c 	mov.w	r8, ip, lsr #16
10018e08:	fa00 fe02 	lsl.w	lr, r0, r2
10018e0c:	fa1f f78c 	uxth.w	r7, ip
10018e10:	fbb3 f0f8 	udiv	r0, r3, r8
10018e14:	fb08 3110 	mls	r1, r8, r0, r3
10018e18:	0c23      	lsrs	r3, r4, #16
10018e1a:	ea43 4301 	orr.w	r3, r3, r1, lsl #16
10018e1e:	fb00 f107 	mul.w	r1, r0, r7
10018e22:	4299      	cmp	r1, r3
10018e24:	d908      	bls.n	10018e38 <__udivmoddi4+0x24c>
10018e26:	eb1c 0303 	adds.w	r3, ip, r3
10018e2a:	f100 36ff 	add.w	r6, r0, #4294967295	@ 0xffffffff
10018e2e:	d22c      	bcs.n	10018e8a <__udivmoddi4+0x29e>
10018e30:	4299      	cmp	r1, r3
10018e32:	d92a      	bls.n	10018e8a <__udivmoddi4+0x29e>
10018e34:	3802      	subs	r0, #2
10018e36:	4463      	add	r3, ip
10018e38:	1a5b      	subs	r3, r3, r1
10018e3a:	b2a4      	uxth	r4, r4
10018e3c:	fbb3 f1f8 	udiv	r1, r3, r8
10018e40:	fb08 3311 	mls	r3, r8, r1, r3
10018e44:	ea44 4403 	orr.w	r4, r4, r3, lsl #16
10018e48:	fb01 f307 	mul.w	r3, r1, r7
10018e4c:	42a3      	cmp	r3, r4
10018e4e:	d908      	bls.n	10018e62 <__udivmoddi4+0x276>
10018e50:	eb1c 0404 	adds.w	r4, ip, r4
10018e54:	f101 36ff 	add.w	r6, r1, #4294967295	@ 0xffffffff
10018e58:	d213      	bcs.n	10018e82 <__udivmoddi4+0x296>
10018e5a:	42a3      	cmp	r3, r4
10018e5c:	d911      	bls.n	10018e82 <__udivmoddi4+0x296>
10018e5e:	3902      	subs	r1, #2
10018e60:	4464      	add	r4, ip
10018e62:	1ae4      	subs	r4, r4, r3
10018e64:	ea41 4100 	orr.w	r1, r1, r0, lsl #16
10018e68:	e739      	b.n	10018cde <__udivmoddi4+0xf2>
10018e6a:	4604      	mov	r4, r0
10018e6c:	e6f0      	b.n	10018c50 <__udivmoddi4+0x64>
10018e6e:	4608      	mov	r0, r1
10018e70:	e706      	b.n	10018c80 <__udivmoddi4+0x94>
10018e72:	45c8      	cmp	r8, r9
10018e74:	d2ae      	bcs.n	10018dd4 <__udivmoddi4+0x1e8>
10018e76:	ebb9 0e02 	subs.w	lr, r9, r2
10018e7a:	eb63 0c07 	sbc.w	ip, r3, r7
10018e7e:	3801      	subs	r0, #1
10018e80:	e7a8      	b.n	10018dd4 <__udivmoddi4+0x1e8>
10018e82:	4631      	mov	r1, r6
10018e84:	e7ed      	b.n	10018e62 <__udivmoddi4+0x276>
10018e86:	4603      	mov	r3, r0
10018e88:	e799      	b.n	10018dbe <__udivmoddi4+0x1d2>
10018e8a:	4630      	mov	r0, r6
10018e8c:	e7d4      	b.n	10018e38 <__udivmoddi4+0x24c>
10018e8e:	46d6      	mov	lr, sl
10018e90:	e77f      	b.n	10018d92 <__udivmoddi4+0x1a6>
10018e92:	4463      	add	r3, ip
10018e94:	3802      	subs	r0, #2
10018e96:	e74d      	b.n	10018d34 <__udivmoddi4+0x148>
10018e98:	4606      	mov	r6, r0
10018e9a:	4623      	mov	r3, r4
10018e9c:	4608      	mov	r0, r1
10018e9e:	e70f      	b.n	10018cc0 <__udivmoddi4+0xd4>
10018ea0:	3e02      	subs	r6, #2
10018ea2:	4463      	add	r3, ip
10018ea4:	e730      	b.n	10018d08 <__udivmoddi4+0x11c>
10018ea6:	bf00      	nop

10018ea8 <__aeabi_idiv0>:
10018ea8:	4770      	bx	lr
10018eaa:	bf00      	nop
10018eac:	746f6f62 	.word	0x746f6f62
10018eb0:	6d6f6320 	.word	0x6d6f6320
10018eb4:	00003270 	.word	0x00003270
10018eb8:	41672762 	.word	0x41672762
10018ebc:	41414141 	.word	0x41414141
10018ec0:	79376c42 	.word	0x79376c42
10018ec4:	3149722d 	.word	0x3149722d
10018ec8:	575f3152 	.word	0x575f3152
10018ecc:	39766d46 	.word	0x39766d46
10018ed0:	78665933 	.word	0x78665933
10018ed4:	2d6c334f 	.word	0x2d6c334f
10018ed8:	49453977 	.word	0x49453977
10018edc:	79684f30 	.word	0x79684f30
10018ee0:	6b524733 	.word	0x6b524733
10018ee4:	53636e61 	.word	0x53636e61
10018ee8:	7844634a 	.word	0x7844634a
10018eec:	39664b62 	.word	0x39664b62
10018ef0:	762d3472 	.word	0x762d3472
10018ef4:	5f5a476c 	.word	0x5f5a476c
10018ef8:	705a4666 	.word	0x705a4666
10018efc:	4577764c 	.word	0x4577764c
10018f00:	7a762d63 	.word	0x7a762d63
10018f04:	4b676470 	.word	0x4b676470
10018f08:	4a494946 	.word	0x4a494946
10018f0c:	525a2d32 	.word	0x525a2d32
10018f10:	5677644c 	.word	0x5677644c
10018f14:	6b59775a 	.word	0x6b59775a
10018f18:	414d7142 	.word	0x414d7142
10018f1c:	00273d3d 	.word	0x00273d3d
10018f20:	41672762 	.word	0x41672762
10018f24:	41414141 	.word	0x41414141
10018f28:	79376c42 	.word	0x79376c42
10018f2c:	6a71722d 	.word	0x6a71722d
10018f30:	316d5754 	.word	0x316d5754
10018f34:	374c3855 	.word	0x374c3855
10018f38:	45467a31 	.word	0x45467a31
10018f3c:	3646544b 	.word	0x3646544b
10018f40:	564d3143 	.word	0x564d3143
10018f44:	3271686c 	.word	0x3271686c
10018f48:	76516a46 	.word	0x76516a46
10018f4c:	42794f63 	.word	0x42794f63
10018f50:	334c3261 	.word	0x334c3261
10018f54:	6f705131 	.word	0x6f705131
10018f58:	67323550 	.word	0x67323550
10018f5c:	664f3374 	.word	0x664f3374
10018f60:	41627950 	.word	0x41627950
10018f64:	43705f78 	.word	0x43705f78
10018f68:	365f5257 	.word	0x365f5257
10018f6c:	44346f67 	.word	0x44346f67
10018f70:	63557577 	.word	0x63557577
10018f74:	76654e57 	.word	0x76654e57
10018f78:	5076575f 	.word	0x5076575f
10018f7c:	56684f62 	.word	0x56684f62
10018f80:	77523138 	.word	0x77523138
10018f84:	00273d3d 	.word	0x00273d3d
10018f88:	3e434f4c 	.word	0x3e434f4c
10018f8c:	440a7325 	.word	0x440a7325
10018f90:	3e455441 	.word	0x3e455441
10018f94:	430a7325 	.word	0x430a7325
10018f98:	3e545355 	.word	0x3e545355
10018f9c:	000a7325 	.word	0x000a7325
10018fa0:	41672762 	.word	0x41672762
10018fa4:	41414141 	.word	0x41414141
10018fa8:	79376c42 	.word	0x79376c42
10018fac:	4554722d 	.word	0x4554722d
10018fb0:	54524f43 	.word	0x54524f43
10018fb4:	6f2d3051 	.word	0x6f2d3051
10018fb8:	6e727372 	.word	0x6e727372
10018fbc:	4d77786c 	.word	0x4d77786c
10018fc0:	57676b58 	.word	0x57676b58
10018fc4:	7975475f 	.word	0x7975475f
10018fc8:	30326c38 	.word	0x30326c38
10018fcc:	69554366 	.word	0x69554366
10018fd0:	38316851 	.word	0x38316851
10018fd4:	63374436 	.word	0x63374436
10018fd8:	4b30774f 	.word	0x4b30774f
10018fdc:	76736473 	.word	0x76736473
10018fe0:	7637376b 	.word	0x7637376b
10018fe4:	6a503062 	.word	0x6a503062
10018fe8:	695f6559 	.word	0x695f6559
10018fec:	394a3947 	.word	0x394a3947
10018ff0:	41453632 	.word	0x41453632
10018ff4:	33354232 	.word	0x33354232
10018ff8:	38687532 	.word	0x38687532
10018ffc:	4b533970 	.word	0x4b533970
10019000:	41597061 	.word	0x41597061
10019004:	00273d3d 	.word	0x00273d3d
10019008:	6f727245 	.word	0x6f727245
1001900c:	55203a72 	.word	0x55203a72
10019010:	6365726e 	.word	0x6365726e
10019014:	696e676f 	.word	0x696e676f
10019018:	2064657a 	.word	0x2064657a
1001901c:	6d6d6f63 	.word	0x6d6d6f63
10019020:	20646e61 	.word	0x20646e61
10019024:	65636572 	.word	0x65636572
10019028:	64657669 	.word	0x64657669
1001902c:	0a642520 	.word	0x0a642520
10019030:	00000000 	.word	0x00000000
10019034:	6c696146 	.word	0x6c696146
10019038:	74206465 	.word	0x74206465
1001903c:	6e69206f 	.word	0x6e69206f
10019040:	61697469 	.word	0x61697469
10019044:	657a696c 	.word	0x657a696c
10019048:	43324920 	.word	0x43324920
1001904c:	0000002e 	.word	0x0000002e
10019050:	5f43584d 	.word	0x5f43584d
10019054:	45535341 	.word	0x45535341
10019058:	25205452 	.word	0x25205452
1001905c:	25232073 	.word	0x25232073
10019060:	28203a64 	.word	0x28203a64
10019064:	0a297325 	.word	0x0a297325
10019068:	00000000 	.word	0x00000000
1001906c:	6573552f 	.word	0x6573552f
10019070:	732f7372 	.word	0x732f7372
10019074:	6c696f70 	.word	0x6c696f70
10019078:	442f7265 	.word	0x442f7265
1001907c:	6d75636f 	.word	0x6d75636f
10019080:	73746e65 	.word	0x73746e65
10019084:	7469472f 	.word	0x7469472f
10019088:	2f627548 	.word	0x2f627548
1001908c:	2d544143 	.word	0x2d544143
10019090:	66746365 	.word	0x66746365
10019094:	3230322d 	.word	0x3230322d
10019098:	736d2f34 	.word	0x736d2f34
1001909c:	4c2f6b64 	.word	0x4c2f6b64
100190a0:	61726269 	.word	0x61726269
100190a4:	73656972 	.word	0x73656972
100190a8:	616f422f 	.word	0x616f422f
100190ac:	2f736472 	.word	0x2f736472
100190b0:	3758414d 	.word	0x3758414d
100190b4:	30303038 	.word	0x30303038
100190b8:	4854462f 	.word	0x4854462f
100190bc:	65525f52 	.word	0x65525f52
100190c0:	532f4176 	.word	0x532f4176
100190c4:	6372756f 	.word	0x6372756f
100190c8:	6f622f65 	.word	0x6f622f65
100190cc:	2e647261 	.word	0x2e647261
100190d0:	00000063 	.word	0x00000063
100190d4:	4c494146 	.word	0x4c494146
100190d8:	00000000 	.word	0x00000000

100190dc <num_leds>:
100190dc:	00000003                                ....

100190e0 <led_pin>:
100190e0:	40080400 00000001 00010001 40080400     ...@...........@
100190f0:	00000002 00010001 40080400 00000004     ...........@....
10019100:	00010001                                ....

10019104 <num_pbs>:
10019104:	00000002                                ....

10019108 <pb_pin>:
10019108:	40008000 00000004 00010100 40009000     ...@...........@
10019118:	00000080 00010100 6573552f 732f7372     ......../Users/s
10019128:	6c696f70 442f7265 6d75636f 73746e65     poiler/Documents
10019138:	7469472f 2f627548 2d544143 66746365     /GitHub/CAT-ectf
10019148:	3230322d 736d2f34 4c2f6b64 61726269     -2024/msdk/Libra
10019158:	73656972 73694d2f 69724463 73726576     ries/MiscDrivers
10019168:	44454c2f 64656c2f 0000632e 20786469     /LED/led.c..idx 
10019178:	756e203c 656c5f6d 00007364              < num_leds..

10019184 <gpio_cfg_extclk>:
10019184:	40008000 00000008 00000002              ...@........

10019190 <gpio_cfg_i2c0>:
10019190:	40008000 00000c00 00000002              ...@........

1001919c <gpio_cfg_i2c1>:
1001919c:	40008000 00030000 00000002              ...@........

100191a8 <gpio_cfg_i2c2>:
100191a8:	40008000 c0000000 00000002              ...@........

100191b4 <gpio_cfg_uart0>:
100191b4:	40008000 00000003 00000002              ...@........

100191c0 <gpio_cfg_uart1>:
100191c0:	40008000 00003000 00000002              ...@.0......

100191cc <gpio_cfg_uart2>:
100191cc:	40009000 00000003 00000002              ...@........

100191d8 <gpio_cfg_uart3>:
100191d8:	40080400 000000c0 00000003 552f3a43     ...@........C:/U
100191e8:	73726573 61434a2f 72657472 65722f33     sers/JCarter3/re
100191f8:	2f736f70 6b726f66 64736d2f 694c2f6b     pos/fork/msdk/Li
10019208:	72617262 2f736569 49534d43 2e2e2f53     braries/CMSIS/..
10019218:	7265502f 44687069 65766972 532f7372     /PeriphDrivers/S
10019228:	6372756f 50472f65 672f4f49 5f6f6970     ource/GPIO/gpio_
10019238:	6d6d6f63 632e6e6f 00000000 74726f70     common.c....port
10019248:	4d203c20 435f4358 475f4746 5f4f4950      < MXC_CFG_GPIO_
10019258:	54534e49 45434e41 00000053 00464e49     INSTANCES...INF.
10019268:	00666e69 004e414e 006e616e 33323130     inf.NAN.nan.0123
10019278:	37363534 62613938 66656463 00000000     456789abcdef....
10019288:	33323130 37363534 42413938 46454443     0123456789ABCDEF
10019298:	00000000 6c756e28 0000296c 00000030     ....(null)..0...

100192a8 <zeroes.0>:
100192a8:	30303030 30303030 30303030 30303030     0000000000000000

100192b8 <blanks.1>:
100192b8:	20202020 20202020 20202020 20202020                     

100192c8 <zeroes.0>:
100192c8:	30303030 30303030 30303030 30303030     0000000000000000

100192d8 <blanks.1>:
100192d8:	20202020 20202020 20202020 20202020                     
100192e8:	0000000a 435f434c 414c4c4f 00004554     ....LC_COLLATE..
100192f8:	435f434c 45505954 00000000 4d5f434c     LC_CTYPE....LC_M
10019308:	54454e4f 00595241 4e5f434c 52454d55     ONETARY.LC_NUMER
10019318:	00004349 545f434c 00454d49 4d5f434c     IC..LC_TIME.LC_M
10019328:	41535345 00534547                       ESSAGES.

10019330 <_ctype_>:
10019330:	20202000 20202020 28282020 20282828     .         ((((( 
10019340:	20202020 20202020 20202020 20202020                     
10019350:	10108820 10101010 10101010 10101010      ...............
10019360:	04040410 04040404 10040404 10101010     ................
10019370:	41411010 41414141 01010101 01010101     ..AAAAAA........
10019380:	01010101 01010101 01010101 10101010     ................
10019390:	42421010 42424242 02020202 02020202     ..BBBBBB........
100193a0:	02020202 02020202 02020202 10101010     ................
100193b0:	00000020 00000000 00000000 00000000      ...............
	...
10019434:	69666e49 7974696e 00000000 004e614e     Infinity....NaN.
10019444:	6c6c6142 7320636f 65636375 64656465     Balloc succeeded
10019454:	00000000 6c6f562f 73656d75 7461642f     ..../Volumes/dat
10019464:	656a2f61 6e696b6e 6f772f73 70736b72     a/jenkins/worksp
10019474:	2f656361 2d554e47 6c6f6f74 69616863     ace/GNU-toolchai
10019484:	72612f6e 32312d6d 6372732f 77656e2f     n/arm-12/src/new
10019494:	2d62696c 77677963 6e2f6e69 696c7765     lib-cygwin/newli
100194a4:	696c2f62 732f6362 696c6474 74642f62     b/libc/stdlib/dt
100194b4:	632e616f 00000000                       oa.c....

100194bc <zeroes.0>:
100194bc:	30303030 30303030 30303030 30303030     0000000000000000

100194cc <blanks.1>:
100194cc:	20202020 20202020 20202020 20202020                     
100194dc:	6c6f562f 73656d75 7461642f 656a2f61     /Volumes/data/je
100194ec:	6e696b6e 6f772f73 70736b72 2f656361     nkins/workspace/
100194fc:	2d554e47 6c6f6f74 69616863 72612f6e     GNU-toolchain/ar
1001950c:	32312d6d 6372732f 77656e2f 2d62696c     m-12/src/newlib-
1001951c:	77677963 6e2f6e69 696c7765 696c2f62     cygwin/newlib/li
1001952c:	732f6362 696c6474 706d2f62 2e636572     bc/stdlib/mprec.
1001953c:	00000063                                c...

10019540 <p05.0>:
10019540:	00000005 00000019 0000007d 00000000     ........}.......

10019550 <__mprec_bigtens>:
10019550:	37e08000 4341c379 b5056e17 4693b8b5     ...7y.AC.n.....F
10019560:	e93ff9f5 4d384f03 f9301d32 5a827748     ..?..O8M2.0.Hw.Z
10019570:	7f73bf3c 75154fdd                       <.s..O.u

10019578 <__mprec_tens>:
10019578:	00000000 3ff00000 00000000 40240000     .......?......$@
10019588:	00000000 40590000 00000000 408f4000     ......Y@.....@.@
10019598:	00000000 40c38800 00000000 40f86a00     .......@.....j.@
100195a8:	00000000 412e8480 00000000 416312d0     .......A......cA
100195b8:	00000000 4197d784 00000000 41cdcd65     .......A....e..A
100195c8:	20000000 4202a05f e8000000 42374876     ... _..B....vH7B
100195d8:	a2000000 426d1a94 e5400000 42a2309c     ......mB..@..0.B
100195e8:	1e900000 42d6bcc4 26340000 430c6bf5     .......B..4&.k.C
100195f8:	37e08000 4341c379 85d8a000 43763457     ...7y.AC....W4vC
10019608:	674ec800 43abc16d 60913d00 43e158e4     ..Ngm..C.=.`.X.C
10019618:	78b58c40 4415af1d d6e2ef50 444b1ae4     @..x...DP.....KD
10019628:	064dd592 4480f0cf c7e14af6 44b52d02     ..M....D.J...-.D
10019638:	79d99db4 44ea7843 7566202c 6974636e     ...yCx.D, functi
10019648:	203a6e6f 00000000 65737361 6f697472     on: ....assertio
10019658:	2522206e 66202273 656c6961 66203a64     n "%s" failed: f
10019668:	20656c69 22732522 696c202c 2520656e     ile "%s", line %
10019678:	25732564 00000a73                       d%s%s...

10019680 <_init>:
10019680:	b5f8      	push	{r3, r4, r5, r6, r7, lr}
10019682:	bf00      	nop
10019684:	bcf8      	pop	{r3, r4, r5, r6, r7}
10019686:	bc08      	pop	{r3}
10019688:	469e      	mov	lr, r3
1001968a:	4770      	bx	lr

1001968c <_fini>:
1001968c:	b5f8      	push	{r3, r4, r5, r6, r7, lr}
1001968e:	bf00      	nop
10019690:	bcf8      	pop	{r3, r4, r5, r6, r7}
10019692:	bc08      	pop	{r3}
10019694:	469e      	mov	lr, r3
10019696:	4770      	bx	lr

10019698 <__EH_FRAME_BEGIN__>:
10019698:	0010 0000 0000 0000 7a01 0052 7c02 010e     .........zR..|..
100196a8:	0c1b 000d 0038 0000 0018 0000 ab5c ffff     ....8.......\...
100196b8:	009e 0000 5100 100e 0484 0385 0286 0187     .....Q..........
100196c8:	c75b c5c6 0ec4 4c00 420a 0a0b 0b42 100e     [......L.B..B...
100196d8:	0484 0385 0286 0187 c751 c5c6 0ec4 0000     ........Q.......
100196e8:	0010 0000 0000 0000 7a01 0052 7c02 010e     .........zR..|..
100196f8:	0c1b 000d 0014 0000 0018 0000 abac ffff     ................
10019708:	0134 0000 0200 0a71 0b43 0000 0010 0000     4.....q.C.......
10019718:	0000 0000 7a01 0052 7c02 010e 0c1b 000d     .....zR..|......
10019728:	001c 0000 0018 0000 acd0 ffff 00d8 0000     ................
10019738:	4100 080e 0185 0284 4902 4a0a c4c5 0b41     .A.......I.J..A.

10019748 <__FRAME_END__>:
10019748:	0000 0000                                   ....
